
AT32F403ACGU7_clone_windows_desktop_virtual_com_port.elf:     file format elf32-littlearm
AT32F403ACGU7_clone_windows_desktop_virtual_com_port.elf
architecture: armv7e-m, flags 0x00000112:
EXEC_P, HAS_SYMS, D_PAGED
start address 0x080025f9

Program Header:
    LOAD off    0x00010000 vaddr 0x08000000 paddr 0x08000000 align 2**16
         filesz 0x00005eac memsz 0x00005eac flags rwx
    LOAD off    0x00020000 vaddr 0x20000000 paddr 0x08005eac align 2**16
         filesz 0x000001c4 memsz 0x00009228 flags rw-
    LOAD off    0x00009228 vaddr 0x20009228 paddr 0x08006070 align 2**16
         filesz 0x00000000 memsz 0x00000600 flags rw-
private flags = 0x5000400: [Version5 EABI] [hard-float ABI]

Sections:
Idx Name              Size      VMA       LMA       File off  Algn  Flags
  0 .isr_vector       00000184  08000000  08000000  00010000  2**0  CONTENTS, ALLOC, LOAD, READONLY, DATA
  1 .text             0000502c  08000188  08000188  00010188  2**3  CONTENTS, ALLOC, LOAD, READONLY, CODE
  2 .rodata           00000cec  080051b4  080051b4  000151b4  2**2  CONTENTS, ALLOC, LOAD, READONLY, DATA
  3 .init_array       00000008  08005ea0  08005ea0  00015ea0  2**2  CONTENTS, ALLOC, LOAD, DATA
  4 .fini_array       00000004  08005ea8  08005ea8  00015ea8  2**2  CONTENTS, ALLOC, LOAD, DATA
  5 .data             000001c4  20000000  08005eac  00020000  2**2  CONTENTS, ALLOC, LOAD, DATA
  6 .bss              00009064  200001c4  08006070  000201c4  2**2  ALLOC
  7 ._user_heap_stack 00000600  20009228  08006070  00029228  2**0  ALLOC
  8 .ARM.attributes   00000032  00000000  00000000  000201c4  2**0  CONTENTS, READONLY
  9 .debug_frame      00001b70  00000000  00000000  000201f8  2**2  CONTENTS, READONLY, DEBUGGING, OCTETS
 10 .debug_info       0002518c  00000000  00000000  00021d68  2**0  CONTENTS, READONLY, DEBUGGING, OCTETS
 11 .debug_abbrev     00003bf8  00000000  00000000  00046ef4  2**0  CONTENTS, READONLY, DEBUGGING, OCTETS
 12 .debug_aranges    00000b80  00000000  00000000  0004aaf0  2**3  CONTENTS, READONLY, DEBUGGING, OCTETS
 13 .debug_ranges     00001c40  00000000  00000000  0004b670  2**3  CONTENTS, READONLY, DEBUGGING, OCTETS
 14 .debug_line       0000cad3  00000000  00000000  0004d2b0  2**0  CONTENTS, READONLY, DEBUGGING, OCTETS
 15 .debug_str        000088e5  00000000  00000000  00059d83  2**0  CONTENTS, READONLY, DEBUGGING, OCTETS
 16 .comment          00000049  00000000  00000000  00062668  2**0  CONTENTS, READONLY
 17 .debug_loc        0001096b  00000000  00000000  000626b1  2**0  CONTENTS, READONLY, DEBUGGING, OCTETS
SYMBOL TABLE:
08000000 l    d  .isr_vector	00000000 .isr_vector
08000188 l    d  .text	00000000 .text
080051b4 l    d  .rodata	00000000 .rodata
08005ea0 l    d  .init_array	00000000 .init_array
08005ea8 l    d  .fini_array	00000000 .fini_array
20000000 l    d  .data	00000000 .data
200001c4 l    d  .bss	00000000 .bss
20009228 l    d  ._user_heap_stack	00000000 ._user_heap_stack
00000000 l    d  .ARM.attributes	00000000 .ARM.attributes
00000000 l    d  .debug_frame	00000000 .debug_frame
00000000 l    d  .debug_info	00000000 .debug_info
00000000 l    d  .debug_abbrev	00000000 .debug_abbrev
00000000 l    d  .debug_aranges	00000000 .debug_aranges
00000000 l    d  .debug_ranges	00000000 .debug_ranges
00000000 l    d  .debug_line	00000000 .debug_line
00000000 l    d  .debug_str	00000000 .debug_str
00000000 l    d  .comment	00000000 .comment
00000000 l    d  .debug_loc	00000000 .debug_loc
00000000 l    df *ABS*	00000000 startup_at32f403a_407.o
08002604 l       .text	00000000 LoopCopyDataInit
080025fc l       .text	00000000 CopyDataInit
08002618 l       .text	00000000 LoopFillZerobss
08002612 l       .text	00000000 FillZerobss
08002640 l       .text	00000000 Infinite_Loop
00000000 l    df *ABS*	00000000 crtstuff.c
0800519c l     O .text	00000000 __EH_FRAME_BEGIN__
08000188 l     F .text	00000000 __do_global_dtors_aux
200001c4 l       .bss	00000001 completed.1
08005ea8 l     O .fini_array	00000000 __do_global_dtors_aux_fini_array_entry
080001ac l     F .text	00000000 frame_dummy
200001c8 l       .bss	00000018 object.0
08005ea4 l     O .init_array	00000000 __frame_dummy_init_array_entry
00000000 l    df *ABS*	00000000 lib_a-strlen.o
00000000 l    df *ABS*	00000000 crtfastmath.c
080001d8 l     F .text	0000000e __arm_set_fast_math
00000000 l    df *ABS*	00000000 at32f403a_407_clock.c
00000000 l    df *ABS*	00000000 at32f403a_407_int.c
00000000 l    df *ABS*	00000000 main.c
00000000 l    df *ABS*	00000000 usbd_core.c
00000000 l    df *ABS*	00000000 usbd_int.c
00000000 l    df *ABS*	00000000 usbd_sdr.c
200061dc l     O .bss	00000001 config_value.0
00000000 l    df *ABS*	00000000 at32f403a_407_acc.c
00000000 l    df *ABS*	00000000 at32f403a_407_crm.c
080051dc l     O .rodata	00000008 ahb_apb2_div_table.1
080051dc l     O .rodata	00000008 ahb_apb1_div_table.2
080051d4 l     O .rodata	00000008 adc_div_table.0
080051e4 l     O .rodata	00000010 sclk_ahb_div_table.3
00000000 l    df *ABS*	00000000 at32f403a_407_dma.c
00000000 l    df *ABS*	00000000 at32f403a_407_gpio.c
00000000 l    df *ABS*	00000000 at32f403a_407_misc.c
00000000 l    df *ABS*	00000000 at32f403a_407_spi.c
00000000 l    df *ABS*	00000000 at32f403a_407_tmr.c
00000000 l    df *ABS*	00000000 at32f403a_407_usb.c
20000000 l     O .data	00000002 g_usb_offset_addr
00000000 l    df *ABS*	00000000 system_at32f403a_407.c
080051f4 l     O .rodata	00000010 sys_ahb_div_table.0
00000000 l    df *ABS*	00000000 cdc_class.c
08002754 l     F .text	00000004 class_ept0_tx_handler
08002758 l     F .text	0000000e class_in_handler
08002768 l     F .text	00000004 class_event_handler
0800276c l     F .text	00000088 class_out_handler
080027f4 l     F .text	0000001e class_clear_handler
08002814 l     F .text	00000080 class_init_handler
08002894 l     F .text	00000004 class_sof_handler
08002898 l     F .text	000000e0 class_setup_handler
08002978 l     F .text	0000003e class_ept0_rx_handler
00000000 l    df *ABS*	00000000 cdc_desc.c
080029e4 l     F .text	00000008 get_device_descriptor
080029ec l     F .text	00000004 get_device_qualifier
080029f0 l     F .text	00000008 get_device_configuration
080029f8 l     F .text	00000008 get_device_lang_id
08002a00 l     F .text	00000054 get_device_manufacturer_string
08002a54 l     F .text	00000054 get_device_product_string
08002aa8 l     F .text	00000054 get_device_interface_string
08002afc l     F .text	00000054 get_device_config_string
08002b50 l     F .text	0000011c get_device_serial_string
08002c6c l     F .text	00000004 get_device_other_speed
2000623c l     O .bss	00000100 g_usbd_desc_buffer
2000633c l     O .bss	00000008 vp_desc
20000064 l     O .data	00000008 config_descriptor
20000094 l     O .data	00000043 g_usbd_configuration
2000006c l     O .data	00000008 device_descriptor
200000d8 l     O .data	00000012 g_usbd_descriptor
20000074 l     O .data	00000004 g_string_lang_id
20000078 l     O .data	0000001a g_string_serial
200000ec l     O .data	00000008 langid_descriptor
200000f4 l     O .data	00000008 serial_descriptor
00000000 l    df *ABS*	00000000 at32f403a_407_board.c
00000000 l    df *ABS*	00000000 jpeg_chan.c
08002c8c l     F .text	00000044 tjd_output
08002cd0 l     F .text	0000002e tjd_input_memory
00000000 l    df *ABS*	00000000 tjpgd.c
08005258 l     O .rodata	00000080 Ipsf
080052d8 l     O .rodata	00000040 Zig
00000000 l    df *ABS*	00000000 display.c
00000000 l    df *ABS*	00000000 display_asm.o
08004fda l       .text	00000000 .Display_TC_Callback1
08005006 l       .text	00000000 .Display_TC_Callback2
08005010 l       .text	00000000 .Display_TC_Callback3
08005022 l       .text	00000000 .Display_TC_Callback4
00000000 l    df *ABS*	00000000 ili9341.c
00000000 l    df *ABS*	00000000 init.c
00000000 l    df *ABS*	00000000 memcpy-stub.c
00000000 l    df *ABS*	00000000 memset.c
00000000 l    df *ABS*	00000000 utoa.c
00000000 l    df *ABS*	00000000 crti.o
00000000 l    df *ABS*	00000000 crtn.o
00000000 l    df *ABS*	00000000 fonts.c
08005318 l     O .rodata	00000b60 Font8x13
00000000 l    df *ABS*	00000000 
08005ea8 l       .init_array	00000000 __init_array_end
08005ea0 l       .init_array	00000000 __preinit_array_end
08005ea0 l       .init_array	00000000 __init_array_start
08005ea0 l       .init_array	00000000 __preinit_array_start
08002640  w    F .text	00000002 SDIO1_IRQHandler
08002640  w    F .text	00000002 XMC_IRQHandler
0800083c g     F .text	0000005c usbd_ctrl_recv
08002640  w    F .text	00000002 EXINT2_IRQHandler
08002d98 g     F .text	00000946 jd_prepare
08000724 g     F .text	0000000c USBFS_L_CAN1_RX0_IRQHandler
08000280 g     F .text	00000002 DebugMon_Handler
080019a0 g     F .text	00000010 crm_sysclk_switch_status_get
08002640  w    F .text	00000002 UART8_IRQHandler
08002640  w    F .text	00000002 SPI4_IRQHandler
08004e4c  w    F .text	0000008e LCD_WriteDataDMA
08002640  w    F .text	00000002 I2C2_EVT_IRQHandler
08001928 g     F .text	00000010 crm_apb2_div_set
08002640  w    F .text	00000002 TMR1_OVF_TMR10_IRQHandler
08002640  w    F .text	00000002 TMR8_TRG_HALL_TMR14_IRQHandler
20006344 g     O .bss	00002ee0 work_buffer
08002640  w    F .text	00000002 USBFS_H_CAN1_TX_IRQHandler
08002640  w    F .text	00000002 I2C1_ERR_IRQHandler
08002640  w    F .text	00000002 EXINT9_5_IRQHandler
08000780 g     F .text	000000bc usbd_ctrl_send
0800026c g     F .text	00000002 HardFault_Handler
08000bd8 g     F .text	000000d4 usbd_core_in_handler
200001a0 g     O .data	00000012 ili9341_setwin_str
00000400 g       *ABS*	00000000 _Min_Stack_Size
08000288 g     F .text	00000010 SysTick_Handler
2000010c g     O .data	00000091 ili9341_init_str
080020d4 g     F .text	0000000a tmr_output_enable
08005eac g       *ABS*	00000000 _sidata
08002640  w    F .text	00000002 EMAC_IRQHandler
08000284 g     F .text	00000002 PendSV_Handler
08000268 g     F .text	00000002 NMI_Handler
08005ea0 g       .init_array	00000000 __exidx_end
08002640  w    F .text	00000002 CAN2_RX1_IRQHandler
08004f66  w    F .text	00000050 LCD_DrawImage
08002640  w    F .text	00000002 TMR5_GLOBAL_IRQHandler
20000034 g     O .data	00000008 linecoding
080051b4 g       .text	00000000 _etext
200001c4 g       .bss	00000000 _sbss
08004d28  w    F .text	000000be LCD_SetActiveWindow
08001ac4 g     F .text	00000028 crm_usb_clock_source_select
08001868 g     F .text	00000024 crm_hext_stable_wait
08001918 g     F .text	00000010 crm_apb1_div_set
08002d00 g     F .text	00000098 LCD_Load_JPG_chan
080017dc g     F .text	0000000c acc_write_c1
080050e8 g     F .text	0000001c memcpy
08001fc8 g     F .text	0000000a tmr_cnt_dir_set
08001aa4 g     F .text	00000020 crm_auto_step_mode_enable
080020b4 g     F .text	00000020 tmr_channel_value_set
08001eac g     F .text	000000f4 spi_init
08000730 g     F .text	00000050 usbd_core_setup_handler
20005fac g     O .bss	00000001 recieve_fl
08000278 g     F .text	00000002 UsageFault_Handler
08002640  w    F .text	00000002 SDIO2_IRQHandler
08002640  w    F .text	00000002 ADC1_2_IRQHandler
08005030 g     F .text	0000003c ILI9341_Init
080020e0 g     F .text	0000001c usb_dev_init
200001c4 g       .bss	00000000 __bss_start__
08000cac g     F .text	00000054 usbd_ept_recv
200000fc g     O .data	00000001 AVI_color_mode
08001dfc g     F .text	0000008c nvic_irq_enable
08000db4 g     F .text	00000188 usbd_ept_defaut_init
08001990 g     F .text	00000010 crm_sysclk_switch
080009b4 g     F .text	00000074 usbd_set_stall
20000000 g       .data	00000000 _sdata
08002640  w    F .text	00000002 SPI1_IRQHandler
08002640  w    F .text	00000002 TAMPER_IRQHandler
08001844 g     F .text	00000022 crm_flag_get
08002580 g     F .text	00000028 usb_read_packet
08002640  w    F .text	00000002 CAN2_RX0_IRQHandler
08000da4 g     F .text	00000006 usbd_connect
080049b8 g     F .text	00000302 LCD_WriteChar
080017e8 g     F .text	0000000c acc_write_c2
08001908 g     F .text	00000010 crm_ahb_div_set
20000004 g     O .data	00000004 g_usb_packet_address
08005ea0 g       .init_array	00000000 __exidx_start
080050a0 g     F .text	00000048 __libc_init_array
08002640  w    F .text	00000002 DMA2_Channel2_IRQHandler
08002640  w    F .text	00000002 DMA1_Channel4_IRQHandler
08002640  w    F .text	00000002 TMR8_CH_IRQHandler
08002640  w    F .text	00000002 USART6_IRQHandler
0800519c g     F .text	00000000 _init
08002640  w    F .text	00000002 EXINT0_IRQHandler
08000f3c g     F .text	000001c4 usbd_core_init
08002640  w    F .text	00000002 USART3_IRQHandler
08000898 g     F .text	000000a8 usbd_ctrl_send_status
08002640  w    F .text	00000002 RTC_IRQHandler
20009228 g       .bss	00000000 _ebss
080019b0 g     F .text	000000f4 crm_clocks_freq_get
08002640  w    F .text	00000002 DMA1_Channel7_IRQHandler
080025f8  w    F .text	00000034 Reset_Handler
08000a28 g     F .text	00000054 usbd_ctrl_unsupport
08002640  w    F .text	00000002 CAN1_RX1_IRQHandler
08005198 g     F .text	00000004 utoa
08001100 g     F .text	00000058 usbd_reset_handler
08002640  w    F .text	00000002 UART5_IRQHandler
08002640  w    F .text	00000002 ADC3_IRQHandler
08002640  w    F .text	00000002 ACC_IRQHandler
200001b4 g     O .data	00000006 ili9341_sleepin_str
08002640  w    F .text	00000002 EMAC_WKUP_IRQHandler
08002640  w    F .text	00000002 DMA2_Channel1_IRQHandler
20000008 g     O .data	00000004 system_core_clock
080025f0 g     F .text	00000006 usb_flag_clear
20005fa4 g     O .bss	00000002 len_buf
08004708 g     F .text	00000208 LCD_DisplayAdd
08001fa0 g     F .text	0000000a tmr_counter_enable
08002640  w    F .text	00000002 EXINT3_IRQHandler
20005fb0 g     O .bss	0000022c usb_core_dev
08002640  w    F .text	00000002 DMA1_Channel6_IRQHandler
08002640  w    F .text	00000002 UART4_IRQHandler
20009228 g       .bss	00000000 __bss_end__
08002558 g     F .text	00000028 usb_write_packet
08004cbc g     F .text	0000006a LCD_WriteString
00000200 g       *ABS*	00000000 _Min_Heap_Size
08000298 g     F .text	0000000c DMA1_Channel1_IRQHandler
08002640 g       .text	00000002 Default_Handler
08002110 g     F .text	00000328 usb_ept_open
08002640  w    F .text	00000002 USBFS_MAPH_IRQHandler
200001e4 g     O .bss	00005dc0 buffer
080036e0 g     F .text	00000f46 jd_decomp
08002640  w    F .text	00000002 TMR3_GLOBAL_IRQHandler
08000b40 g     F .text	00000098 usbd_core_out_handler
08002640  w    F .text	00000002 TMR7_GLOBAL_IRQHandler
08002640  w    F .text	00000002 CAN1_SE_IRQHandler
08001e88 g     F .text	00000016 systick_clock_source_config
08005098 g     F .text	00000008 ILI9341_SleepOut
08002640  w    F .text	00000002 CAN2_TX_IRQHandler
08002640  w    F .text	00000002 I2C3_ERR_IRQHandler
08002640  w    F .text	00000002 SPI3_I2S3EXT_IRQHandler
08001938 g     F .text	00000058 crm_pll_config
08000d3c g     F .text	00000044 usbd_ept_open
080001e8 g     F .text	00000080 system_clock_config
08000d80 g     F .text	00000022 usbd_ept_close
08002640  w    F .text	00000002 TMR1_BRK_TMR9_IRQHandler
0800141c g     F .text	00000028 usbd_setup_request_parse
20000100 g     O .data	0000000c Font_8x13
08002640  w    F .text	00000002 USBFS_MAPL_IRQHandler
08001ea0 g     F .text	0000000c spi_default_para_init
08002640  w    F .text	00000002 TMR8_BRK_TMR12_IRQHandler
08005114 g     F .text	00000084 __utoa
08001800 g     F .text	00000044 crm_reset
08004910 g     F .text	00000088 LCD_Init
08005104 g     F .text	00000010 memset
080029b8 g     F .text	0000002c usb_vcp_send_data
08000270 g     F .text	00000002 MemManage_Handler
08002640  w    F .text	00000002 TMR1_TRG_HALL_TMR11_IRQHandler
080002a8 g     F .text	0000047c main
08002c70 g     F .text	0000001c delay_ms
080025d0 g     F .text	00000012 usb_exit_suspend
08001bd8 g     F .text	0000000e dma_default_para_init
08000dac g     F .text	00000006 usbd_enter_suspend
0800027c g     F .text	00000002 SVC_Handler
08001be8 g     F .text	00000062 dma_init
08001158 g     F .text	000002c4 usbd_irq_handler
080018b8 g     F .text	00000050 crm_clock_source_enable
080017f4 g     F .text	0000000c acc_write_c3
08002640  w    F .text	00000002 DMA1_Channel5_IRQHandler
08001688 g     F .text	0000003a usbd_interface_request
08000a7c g     F .text	000000c4 usbd_ept_send
080026a8 g     F .text	000000ac system_core_clock_update
080025bc g     F .text	00000012 usb_enter_suspend
08001fb8 g     F .text	0000000e tmr_base_init
08002644 g     F .text	00000064 SystemInit
08002640  w    F .text	00000002 TMR4_GLOBAL_IRQHandler
08004998 g     F .text	00000020 LCD_Fill
080051a8 g     F .text	00000000 _fini
08002640  w    F .text	00000002 EXINT4_IRQHandler
08002640  w    F .text	00000002 CAN2_SE_IRQHandler
08001fd4 g     F .text	000000e0 tmr_output_channel_config
08002640  w    F .text	00000002 DMA2_Channel6_7_IRQHandler
08002640  w    F .text	00000002 PVM_IRQHandler
08002640  w    F .text	00000002 I2C3_EVT_IRQHandler
080017b4 g     F .text	00000028 acc_calibration_mode_enable
08002640  w    F .text	00000002 DMA1_Channel3_IRQHandler
200001bc g     O .data	00000006 ili9341_sleepout_str
08002640  w    F .text	00000002 I2C1_EVT_IRQHandler
08002640  w    F .text	00000002 TMR8_OVF_TMR13_IRQHandler
08004fb8  w    F .text	00000074 Display_TC_Callback
200001e0 g     O .bss	00000002 buf_offs
08004eda  w    F .text	0000008c LCD_FillWindow
08004de6  w    F .text	00000066 LCD_WriteData
08000d00 g     F .text	0000000e usbd_get_recv_len
08002640  w    F .text	00000002 TMR6_GLOBAL_IRQHandler
080025e4 g     F .text	0000000c usb_buffer_free
2000000c g     O .data	00000028 cdc_class_handler
08002640  w    F .text	00000002 EXINT1_IRQHandler
20018000 g       *ABS*	00000000 _estack
08001b44 g     F .text	00000092 dma_flexible_config
08001444 g     F .text	00000244 usbd_device_request
200001c4 g       .data	00000000 _edata
08002640  w    F .text	00000002 RTCAlarm_IRQHandler
08002640  w    F .text	00000002 DMA2_Channel4_5_IRQHandler
08002640  w    F .text	00000002 UART7_IRQHandler
08002640  w    F .text	00000002 USART2_IRQHandler
0800506c g     F .text	00000024 ILI9341_SetWindow
08000000 g     O .isr_vector	00000000 g_pfnVectors
08002640  w    F .text	00000002 DMA1_Channel2_IRQHandler
080020fc g     F .text	00000012 usb_connect
08002640  w    F .text	00000002 TMR2_GLOBAL_IRQHandler
20009224 g     O .bss	00000004 LCD
080025a8 g     F .text	00000012 usb_set_address
08002438 g     F .text	00000120 usb_ept_close
0800188c g     F .text	0000002c crm_periph_clock_enable
08000d10 g     F .text	0000002c usbd_ept_buf_custom_define
08000940 g     F .text	00000074 usbd_clear_stall
08002640  w    F .text	00000002 FLASH_IRQHandler
08002640  w    F .text	00000002 SPI2_I2S2EXT_IRQHandler
08002640  w    F .text	00000002 I2C2_ERR_IRQHandler
08002640  w    F .text	00000002 USBFSWakeUp_IRQHandler
08000274 g     F .text	00000002 BusFault_Handler
08002640  w    F .text	00000002 USART1_IRQHandler
08002640  w    F .text	00000002 TMR1_CH_IRQHandler
08002640  w    F .text	00000002 CRM_IRQHandler
200061e0 g     O .bss	0000005c cdc_struct
08001dec g     F .text	00000010 gpio_default_para_init
080001c8 g     F .text	00000010 strlen
08001aec g     F .text	00000058 dma_reset
2000003c g     O .data	00000028 cdc_desc_handler
08001c4c g     F .text	0000019e gpio_init
08005090 g     F .text	00000008 ILI9341_SleepIn
08002640  w    F .text	00000002 EXINT15_10_IRQHandler
20005fa8 g     O .bss	00000004 millis
08001fac g     F .text	0000000c tmr_output_default_para_init
08002640  w    F .text	00000002 WWDT_IRQHandler
08004628 g     F .text	000000e0 LCD_String_Interpretator
08002640  w    F .text	00000002 DMA2_Channel3_IRQHandler
080016c4 g     F .text	000000f0 usbd_endpoint_request



Disassembly of section .text:

08000188 <__do_global_dtors_aux>:
__do_global_dtors_aux():
 8000188:	b510      	push	{r4, lr}
 800018a:	4c05      	ldr	r4, [pc, #20]	; (80001a0 <__do_global_dtors_aux+0x18>)
 800018c:	7823      	ldrb	r3, [r4, #0]
 800018e:	b933      	cbnz	r3, 800019e <__do_global_dtors_aux+0x16>
 8000190:	4b04      	ldr	r3, [pc, #16]	; (80001a4 <__do_global_dtors_aux+0x1c>)
 8000192:	b113      	cbz	r3, 800019a <__do_global_dtors_aux+0x12>
 8000194:	4804      	ldr	r0, [pc, #16]	; (80001a8 <__do_global_dtors_aux+0x20>)
 8000196:	f3af 8000 	nop.w
 800019a:	2301      	movs	r3, #1
 800019c:	7023      	strb	r3, [r4, #0]
 800019e:	bd10      	pop	{r4, pc}
 80001a0:	200001c4 	.word	0x200001c4
 80001a4:	00000000 	.word	0x00000000
 80001a8:	0800519c 	.word	0x0800519c

080001ac <frame_dummy>:
frame_dummy():
 80001ac:	b508      	push	{r3, lr}
 80001ae:	4b03      	ldr	r3, [pc, #12]	; (80001bc <frame_dummy+0x10>)
 80001b0:	b11b      	cbz	r3, 80001ba <frame_dummy+0xe>
 80001b2:	4903      	ldr	r1, [pc, #12]	; (80001c0 <frame_dummy+0x14>)
 80001b4:	4803      	ldr	r0, [pc, #12]	; (80001c4 <frame_dummy+0x18>)
 80001b6:	f3af 8000 	nop.w
 80001ba:	bd08      	pop	{r3, pc}
 80001bc:	00000000 	.word	0x00000000
 80001c0:	200001c8 	.word	0x200001c8
 80001c4:	0800519c 	.word	0x0800519c

080001c8 <strlen>:
strlen():
 80001c8:	4603      	mov	r3, r0
 80001ca:	f813 2b01 	ldrb.w	r2, [r3], #1
 80001ce:	2a00      	cmp	r2, #0
 80001d0:	d1fb      	bne.n	80001ca <strlen+0x2>
 80001d2:	1a18      	subs	r0, r3, r0
 80001d4:	3801      	subs	r0, #1
 80001d6:	4770      	bx	lr

080001d8 <__arm_set_fast_math>:
__arm_set_fast_math():
 80001d8:	eef1 3a10 	vmrs	r3, fpscr
 80001dc:	f043 7380 	orr.w	r3, r3, #16777216	; 0x1000000
 80001e0:	eee1 3a10 	vmsr	fpscr, r3
 80001e4:	4770      	bx	lr
 80001e6:	bf00      	nop

080001e8 <system_clock_config>:
system_clock_config():
F:\AT32-workspace\AT32F403ACGU7_clone_windows_desktop_virtual_com_port\Release/../user/at32f403a_407_clock.c:47
  *         - pll_range           = GT72MHZ (greater than 72 mhz)
  * @param  none
  * @retval none
  */
void system_clock_config(void)
{
 80001e8:	b510      	push	{r4, lr}
F:\AT32-workspace\AT32F403ACGU7_clone_windows_desktop_virtual_com_port\Release/../user/at32f403a_407_clock.c:49
  /* reset crm */
  crm_reset();
 80001ea:	f001 fb09 	bl	8001800 <crm_reset>
F:\AT32-workspace\AT32F403ACGU7_clone_windows_desktop_virtual_com_port\Release/../user/at32f403a_407_clock.c:52

  /* enable hext */
  crm_clock_source_enable(CRM_CLOCK_SOURCE_HEXT, TRUE);
 80001ee:	2101      	movs	r1, #1
 80001f0:	4608      	mov	r0, r1
 80001f2:	f001 fb61 	bl	80018b8 <crm_clock_source_enable>
F:\AT32-workspace\AT32F403ACGU7_clone_windows_desktop_virtual_com_port\Release/../user/at32f403a_407_clock.c:55 (discriminator 1)

   /* wait till hext is ready */
  while(crm_hext_stable_wait() == ERROR)
 80001f6:	f001 fb37 	bl	8001868 <crm_hext_stable_wait>
 80001fa:	2800      	cmp	r0, #0
 80001fc:	d0fb      	beq.n	80001f6 <system_clock_config+0xe>
F:\AT32-workspace\AT32F403ACGU7_clone_windows_desktop_virtual_com_port\Release/../user/at32f403a_407_clock.c:60
  {
  }

  /* enable hick */
  crm_clock_source_enable(CRM_CLOCK_SOURCE_HICK, TRUE);
 80001fe:	2101      	movs	r1, #1
 8000200:	2000      	movs	r0, #0
 8000202:	f001 fb59 	bl	80018b8 <crm_clock_source_enable>
F:\AT32-workspace\AT32F403ACGU7_clone_windows_desktop_virtual_com_port\Release/../user/at32f403a_407_clock.c:63 (discriminator 1)

   /* wait till hick is ready */
  while(crm_flag_get(CRM_HICK_STABLE_FLAG) != SET)
 8000206:	2001      	movs	r0, #1
 8000208:	f001 fb1c 	bl	8001844 <crm_flag_get>
 800020c:	2801      	cmp	r0, #1
 800020e:	4604      	mov	r4, r0
 8000210:	d1f9      	bne.n	8000206 <system_clock_config+0x1e>
F:\AT32-workspace\AT32F403ACGU7_clone_windows_desktop_virtual_com_port\Release/../user/at32f403a_407_clock.c:68
  {
  }

  /* config pll clock resource */
  crm_pll_config(CRM_PLL_SOURCE_HEXT, CRM_PLL_MULT_30, CRM_PLL_OUTPUT_RANGE_GT72MHZ);
 8000212:	4602      	mov	r2, r0
 8000214:	211d      	movs	r1, #29
 8000216:	f001 fb8f 	bl	8001938 <crm_pll_config>
F:\AT32-workspace\AT32F403ACGU7_clone_windows_desktop_virtual_com_port\Release/../user/at32f403a_407_clock.c:71

  /* enable pll */
  crm_clock_source_enable(CRM_CLOCK_SOURCE_PLL, TRUE);
 800021a:	4621      	mov	r1, r4
 800021c:	2002      	movs	r0, #2
 800021e:	f001 fb4b 	bl	80018b8 <crm_clock_source_enable>
F:\AT32-workspace\AT32F403ACGU7_clone_windows_desktop_virtual_com_port\Release/../user/at32f403a_407_clock.c:74 (discriminator 1)

  /* wait till pll is ready */
  while(crm_flag_get(CRM_PLL_STABLE_FLAG) != SET)
 8000222:	2019      	movs	r0, #25
 8000224:	f001 fb0e 	bl	8001844 <crm_flag_get>
 8000228:	2801      	cmp	r0, #1
 800022a:	4604      	mov	r4, r0
 800022c:	d1f9      	bne.n	8000222 <system_clock_config+0x3a>
F:\AT32-workspace\AT32F403ACGU7_clone_windows_desktop_virtual_com_port\Release/../user/at32f403a_407_clock.c:79
  {
  }

  /* config ahbclk */
  crm_ahb_div_set(CRM_AHB_DIV_1);
 800022e:	2000      	movs	r0, #0
 8000230:	f001 fb6a 	bl	8001908 <crm_ahb_div_set>
F:\AT32-workspace\AT32F403ACGU7_clone_windows_desktop_virtual_com_port\Release/../user/at32f403a_407_clock.c:82

  /* config apb2clk */
  crm_apb2_div_set(CRM_APB2_DIV_2);
 8000234:	2004      	movs	r0, #4
 8000236:	f001 fb77 	bl	8001928 <crm_apb2_div_set>
F:\AT32-workspace\AT32F403ACGU7_clone_windows_desktop_virtual_com_port\Release/../user/at32f403a_407_clock.c:85

  /* config apb1clk */
  crm_apb1_div_set(CRM_APB1_DIV_2);
 800023a:	2004      	movs	r0, #4
 800023c:	f001 fb6c 	bl	8001918 <crm_apb1_div_set>
F:\AT32-workspace\AT32F403ACGU7_clone_windows_desktop_virtual_com_port\Release/../user/at32f403a_407_clock.c:88

  /* enable auto step mode */
  crm_auto_step_mode_enable(TRUE);
 8000240:	4620      	mov	r0, r4
 8000242:	f001 fc2f 	bl	8001aa4 <crm_auto_step_mode_enable>
F:\AT32-workspace\AT32F403ACGU7_clone_windows_desktop_virtual_com_port\Release/../user/at32f403a_407_clock.c:91

  /* select pll as system clock source */
  crm_sysclk_switch(CRM_SCLK_PLL);
 8000246:	2002      	movs	r0, #2
 8000248:	f001 fba2 	bl	8001990 <crm_sysclk_switch>
F:\AT32-workspace\AT32F403ACGU7_clone_windows_desktop_virtual_com_port\Release/../user/at32f403a_407_clock.c:94 (discriminator 1)

  /* wait till pll is used as system clock source */
  while(crm_sysclk_switch_status_get() != CRM_SCLK_PLL)
 800024c:	f001 fba8 	bl	80019a0 <crm_sysclk_switch_status_get>
 8000250:	2802      	cmp	r0, #2
 8000252:	d1fb      	bne.n	800024c <system_clock_config+0x64>
F:\AT32-workspace\AT32F403ACGU7_clone_windows_desktop_virtual_com_port\Release/../user/at32f403a_407_clock.c:99
  {
  }

  /* disable auto step mode */
  crm_auto_step_mode_enable(FALSE);
 8000254:	2000      	movs	r0, #0
 8000256:	f001 fc25 	bl	8001aa4 <crm_auto_step_mode_enable>
F:\AT32-workspace\AT32F403ACGU7_clone_windows_desktop_virtual_com_port\Release/../user/at32f403a_407_clock.c:102

  /* config usbclk from hick48 */
  crm_usb_clock_source_select(CRM_USB_CLOCK_SOURCE_HICK);
 800025a:	2001      	movs	r0, #1
 800025c:	f001 fc32 	bl	8001ac4 <crm_usb_clock_source_select>
F:\AT32-workspace\AT32F403ACGU7_clone_windows_desktop_virtual_com_port\Release/../user/at32f403a_407_clock.c:106

  /* update system_core_clock global variable */
  system_core_clock_update();
}
 8000260:	e8bd 4010 	ldmia.w	sp!, {r4, lr}
F:\AT32-workspace\AT32F403ACGU7_clone_windows_desktop_virtual_com_port\Release/../user/at32f403a_407_clock.c:105
  system_core_clock_update();
 8000264:	f002 ba20 	b.w	80026a8 <system_core_clock_update>

08000268 <NMI_Handler>:
NMI_Handler():
F:\AT32-workspace\AT32F403ACGU7_clone_windows_desktop_virtual_com_port\Release/../user/at32f403a_407_int.c:34

extern uint32_t millis; //счетчик системного времени, мс

void NMI_Handler(void)
{
}
 8000268:	4770      	bx	lr
 800026a:	bf00      	nop

0800026c <HardFault_Handler>:
HardFault_Handler():
F:\AT32-workspace\AT32F403ACGU7_clone_windows_desktop_virtual_com_port\Release/../user/at32f403a_407_int.c:44 (discriminator 1)
  * @retval none
  */
void HardFault_Handler(void)
{
  /* go to infinite loop when hard fault exception occurs */
  while(1)
 800026c:	e7fe      	b.n	800026c <HardFault_Handler>
 800026e:	bf00      	nop

08000270 <MemManage_Handler>:
MemManage_Handler():
F:\AT32-workspace\AT32F403ACGU7_clone_windows_desktop_virtual_com_port\Release/../user/at32f403a_407_int.c:57 (discriminator 1)
  * @retval none
  */
void MemManage_Handler(void)
{
  /* go to infinite loop when memory manage exception occurs */
  while(1)
 8000270:	e7fe      	b.n	8000270 <MemManage_Handler>
 8000272:	bf00      	nop

08000274 <BusFault_Handler>:
BusFault_Handler():
F:\AT32-workspace\AT32F403ACGU7_clone_windows_desktop_virtual_com_port\Release/../user/at32f403a_407_int.c:70 (discriminator 1)
  * @retval none
  */
void BusFault_Handler(void)
{
  /* go to infinite loop when bus fault exception occurs */
  while(1)
 8000274:	e7fe      	b.n	8000274 <BusFault_Handler>
 8000276:	bf00      	nop

08000278 <UsageFault_Handler>:
UsageFault_Handler():
F:\AT32-workspace\AT32F403ACGU7_clone_windows_desktop_virtual_com_port\Release/../user/at32f403a_407_int.c:83 (discriminator 1)
  * @retval none
  */
void UsageFault_Handler(void)
{
  /* go to infinite loop when usage fault exception occurs */
  while(1)
 8000278:	e7fe      	b.n	8000278 <UsageFault_Handler>
 800027a:	bf00      	nop

0800027c <SVC_Handler>:
SVC_Handler():
 800027c:	4770      	bx	lr
 800027e:	bf00      	nop

08000280 <DebugMon_Handler>:
DebugMon_Handler():
 8000280:	4770      	bx	lr
 8000282:	bf00      	nop

08000284 <PendSV_Handler>:
PendSV_Handler():
 8000284:	4770      	bx	lr
 8000286:	bf00      	nop

08000288 <SysTick_Handler>:
SysTick_Handler():
F:\AT32-workspace\AT32F403ACGU7_clone_windows_desktop_virtual_com_port\Release/../user/at32f403a_407_int.c:122
  * @param  none
  * @retval none
  */
void SysTick_Handler(void)
{
	millis++;
 8000288:	4a02      	ldr	r2, [pc, #8]	; (8000294 <SysTick_Handler+0xc>)
 800028a:	6813      	ldr	r3, [r2, #0]
 800028c:	3301      	adds	r3, #1
 800028e:	6013      	str	r3, [r2, #0]
F:\AT32-workspace\AT32F403ACGU7_clone_windows_desktop_virtual_com_port\Release/../user/at32f403a_407_int.c:123
}
 8000290:	4770      	bx	lr
 8000292:	bf00      	nop
 8000294:	20005fa8 	.word	0x20005fa8

08000298 <DMA1_Channel1_IRQHandler>:
DMA1_Channel1_IRQHandler():
F:\AT32-workspace\AT32F403ACGU7_clone_windows_desktop_virtual_com_port\Release/../user/at32f403a_407_int.c:127

void DMA1_Channel1_IRQHandler(void)
{
	Display_TC_Callback(DMA1, FLEX_CHANNEL1);
 8000298:	4801      	ldr	r0, [pc, #4]	; (80002a0 <DMA1_Channel1_IRQHandler+0x8>)
 800029a:	2101      	movs	r1, #1
 800029c:	f004 be8c 	b.w	8004fb8 <Display_TC_Callback>
 80002a0:	40020000 	.word	0x40020000
 80002a4:	00000000 	.word	0x00000000

080002a8 <main>:
main():
F:\AT32-workspace\AT32F403ACGU7_clone_windows_desktop_virtual_com_port\Release/../user/main.c:248
	spi_init(SPI2, &spi_init_struct);
	/*------------------------------------------------------------------------*/
}

int main(void)
{
 80002a8:	e92d 4ff0 	stmdb	sp!, {r4, r5, r6, r7, r8, r9, sl, fp, lr}
__NVIC_SetPriorityGrouping():
F:\AT32-workspace\AT32F403ACGU7_clone_windows_desktop_virtual_com_port\Release/../include/libraries/cmsis/cm4/core_support/core_cm4.h:1658
__STATIC_INLINE void __NVIC_SetPriorityGrouping(uint32_t PriorityGroup)
{
  uint32_t reg_value;
  uint32_t PriorityGroupTmp = (PriorityGroup & (uint32_t)0x07UL);             /* only values 0..7 are used          */

  reg_value  =  SCB->AIRCR;                                                   /* read old register configuration    */
 80002ac:	4cc8      	ldr	r4, [pc, #800]	; (80005d0 <main+0x328>)
F:\AT32-workspace\AT32F403ACGU7_clone_windows_desktop_virtual_com_port\Release/../include/libraries/cmsis/cm4/core_support/core_cm4.h:1660
  reg_value &= ~((uint32_t)(SCB_AIRCR_VECTKEY_Msk | SCB_AIRCR_PRIGROUP_Msk)); /* clear bits to change               */
  reg_value  =  (reg_value                                   |
 80002ae:	4bc9      	ldr	r3, [pc, #804]	; (80005d4 <main+0x32c>)
F:\AT32-workspace\AT32F403ACGU7_clone_windows_desktop_virtual_com_port\Release/../include/libraries/cmsis/cm4/core_support/core_cm4.h:1658
  reg_value  =  SCB->AIRCR;                                                   /* read old register configuration    */
 80002b0:	68e2      	ldr	r2, [r4, #12]
F:\AT32-workspace\AT32F403ACGU7_clone_windows_desktop_virtual_com_port\Release/../include/libraries/cmsis/cm4/core_support/core_cm4.h:1659
  reg_value &= ~((uint32_t)(SCB_AIRCR_VECTKEY_Msk | SCB_AIRCR_PRIGROUP_Msk)); /* clear bits to change               */
 80002b2:	f64f 01ff 	movw	r1, #63743	; 0xf8ff
 80002b6:	400a      	ands	r2, r1
F:\AT32-workspace\AT32F403ACGU7_clone_windows_desktop_virtual_com_port\Release/../include/libraries/cmsis/cm4/core_support/core_cm4.h:1660
  reg_value  =  (reg_value                                   |
 80002b8:	4313      	orrs	r3, r2
F:\AT32-workspace\AT32F403ACGU7_clone_windows_desktop_virtual_com_port\Release/../include/libraries/cmsis/cm4/core_support/core_cm4.h:1663
                ((uint32_t)0x5FAUL << SCB_AIRCR_VECTKEY_Pos) |
                (PriorityGroupTmp << SCB_AIRCR_PRIGROUP_Pos)  );              /* Insert write key and priority group */
  SCB->AIRCR =  reg_value;
 80002ba:	60e3      	str	r3, [r4, #12]
main():
F:\AT32-workspace\AT32F403ACGU7_clone_windows_desktop_virtual_com_port\Release/../user/main.c:248
 80002bc:	b0df      	sub	sp, #380	; 0x17c
F:\AT32-workspace\AT32F403ACGU7_clone_windows_desktop_virtual_com_port\Release/../user/main.c:253
	/* Выбор 16 групп приоритетов прерываний (от 0 до 15) */
	NVIC_SetPriorityGrouping(NVIC_PRIORITY_GROUP_4);

	/* Конфигурирование частоты тактирования м/к */
	system_clock_config();
 80002be:	f7ff ff93 	bl	80001e8 <system_clock_config>
F:\AT32-workspace\AT32F403ACGU7_clone_windows_desktop_virtual_com_port\Release/../user/main.c:256

	/* Выбор линии тактирования SysTick */
	systick_clock_source_config(SYSTICK_CLOCK_SOURCE_AHBCLK_NODIV);
 80002c2:	2004      	movs	r0, #4
 80002c4:	f001 fde0 	bl	8001e88 <systick_clock_source_config>
F:\AT32-workspace\AT32F403ACGU7_clone_windows_desktop_virtual_com_port\Release/../user/main.c:259

	/* Прерывания от SysTick каждую миллисекунду */
	SysTick_Config(system_core_clock/1000);
 80002c8:	4bc3      	ldr	r3, [pc, #780]	; (80005d8 <main+0x330>)
 80002ca:	4ac4      	ldr	r2, [pc, #784]	; (80005dc <main+0x334>)
 80002cc:	681b      	ldr	r3, [r3, #0]
 80002ce:	fba2 2303 	umull	r2, r3, r2, r3
 80002d2:	099b      	lsrs	r3, r3, #6
SysTick_Config():
F:\AT32-workspace\AT32F403ACGU7_clone_windows_desktop_virtual_com_port\Release/../include/libraries/cmsis/cm4/core_support/core_cm4.h:2024
           function <b>SysTick_Config</b> is not included. In this case, the file <b><i>device</i>.h</b>
           must contain a vendor-specific implementation of this function.
 */
__STATIC_INLINE uint32_t SysTick_Config(uint32_t ticks)
{
  if ((ticks - 1UL) > SysTick_LOAD_RELOAD_Msk)
 80002d4:	3b01      	subs	r3, #1
 80002d6:	f1b3 7f80 	cmp.w	r3, #16777216	; 0x1000000
 80002da:	d209      	bcs.n	80002f0 <main+0x48>
F:\AT32-workspace\AT32F403ACGU7_clone_windows_desktop_virtual_com_port\Release/../include/libraries/cmsis/cm4/core_support/core_cm4.h:2029
  {
    return (1UL);                                                   /* Reload value impossible */
  }

  SysTick->LOAD  = (uint32_t)(ticks - 1UL);                         /* set reload register */
 80002dc:	f04f 22e0 	mov.w	r2, #3758153728	; 0xe000e000
__NVIC_SetPriority():
F:\AT32-workspace\AT32F403ACGU7_clone_windows_desktop_virtual_com_port\Release/../include/libraries/cmsis/cm4/core_support/core_cm4.h:1822
    SCB->SHP[(((uint32_t)IRQn) & 0xFUL)-4UL] = (uint8_t)((priority << (8U - __NVIC_PRIO_BITS)) & (uint32_t)0xFFUL);
 80002e0:	20f0      	movs	r0, #240	; 0xf0
SysTick_Config():
F:\AT32-workspace\AT32F403ACGU7_clone_windows_desktop_virtual_com_port\Release/../include/libraries/cmsis/cm4/core_support/core_cm4.h:2029
  SysTick->LOAD  = (uint32_t)(ticks - 1UL);                         /* set reload register */
 80002e2:	6153      	str	r3, [r2, #20]
F:\AT32-workspace\AT32F403ACGU7_clone_windows_desktop_virtual_com_port\Release/../include/libraries/cmsis/cm4/core_support/core_cm4.h:2031
  NVIC_SetPriority (SysTick_IRQn, (1UL << __NVIC_PRIO_BITS) - 1UL); /* set Priority for Systick Interrupt */
  SysTick->VAL   = 0UL;                                             /* Load the SysTick Counter Value */
 80002e4:	2100      	movs	r1, #0
F:\AT32-workspace\AT32F403ACGU7_clone_windows_desktop_virtual_com_port\Release/../include/libraries/cmsis/cm4/core_support/core_cm4.h:2032
  SysTick->CTRL  = SysTick_CTRL_CLKSOURCE_Msk |
 80002e6:	2307      	movs	r3, #7
__NVIC_SetPriority():
F:\AT32-workspace\AT32F403ACGU7_clone_windows_desktop_virtual_com_port\Release/../include/libraries/cmsis/cm4/core_support/core_cm4.h:1822
    SCB->SHP[(((uint32_t)IRQn) & 0xFUL)-4UL] = (uint8_t)((priority << (8U - __NVIC_PRIO_BITS)) & (uint32_t)0xFFUL);
 80002e8:	f884 0023 	strb.w	r0, [r4, #35]	; 0x23
SysTick_Config():
F:\AT32-workspace\AT32F403ACGU7_clone_windows_desktop_virtual_com_port\Release/../include/libraries/cmsis/cm4/core_support/core_cm4.h:2031
  SysTick->VAL   = 0UL;                                             /* Load the SysTick Counter Value */
 80002ec:	6191      	str	r1, [r2, #24]
F:\AT32-workspace\AT32F403ACGU7_clone_windows_desktop_virtual_com_port\Release/../include/libraries/cmsis/cm4/core_support/core_cm4.h:2032
  SysTick->CTRL  = SysTick_CTRL_CLKSOURCE_Msk |
 80002ee:	6113      	str	r3, [r2, #16]
main():
F:\AT32-workspace\AT32F403ACGU7_clone_windows_desktop_virtual_com_port\Release/../user/main.c:262

	/* Включение тактирования контроллера IOMUX (мультиплексор I/O) */
	crm_periph_clock_enable(CRM_IOMUX_PERIPH_CLOCK, TRUE);
 80002f0:	2101      	movs	r1, #1
 80002f2:	f44f 10c0 	mov.w	r0, #1572864	; 0x180000
 80002f6:	f001 fac9 	bl	800188c <crm_periph_clock_enable>
usb_clock48m_select():
F:\AT32-workspace\AT32F403ACGU7_clone_windows_desktop_virtual_com_port\Release/../user/main.c:58
    crm_usb_clock_source_select(CRM_USB_CLOCK_SOURCE_HICK);
 80002fa:	2001      	movs	r0, #1
 80002fc:	f001 fbe2 	bl	8001ac4 <crm_usb_clock_source_select>
F:\AT32-workspace\AT32F403ACGU7_clone_windows_desktop_virtual_com_port\Release/../user/main.c:61
    crm_periph_clock_enable(CRM_ACC_PERIPH_CLOCK, TRUE);
 8000300:	2101      	movs	r1, #1
 8000302:	48b7      	ldr	r0, [pc, #732]	; (80005e0 <main+0x338>)
Init_GPIO():
F:\AT32-workspace\AT32F403ACGU7_clone_windows_desktop_virtual_com_port\Release/../user/main.c:185
	gpio_init(GPIOB, &gpio_init_struct);
 8000304:	f8df 9358 	ldr.w	r9, [pc, #856]	; 8000660 <main+0x3b8>
main():
F:\AT32-workspace\AT32F403ACGU7_clone_windows_desktop_virtual_com_port\Release/../user/main.c:313
									   .cs_pin = LCD_CS_Pin  };
	#ifndef LCD_DYNAMIC_MEM
	LCD_Handler lcd1;
	#endif
	/* Для дисплея на контроллере ILI9341 */
	LCD = LCD_DisplayAdd( LCD,
 8000308:	f8df b358 	ldr.w	fp, [pc, #856]	; 8000664 <main+0x3bc>
usb_clock48m_select():
F:\AT32-workspace\AT32F403ACGU7_clone_windows_desktop_virtual_com_port\Release/../user/main.c:61
    crm_periph_clock_enable(CRM_ACC_PERIPH_CLOCK, TRUE);
 800030c:	f001 fabe 	bl	800188c <crm_periph_clock_enable>
F:\AT32-workspace\AT32F403ACGU7_clone_windows_desktop_virtual_com_port\Release/../user/main.c:64
    acc_write_c1(7980);
 8000310:	f641 702c 	movw	r0, #7980	; 0x1f2c
 8000314:	f001 fa62 	bl	80017dc <acc_write_c1>
F:\AT32-workspace\AT32F403ACGU7_clone_windows_desktop_virtual_com_port\Release/../user/main.c:65
    acc_write_c2(8000);
 8000318:	f44f 50fa 	mov.w	r0, #8000	; 0x1f40
 800031c:	f001 fa64 	bl	80017e8 <acc_write_c2>
F:\AT32-workspace\AT32F403ACGU7_clone_windows_desktop_virtual_com_port\Release/../user/main.c:66
    acc_write_c3(8020);
 8000320:	f641 7054 	movw	r0, #8020	; 0x1f54
 8000324:	f001 fa66 	bl	80017f4 <acc_write_c3>
F:\AT32-workspace\AT32F403ACGU7_clone_windows_desktop_virtual_com_port\Release/../user/main.c:69
    acc_calibration_mode_enable(ACC_CAL_HICKTRIM, TRUE);
 8000328:	2101      	movs	r1, #1
 800032a:	2002      	movs	r0, #2
 800032c:	f001 fa42 	bl	80017b4 <acc_calibration_mode_enable>
main():
F:\AT32-workspace\AT32F403ACGU7_clone_windows_desktop_virtual_com_port\Release/../user/main.c:268
	crm_periph_clock_enable(CRM_USB_PERIPH_CLOCK, TRUE);
 8000330:	48ac      	ldr	r0, [pc, #688]	; (80005e4 <main+0x33c>)
 8000332:	2101      	movs	r1, #1
 8000334:	f001 faaa 	bl	800188c <crm_periph_clock_enable>
F:\AT32-workspace\AT32F403ACGU7_clone_windows_desktop_virtual_com_port\Release/../user/main.c:271
	nvic_irq_enable(USBFS_L_CAN1_RX0_IRQn, 0, 0);
 8000338:	2200      	movs	r2, #0
F:\AT32-workspace\AT32F403ACGU7_clone_windows_desktop_virtual_com_port\Release/../user/main.c:274
	usbd_core_init(&usb_core_dev, USB, &cdc_class_handler, &cdc_desc_handler, 0);
 800033a:	4615      	mov	r5, r2
F:\AT32-workspace\AT32F403ACGU7_clone_windows_desktop_virtual_com_port\Release/../user/main.c:271
	nvic_irq_enable(USBFS_L_CAN1_RX0_IRQn, 0, 0);
 800033c:	4611      	mov	r1, r2
 800033e:	2014      	movs	r0, #20
 8000340:	f001 fd5c 	bl	8001dfc <nvic_irq_enable>
F:\AT32-workspace\AT32F403ACGU7_clone_windows_desktop_virtual_com_port\Release/../user/main.c:274
	usbd_core_init(&usb_core_dev, USB, &cdc_class_handler, &cdc_desc_handler, 0);
 8000344:	4aa8      	ldr	r2, [pc, #672]	; (80005e8 <main+0x340>)
 8000346:	4ba9      	ldr	r3, [pc, #676]	; (80005ec <main+0x344>)
 8000348:	49a9      	ldr	r1, [pc, #676]	; (80005f0 <main+0x348>)
 800034a:	48aa      	ldr	r0, [pc, #680]	; (80005f4 <main+0x34c>)
 800034c:	9500      	str	r5, [sp, #0]
 800034e:	f000 fdf5 	bl	8000f3c <usbd_core_init>
F:\AT32-workspace\AT32F403ACGU7_clone_windows_desktop_virtual_com_port\Release/../user/main.c:277
	usbd_connect(&usb_core_dev);
 8000352:	48a8      	ldr	r0, [pc, #672]	; (80005f4 <main+0x34c>)
 8000354:	f000 fd26 	bl	8000da4 <usbd_connect>
Init_GPIO():
F:\AT32-workspace\AT32F403ACGU7_clone_windows_desktop_virtual_com_port\Release/../user/main.c:175
	crm_periph_clock_enable(CRM_GPIOB_PERIPH_CLOCK, TRUE); //Тактирование порта B
 8000358:	48a7      	ldr	r0, [pc, #668]	; (80005f8 <main+0x350>)
 800035a:	2101      	movs	r1, #1
 800035c:	f001 fa96 	bl	800188c <crm_periph_clock_enable>
F:\AT32-workspace\AT32F403ACGU7_clone_windows_desktop_virtual_com_port\Release/../user/main.c:176
	crm_periph_clock_enable(CRM_GPIOC_PERIPH_CLOCK, TRUE); //Тактирование порта C
 8000360:	48a6      	ldr	r0, [pc, #664]	; (80005fc <main+0x354>)
 8000362:	2101      	movs	r1, #1
 8000364:	f001 fa92 	bl	800188c <crm_periph_clock_enable>
F:\AT32-workspace\AT32F403ACGU7_clone_windows_desktop_virtual_com_port\Release/../user/main.c:181
	gpio_init_struct.gpio_out_type  = GPIO_OUTPUT_PUSH_PULL;
 8000368:	4ba5      	ldr	r3, [pc, #660]	; (8000600 <main+0x358>)
 800036a:	f44f 74e0 	mov.w	r4, #448	; 0x1c0
F:\AT32-workspace\AT32F403ACGU7_clone_windows_desktop_virtual_com_port\Release/../user/main.c:185
	gpio_init(GPIOB, &gpio_init_struct);
 800036e:	4648      	mov	r0, r9
 8000370:	a941      	add	r1, sp, #260	; 0x104
F:\AT32-workspace\AT32F403ACGU7_clone_windows_desktop_virtual_com_port\Release/../user/main.c:181
	gpio_init_struct.gpio_out_type  = GPIO_OUTPUT_PUSH_PULL;
 8000372:	e9cd 4341 	strd	r4, r3, [sp, #260]	; 0x104
F:\AT32-workspace\AT32F403ACGU7_clone_windows_desktop_virtual_com_port\Release/../user/main.c:185
	gpio_init(GPIOB, &gpio_init_struct);
 8000376:	f001 fc69 	bl	8001c4c <gpio_init>
F:\AT32-workspace\AT32F403ACGU7_clone_windows_desktop_virtual_com_port\Release/../user/main.c:186
	GPIOB->scr = GPIO_PINS_6 | GPIO_PINS_7 | GPIO_PINS_8; /* На выводах PB6, PB7, PB8 логическая 1. */
 800037a:	f8c9 4010 	str.w	r4, [r9, #16]
Init_TMR():
F:\AT32-workspace\AT32F403ACGU7_clone_windows_desktop_virtual_com_port\Release/../user/main.c:121
	crm_periph_clock_enable(CRM_TMR3_PERIPH_CLOCK, TRUE); //Тактирование таймера TIM3
 800037e:	48a1      	ldr	r0, [pc, #644]	; (8000604 <main+0x35c>)
 8000380:	2101      	movs	r1, #1
 8000382:	f001 fa83 	bl	800188c <crm_periph_clock_enable>
F:\AT32-workspace\AT32F403ACGU7_clone_windows_desktop_virtual_com_port\Release/../user/main.c:124
	crm_periph_clock_enable(CRM_GPIOB_PERIPH_CLOCK, TRUE); //Тактирование порта B
 8000386:	489c      	ldr	r0, [pc, #624]	; (80005f8 <main+0x350>)
 8000388:	2101      	movs	r1, #1
F:\AT32-workspace\AT32F403ACGU7_clone_windows_desktop_virtual_com_port\Release/../user/main.c:127
	gpio_init_struct.gpio_pins = GPIO_PINS_1;
 800038a:	f04f 0802 	mov.w	r8, #2
F:\AT32-workspace\AT32F403ACGU7_clone_windows_desktop_virtual_com_port\Release/../user/main.c:123
	gpio_init_type  gpio_init_struct = {0};
 800038e:	e9cd 5528 	strd	r5, r5, [sp, #160]	; 0xa0
F:\AT32-workspace\AT32F403ACGU7_clone_windows_desktop_virtual_com_port\Release/../user/main.c:124
	crm_periph_clock_enable(CRM_GPIOB_PERIPH_CLOCK, TRUE); //Тактирование порта B
 8000392:	f001 fa7b 	bl	800188c <crm_periph_clock_enable>
F:\AT32-workspace\AT32F403ACGU7_clone_windows_desktop_virtual_com_port\Release/../user/main.c:129
	gpio_init_struct.gpio_out_type = GPIO_OUTPUT_PUSH_PULL;
 8000396:	4b9c      	ldr	r3, [pc, #624]	; (8000608 <main+0x360>)
 8000398:	9329      	str	r3, [sp, #164]	; 0xa4
F:\AT32-workspace\AT32F403ACGU7_clone_windows_desktop_virtual_com_port\Release/../user/main.c:132
	gpio_init(GPIOB, &gpio_init_struct);
 800039a:	a928      	add	r1, sp, #160	; 0xa0
 800039c:	4648      	mov	r0, r9
F:\AT32-workspace\AT32F403ACGU7_clone_windows_desktop_virtual_com_port\Release/../user/main.c:127
	gpio_init_struct.gpio_pins = GPIO_PINS_1;
 800039e:	f8cd 80a0 	str.w	r8, [sp, #160]	; 0xa0
F:\AT32-workspace\AT32F403ACGU7_clone_windows_desktop_virtual_com_port\Release/../user/main.c:132
	gpio_init(GPIOB, &gpio_init_struct);
 80003a2:	f001 fc53 	bl	8001c4c <gpio_init>
F:\AT32-workspace\AT32F403ACGU7_clone_windows_desktop_virtual_com_port\Release/../user/main.c:135
	crm_clocks_freq_get(&crm_clocks_freq_struct);
 80003a6:	a841      	add	r0, sp, #260	; 0x104
F:\AT32-workspace\AT32F403ACGU7_clone_windows_desktop_virtual_com_port\Release/../user/main.c:134
	crm_clocks_freq_type crm_clocks_freq_struct = {0};
 80003a8:	e9cd 5541 	strd	r5, r5, [sp, #260]	; 0x104
 80003ac:	e9cd 5543 	strd	r5, r5, [sp, #268]	; 0x10c
 80003b0:	9545      	str	r5, [sp, #276]	; 0x114
F:\AT32-workspace\AT32F403ACGU7_clone_windows_desktop_virtual_com_port\Release/../user/main.c:135
	crm_clocks_freq_get(&crm_clocks_freq_struct);
 80003b2:	f001 fafd 	bl	80019b0 <crm_clocks_freq_get>
F:\AT32-workspace\AT32F403ACGU7_clone_windows_desktop_virtual_com_port\Release/../user/main.c:138
	uint16_t timer3_period = (crm_clocks_freq_struct.sclk_freq / (400 * 1000)) - 1;
 80003b6:	9b41      	ldr	r3, [sp, #260]	; 0x104
F:\AT32-workspace\AT32F403ACGU7_clone_windows_desktop_virtual_com_port\Release/../user/main.c:143
	tmr_base_init(TMR3, timer3_period, 1000 - 1);
 80003b8:	4894      	ldr	r0, [pc, #592]	; (800060c <main+0x364>)
F:\AT32-workspace\AT32F403ACGU7_clone_windows_desktop_virtual_com_port\Release/../user/main.c:138
	uint16_t timer3_period = (crm_clocks_freq_struct.sclk_freq / (400 * 1000)) - 1;
 80003ba:	09df      	lsrs	r7, r3, #7
 80003bc:	4b94      	ldr	r3, [pc, #592]	; (8000610 <main+0x368>)
 80003be:	fba3 3707 	umull	r3, r7, r3, r7
 80003c2:	093f      	lsrs	r7, r7, #4
 80003c4:	3f01      	subs	r7, #1
 80003c6:	b2bf      	uxth	r7, r7
F:\AT32-workspace\AT32F403ACGU7_clone_windows_desktop_virtual_com_port\Release/../user/main.c:143
	tmr_base_init(TMR3, timer3_period, 1000 - 1);
 80003c8:	f240 32e7 	movw	r2, #999	; 0x3e7
 80003cc:	4639      	mov	r1, r7
F:\AT32-workspace\AT32F403ACGU7_clone_windows_desktop_virtual_com_port\Release/../user/main.c:147
	tmr_output_default_para_init(&tmr_output_struct);
 80003ce:	ac1e      	add	r4, sp, #120	; 0x78
F:\AT32-workspace\AT32F403ACGU7_clone_windows_desktop_virtual_com_port\Release/../user/main.c:143
	tmr_base_init(TMR3, timer3_period, 1000 - 1);
 80003d0:	f001 fdf2 	bl	8001fb8 <tmr_base_init>
F:\AT32-workspace\AT32F403ACGU7_clone_windows_desktop_virtual_com_port\Release/../user/main.c:144
	tmr_cnt_dir_set(TMR3, TMR_COUNT_UP);
 80003d4:	4629      	mov	r1, r5
 80003d6:	488d      	ldr	r0, [pc, #564]	; (800060c <main+0x364>)
 80003d8:	f001 fdf6 	bl	8001fc8 <tmr_cnt_dir_set>
F:\AT32-workspace\AT32F403ACGU7_clone_windows_desktop_virtual_com_port\Release/../user/main.c:147
	tmr_output_default_para_init(&tmr_output_struct);
 80003dc:	4620      	mov	r0, r4
F:\AT32-workspace\AT32F403ACGU7_clone_windows_desktop_virtual_com_port\Release/../user/main.c:152
	tmr_output_struct.occ_output_state = TRUE;
 80003de:	2601      	movs	r6, #1
F:\AT32-workspace\AT32F403ACGU7_clone_windows_desktop_virtual_com_port\Release/../user/main.c:147
	tmr_output_default_para_init(&tmr_output_struct);
 80003e0:	f001 fde4 	bl	8001fac <tmr_output_default_para_init>
F:\AT32-workspace\AT32F403ACGU7_clone_windows_desktop_virtual_com_port\Release/../user/main.c:153
	tmr_output_struct.occ_polarity = TMR_OUTPUT_ACTIVE_HIGH;
 80003e4:	f44f 7a80 	mov.w	sl, #256	; 0x100
F:\AT32-workspace\AT32F403ACGU7_clone_windows_desktop_virtual_com_port\Release/../user/main.c:148
	tmr_output_struct.oc_mode = TMR_OUTPUT_CONTROL_PWM_MODE_A;
 80003e8:	f44f 7383 	mov.w	r3, #262	; 0x106
 80003ec:	6023      	str	r3, [r4, #0]
F:\AT32-workspace\AT32F403ACGU7_clone_windows_desktop_virtual_com_port\Release/../user/main.c:153
	tmr_output_struct.occ_polarity = TMR_OUTPUT_ACTIVE_HIGH;
 80003ee:	f8a4 a004 	strh.w	sl, [r4, #4]
F:\AT32-workspace\AT32F403ACGU7_clone_windows_desktop_virtual_com_port\Release/../user/main.c:157
	tmr_output_channel_config(TMR3, TMR_SELECT_CHANNEL_4, &tmr_output_struct);
 80003f2:	4622      	mov	r2, r4
 80003f4:	4885      	ldr	r0, [pc, #532]	; (800060c <main+0x364>)
F:\AT32-workspace\AT32F403ACGU7_clone_windows_desktop_virtual_com_port\Release/../user/main.c:152
	tmr_output_struct.occ_output_state = TRUE;
 80003f6:	71a6      	strb	r6, [r4, #6]
F:\AT32-workspace\AT32F403ACGU7_clone_windows_desktop_virtual_com_port\Release/../user/main.c:157
	tmr_output_channel_config(TMR3, TMR_SELECT_CHANNEL_4, &tmr_output_struct);
 80003f8:	2106      	movs	r1, #6
 80003fa:	f001 fdeb 	bl	8001fd4 <tmr_output_channel_config>
F:\AT32-workspace\AT32F403ACGU7_clone_windows_desktop_virtual_com_port\Release/../user/main.c:140
	uint16_t channel4_pulse = (timer3_period + 1) / 2 - 1;
 80003fe:	19ba      	adds	r2, r7, r6
 8000400:	4132      	asrs	r2, r6
 8000402:	3a01      	subs	r2, #1
F:\AT32-workspace\AT32F403ACGU7_clone_windows_desktop_virtual_com_port\Release/../user/main.c:159
	tmr_channel_value_set(TMR3, TMR_SELECT_CHANNEL_4, channel4_pulse);
 8000404:	b292      	uxth	r2, r2
 8000406:	4881      	ldr	r0, [pc, #516]	; (800060c <main+0x364>)
main():
F:\AT32-workspace\AT32F403ACGU7_clone_windows_desktop_virtual_com_port\Release/../user/main.c:353
	strcat(message, "X");
	utoa(lcd->Height, &message[strlen(message)], 10);
	strcat(message, ".");
	//Отправляем это сообщение компьютеру-серверу
	while (res != SUCCESS) {
		res = usb_vcp_send_data(&usb_core_dev, (uint8_t*)message, strlen(message));
 8000408:	4f7a      	ldr	r7, [pc, #488]	; (80005f4 <main+0x34c>)
Init_TMR():
F:\AT32-workspace\AT32F403ACGU7_clone_windows_desktop_virtual_com_port\Release/../user/main.c:159
	tmr_channel_value_set(TMR3, TMR_SELECT_CHANNEL_4, channel4_pulse);
 800040a:	2106      	movs	r1, #6
 800040c:	f001 fe52 	bl	80020b4 <tmr_channel_value_set>
F:\AT32-workspace\AT32F403ACGU7_clone_windows_desktop_virtual_com_port\Release/../user/main.c:162
	tmr_output_enable(TMR3, TRUE);
 8000410:	487e      	ldr	r0, [pc, #504]	; (800060c <main+0x364>)
 8000412:	4631      	mov	r1, r6
 8000414:	f001 fe5e 	bl	80020d4 <tmr_output_enable>
F:\AT32-workspace\AT32F403ACGU7_clone_windows_desktop_virtual_com_port\Release/../user/main.c:165
	tmr_counter_enable(TMR3, TRUE);
 8000418:	4631      	mov	r1, r6
 800041a:	487c      	ldr	r0, [pc, #496]	; (800060c <main+0x364>)
 800041c:	f001 fdc0 	bl	8001fa0 <tmr_counter_enable>
Init_SPI():
F:\AT32-workspace\AT32F403ACGU7_clone_windows_desktop_virtual_com_port\Release/../user/main.c:193
	gpio_default_para_init(&gpio_init_struct);
 8000420:	4620      	mov	r0, r4
 8000422:	f001 fce3 	bl	8001dec <gpio_default_para_init>
F:\AT32-workspace\AT32F403ACGU7_clone_windows_desktop_virtual_com_port\Release/../user/main.c:196
	dma_default_para_init(&dma_init_struct);
 8000426:	a841      	add	r0, sp, #260	; 0x104
 8000428:	f001 fbd6 	bl	8001bd8 <dma_default_para_init>
F:\AT32-workspace\AT32F403ACGU7_clone_windows_desktop_virtual_com_port\Release/../user/main.c:199
	spi_default_para_init(&spi_init_struct);
 800042c:	a828      	add	r0, sp, #160	; 0xa0
 800042e:	f001 fd37 	bl	8001ea0 <spi_default_para_init>
F:\AT32-workspace\AT32F403ACGU7_clone_windows_desktop_virtual_com_port\Release/../user/main.c:202
	crm_periph_clock_enable(CRM_SPI2_PERIPH_CLOCK, TRUE);  /* Тактирование SPI2 */
 8000432:	4878      	ldr	r0, [pc, #480]	; (8000614 <main+0x36c>)
 8000434:	4631      	mov	r1, r6
 8000436:	f001 fa29 	bl	800188c <crm_periph_clock_enable>
F:\AT32-workspace\AT32F403ACGU7_clone_windows_desktop_virtual_com_port\Release/../user/main.c:203
	crm_periph_clock_enable(CRM_GPIOB_PERIPH_CLOCK, TRUE); /* Тактирование порта B */
 800043a:	486f      	ldr	r0, [pc, #444]	; (80005f8 <main+0x350>)
 800043c:	4631      	mov	r1, r6
 800043e:	f001 fa25 	bl	800188c <crm_periph_clock_enable>
F:\AT32-workspace\AT32F403ACGU7_clone_windows_desktop_virtual_com_port\Release/../user/main.c:212
	gpio_init_struct.gpio_pins = GPIO_PINS_13 | GPIO_PINS_15;
 8000442:	4a75      	ldr	r2, [pc, #468]	; (8000618 <main+0x370>)
 8000444:	f44f 4320 	mov.w	r3, #40960	; 0xa000
 8000448:	e9c4 3200 	strd	r3, r2, [r4]
F:\AT32-workspace\AT32F403ACGU7_clone_windows_desktop_virtual_com_port\Release/../user/main.c:214
	gpio_init(GPIOB, &gpio_init_struct);
 800044c:	4648      	mov	r0, r9
 800044e:	4621      	mov	r1, r4
 8000450:	f001 fbfc 	bl	8001c4c <gpio_init>
F:\AT32-workspace\AT32F403ACGU7_clone_windows_desktop_virtual_com_port\Release/../user/main.c:217
	crm_periph_clock_enable(CRM_DMA1_PERIPH_CLOCK, TRUE); //Тактирование контроллера DMA1
 8000454:	4631      	mov	r1, r6
 8000456:	f44f 10a0 	mov.w	r0, #1310720	; 0x140000
 800045a:	f001 fa17 	bl	800188c <crm_periph_clock_enable>
F:\AT32-workspace\AT32F403ACGU7_clone_windows_desktop_virtual_com_port\Release/../user/main.c:218
	nvic_irq_enable(DMA1_Channel1_IRQn, 2, 0); /* дисплей - передача (TX) */
 800045e:	462a      	mov	r2, r5
 8000460:	4641      	mov	r1, r8
 8000462:	200b      	movs	r0, #11
 8000464:	f001 fcca 	bl	8001dfc <nvic_irq_enable>
F:\AT32-workspace\AT32F403ACGU7_clone_windows_desktop_virtual_com_port\Release/../user/main.c:220
	dma_flexible_config(DMA1, FLEX_CHANNEL1, DMA_FLEXIBLE_SPI2_TX);
 8000468:	220c      	movs	r2, #12
 800046a:	4631      	mov	r1, r6
 800046c:	486b      	ldr	r0, [pc, #428]	; (800061c <main+0x374>)
 800046e:	f001 fb69 	bl	8001b44 <dma_flexible_config>
F:\AT32-workspace\AT32F403ACGU7_clone_windows_desktop_virtual_com_port\Release/../user/main.c:221
	dma_reset(DMA1_CHANNEL1);
 8000472:	486b      	ldr	r0, [pc, #428]	; (8000620 <main+0x378>)
 8000474:	f001 fb3a 	bl	8001aec <dma_reset>
F:\AT32-workspace\AT32F403ACGU7_clone_windows_desktop_virtual_com_port\Release/../user/main.c:222
	dma_init_struct.peripheral_base_addr = (uint32_t)&SPI2->dt;
 8000478:	4b6a      	ldr	r3, [pc, #424]	; (8000624 <main+0x37c>)
F:\AT32-workspace\AT32F403ACGU7_clone_windows_desktop_virtual_com_port\Release/../user/main.c:232
	dma_init(DMA1_CHANNEL1, &dma_init_struct);
 800047a:	4869      	ldr	r0, [pc, #420]	; (8000620 <main+0x378>)
F:\AT32-workspace\AT32F403ACGU7_clone_windows_desktop_virtual_com_port\Release/../user/main.c:222
	dma_init_struct.peripheral_base_addr = (uint32_t)&SPI2->dt;
 800047c:	9341      	str	r3, [sp, #260]	; 0x104
F:\AT32-workspace\AT32F403ACGU7_clone_windows_desktop_virtual_com_port\Release/../user/main.c:232
	dma_init(DMA1_CHANNEL1, &dma_init_struct);
 800047e:	a941      	add	r1, sp, #260	; 0x104
F:\AT32-workspace\AT32F403ACGU7_clone_windows_desktop_virtual_com_port\Release/../user/main.c:224
	dma_init_struct.direction = DMA_DIR_MEMORY_TO_PERIPHERAL;
 8000480:	2310      	movs	r3, #16
F:\AT32-workspace\AT32F403ACGU7_clone_windows_desktop_virtual_com_port\Release/../user/main.c:226
	dma_init_struct.peripheral_inc_enable = FALSE;
 8000482:	f8cd a110 	str.w	sl, [sp, #272]	; 0x110
F:\AT32-workspace\AT32F403ACGU7_clone_windows_desktop_virtual_com_port\Release/../user/main.c:224
	dma_init_struct.direction = DMA_DIR_MEMORY_TO_PERIPHERAL;
 8000486:	9343      	str	r3, [sp, #268]	; 0x10c
F:\AT32-workspace\AT32F403ACGU7_clone_windows_desktop_virtual_com_port\Release/../user/main.c:222
	dma_init_struct.peripheral_base_addr = (uint32_t)&SPI2->dt;
 8000488:	9542      	str	r5, [sp, #264]	; 0x108
F:\AT32-workspace\AT32F403ACGU7_clone_windows_desktop_virtual_com_port\Release/../user/main.c:230
	dma_init_struct.loop_mode_enable = FALSE;
 800048a:	f8ad 5114 	strh.w	r5, [sp, #276]	; 0x114
F:\AT32-workspace\AT32F403ACGU7_clone_windows_desktop_virtual_com_port\Release/../user/main.c:232
	dma_init(DMA1_CHANNEL1, &dma_init_struct);
 800048e:	f001 fbab 	bl	8001be8 <dma_init>
F:\AT32-workspace\AT32F403ACGU7_clone_windows_desktop_virtual_com_port\Release/../user/main.c:235
	spi_init_struct.transmission_mode = SPI_TRANSMIT_FULL_DUPLEX;
 8000492:	f04f 7380 	mov.w	r3, #16777216	; 0x1000000
F:\AT32-workspace\AT32F403ACGU7_clone_windows_desktop_virtual_com_port\Release/../user/main.c:243
	spi_init(SPI2, &spi_init_struct);
 8000496:	4864      	ldr	r0, [pc, #400]	; (8000628 <main+0x380>)
F:\AT32-workspace\AT32F403ACGU7_clone_windows_desktop_virtual_com_port\Release/../user/main.c:235
	spi_init_struct.transmission_mode = SPI_TRANSMIT_FULL_DUPLEX;
 8000498:	f8cd a0a0 	str.w	sl, [sp, #160]	; 0xa0
F:\AT32-workspace\AT32F403ACGU7_clone_windows_desktop_virtual_com_port\Release/../user/main.c:243
	spi_init(SPI2, &spi_init_struct);
 800049c:	a928      	add	r1, sp, #160	; 0xa0
F:\AT32-workspace\AT32F403ACGU7_clone_windows_desktop_virtual_com_port\Release/../user/main.c:235
	spi_init_struct.transmission_mode = SPI_TRANSMIT_FULL_DUPLEX;
 800049e:	9329      	str	r3, [sp, #164]	; 0xa4
F:\AT32-workspace\AT32F403ACGU7_clone_windows_desktop_virtual_com_port\Release/../user/main.c:243
	spi_init(SPI2, &spi_init_struct);
 80004a0:	f001 fd04 	bl	8001eac <spi_init>
main():
F:\AT32-workspace\AT32F403ACGU7_clone_windows_desktop_virtual_com_port\Release/../user/main.c:301
	LCD_SPI_Connected_data spi_dat = { .spi = SPI2,							/* Указатель на используемый spi */
 80004a4:	a148      	add	r1, pc, #288	; (adr r1, 80005c8 <main+0x320>)
 80004a6:	e9d1 0100 	ldrd	r0, r1, [r1]
 80004aa:	2280      	movs	r2, #128	; 0x80
F:\AT32-workspace\AT32F403ACGU7_clone_windows_desktop_virtual_com_port\Release/../user/main.c:287
	LCD_BackLight_data bl_dat = { .htim_bk = TMR3,							/* Указатель на таймер (либо 0, если ШИМ не используется) */
 80004ac:	4b5f      	ldr	r3, [pc, #380]	; (800062c <main+0x384>)
F:\AT32-workspace\AT32F403ACGU7_clone_windows_desktop_virtual_com_port\Release/../user/main.c:301
	LCD_SPI_Connected_data spi_dat = { .spi = SPI2,							/* Указатель на используемый spi */
 80004ae:	8222      	strh	r2, [r4, #16]
 80004b0:	2240      	movs	r2, #64	; 0x40
 80004b2:	e9c4 6902 	strd	r6, r9, [r4, #8]
 80004b6:	f8a4 a020 	strh.w	sl, [r4, #32]
 80004ba:	f8c4 9014 	str.w	r9, [r4, #20]
 80004be:	f8c4 901c 	str.w	r9, [r4, #28]
 80004c2:	8322      	strh	r2, [r4, #24]
 80004c4:	e9cd 011e 	strd	r0, r1, [sp, #120]	; 0x78
F:\AT32-workspace\AT32F403ACGU7_clone_windows_desktop_virtual_com_port\Release/../user/main.c:287
	LCD_BackLight_data bl_dat = { .htim_bk = TMR3,							/* Указатель на таймер (либо 0, если ШИМ не используется) */
 80004c8:	cb0f      	ldmia	r3, {r0, r1, r2, r3}
 80004ca:	f10d 0c68 	add.w	ip, sp, #104	; 0x68
F:\AT32-workspace\AT32F403ACGU7_clone_windows_desktop_virtual_com_port\Release/../user/main.c:313
	LCD = LCD_DisplayAdd( LCD,
 80004ce:	f10d 0e2c 	add.w	lr, sp, #44	; 0x2c
F:\AT32-workspace\AT32F403ACGU7_clone_windows_desktop_virtual_com_port\Release/../user/main.c:287
	LCD_BackLight_data bl_dat = { .htim_bk = TMR3,							/* Указатель на таймер (либо 0, если ШИМ не используется) */
 80004d2:	e88c 000f 	stmia.w	ip, {r0, r1, r2, r3}
F:\AT32-workspace\AT32F403ACGU7_clone_windows_desktop_virtual_com_port\Release/../user/main.c:313
	LCD = LCD_DisplayAdd( LCD,
 80004d6:	e88e 000f 	stmia.w	lr, {r0, r1, r2, r3}
 80004da:	4b55      	ldr	r3, [pc, #340]	; (8000630 <main+0x388>)
 80004dc:	9308      	str	r3, [sp, #32]
 80004de:	4b55      	ldr	r3, [pc, #340]	; (8000634 <main+0x38c>)
 80004e0:	9307      	str	r3, [sp, #28]
 80004e2:	e9cd 4809 	strd	r4, r8, [sp, #36]	; 0x24
 80004e6:	e9cd 5502 	strd	r5, r5, [sp, #8]
 80004ea:	4b53      	ldr	r3, [pc, #332]	; (8000638 <main+0x390>)
 80004ec:	9306      	str	r3, [sp, #24]
 80004ee:	f44f 7aa0 	mov.w	sl, #320	; 0x140
 80004f2:	4b52      	ldr	r3, [pc, #328]	; (800063c <main+0x394>)
 80004f4:	9305      	str	r3, [sp, #20]
 80004f6:	f04f 09f0 	mov.w	r9, #240	; 0xf0
 80004fa:	9604      	str	r6, [sp, #16]
 80004fc:	f8cd a004 	str.w	sl, [sp, #4]
 8000500:	f8cd 9000 	str.w	r9, [sp]
 8000504:	4653      	mov	r3, sl
 8000506:	464a      	mov	r2, r9
 8000508:	a941      	add	r1, sp, #260	; 0x104
 800050a:	f8db 0000 	ldr.w	r0, [fp]
 800050e:	f004 f8fb 	bl	8004708 <LCD_DisplayAdd>
 8000512:	4604      	mov	r4, r0
 8000514:	f8cb 0000 	str.w	r0, [fp]
F:\AT32-workspace\AT32F403ACGU7_clone_windows_desktop_virtual_com_port\Release/../user/main.c:334
	LCD_Init(lcd); 				/* Инициализация дисплея */
 8000518:	f004 f9fa 	bl	8004910 <LCD_Init>
F:\AT32-workspace\AT32F403ACGU7_clone_windows_desktop_virtual_com_port\Release/../user/main.c:335
	LCD_Fill(lcd, 0x319bb1);	/* Заливка дисплея заданным цветом */
 800051c:	4948      	ldr	r1, [pc, #288]	; (8000640 <main+0x398>)
 800051e:	4620      	mov	r0, r4
 8000520:	f004 fa3a 	bl	8004998 <LCD_Fill>
F:\AT32-workspace\AT32F403ACGU7_clone_windows_desktop_virtual_com_port\Release/../user/main.c:346
	strcpy(message, "MCU:");
 8000524:	4b47      	ldr	r3, [pc, #284]	; (8000644 <main+0x39c>)
F:\AT32-workspace\AT32F403ACGU7_clone_windows_desktop_virtual_com_port\Release/../user/main.c:338
	char fps_txt[10] = "???";
 8000526:	9515      	str	r5, [sp, #84]	; 0x54
F:\AT32-workspace\AT32F403ACGU7_clone_windows_desktop_virtual_com_port\Release/../user/main.c:346
	strcpy(message, "MCU:");
 8000528:	e893 0003 	ldmia.w	r3, {r0, r1}
F:\AT32-workspace\AT32F403ACGU7_clone_windows_desktop_virtual_com_port\Release/../user/main.c:338
	char fps_txt[10] = "???";
 800052c:	4b46      	ldr	r3, [pc, #280]	; (8000648 <main+0x3a0>)
 800052e:	9314      	str	r3, [sp, #80]	; 0x50
F:\AT32-workspace\AT32F403ACGU7_clone_windows_desktop_virtual_com_port\Release/../user/main.c:339
	char bytes_txt[10] = "???";
 8000530:	9317      	str	r3, [sp, #92]	; 0x5c
F:\AT32-workspace\AT32F403ACGU7_clone_windows_desktop_virtual_com_port\Release/../user/main.c:337
	uint32_t old_time = millis, bytes = 0;
 8000532:	4b46      	ldr	r3, [pc, #280]	; (800064c <main+0x3a4>)
F:\AT32-workspace\AT32F403ACGU7_clone_windows_desktop_virtual_com_port\Release/../user/main.c:346
	strcpy(message, "MCU:");
 8000534:	f88d 10a4 	strb.w	r1, [sp, #164]	; 0xa4
F:\AT32-workspace\AT32F403ACGU7_clone_windows_desktop_virtual_com_port\Release/../user/main.c:338
	char fps_txt[10] = "???";
 8000538:	f8ad 5058 	strh.w	r5, [sp, #88]	; 0x58
F:\AT32-workspace\AT32F403ACGU7_clone_windows_desktop_virtual_com_port\Release/../user/main.c:346
	strcpy(message, "MCU:");
 800053c:	9028      	str	r0, [sp, #160]	; 0xa0
F:\AT32-workspace\AT32F403ACGU7_clone_windows_desktop_virtual_com_port\Release/../user/main.c:339
	char bytes_txt[10] = "???";
 800053e:	9518      	str	r5, [sp, #96]	; 0x60
 8000540:	f8ad 5064 	strh.w	r5, [sp, #100]	; 0x64
F:\AT32-workspace\AT32F403ACGU7_clone_windows_desktop_virtual_com_port\Release/../user/main.c:337
	uint32_t old_time = millis, bytes = 0;
 8000544:	681b      	ldr	r3, [r3, #0]
F:\AT32-workspace\AT32F403ACGU7_clone_windows_desktop_virtual_com_port\Release/../user/main.c:347
	utoa(lcd->Width, &message[strlen(message)], 10);
 8000546:	88a0      	ldrh	r0, [r4, #4]
F:\AT32-workspace\AT32F403ACGU7_clone_windows_desktop_virtual_com_port\Release/../user/main.c:337
	uint32_t old_time = millis, bytes = 0;
 8000548:	9310      	str	r3, [sp, #64]	; 0x40
F:\AT32-workspace\AT32F403ACGU7_clone_windows_desktop_virtual_com_port\Release/../user/main.c:347
	utoa(lcd->Width, &message[strlen(message)], 10);
 800054a:	220a      	movs	r2, #10
 800054c:	a929      	add	r1, sp, #164	; 0xa4
 800054e:	f004 fe23 	bl	8005198 <utoa>
F:\AT32-workspace\AT32F403ACGU7_clone_windows_desktop_virtual_com_port\Release/../user/main.c:348
	strcat(message, "X");
 8000552:	a828      	add	r0, sp, #160	; 0xa0
 8000554:	f7ff fe38 	bl	80001c8 <strlen>
 8000558:	4b3d      	ldr	r3, [pc, #244]	; (8000650 <main+0x3a8>)
 800055a:	aa28      	add	r2, sp, #160	; 0xa0
 800055c:	881b      	ldrh	r3, [r3, #0]
 800055e:	5213      	strh	r3, [r2, r0]
F:\AT32-workspace\AT32F403ACGU7_clone_windows_desktop_virtual_com_port\Release/../user/main.c:349
	utoa(lcd->Height, &message[strlen(message)], 10);
 8000560:	1981      	adds	r1, r0, r6
 8000562:	4411      	add	r1, r2
 8000564:	88e0      	ldrh	r0, [r4, #6]
 8000566:	220a      	movs	r2, #10
 8000568:	f004 fe16 	bl	8005198 <utoa>
F:\AT32-workspace\AT32F403ACGU7_clone_windows_desktop_virtual_com_port\Release/../user/main.c:350
	strcat(message, ".");
 800056c:	a828      	add	r0, sp, #160	; 0xa0
 800056e:	f7ff fe2b 	bl	80001c8 <strlen>
 8000572:	4b38      	ldr	r3, [pc, #224]	; (8000654 <main+0x3ac>)
 8000574:	aa28      	add	r2, sp, #160	; 0xa0
 8000576:	881b      	ldrh	r3, [r3, #0]
 8000578:	5213      	strh	r3, [r2, r0]
F:\AT32-workspace\AT32F403ACGU7_clone_windows_desktop_virtual_com_port\Release/../user/main.c:353
		res = usb_vcp_send_data(&usb_core_dev, (uint8_t*)message, strlen(message));
 800057a:	a828      	add	r0, sp, #160	; 0xa0
 800057c:	f7ff fe24 	bl	80001c8 <strlen>
 8000580:	a928      	add	r1, sp, #160	; 0xa0
 8000582:	b282      	uxth	r2, r0
 8000584:	4638      	mov	r0, r7
 8000586:	f002 fa17 	bl	80029b8 <usb_vcp_send_data>
F:\AT32-workspace\AT32F403ACGU7_clone_windows_desktop_virtual_com_port\Release/../user/main.c:352
	while (res != SUCCESS) {
 800058a:	2801      	cmp	r0, #1
 800058c:	d1f5      	bne.n	800057a <main+0x2d2>
F:\AT32-workspace\AT32F403ACGU7_clone_windows_desktop_virtual_com_port\Release/../user/main.c:340
	uint32_t frames_s = 0;
 800058e:	2600      	movs	r6, #0
 8000590:	f8df a0d4 	ldr.w	sl, [pc, #212]	; 8000668 <main+0x3c0>
 8000594:	f8df 90d4 	ldr.w	r9, [pc, #212]	; 800066c <main+0x3c4>
 8000598:	f8df b0d4 	ldr.w	fp, [pc, #212]	; 8000670 <main+0x3c8>
 800059c:	4f2e      	ldr	r7, [pc, #184]	; (8000658 <main+0x3b0>)
 800059e:	9011      	str	r0, [sp, #68]	; 0x44
F:\AT32-workspace\AT32F403ACGU7_clone_windows_desktop_virtual_com_port\Release/../user/main.c:337
	uint32_t old_time = millis, bytes = 0;
 80005a0:	46b0      	mov	r8, r6
F:\AT32-workspace\AT32F403ACGU7_clone_windows_desktop_virtual_com_port\Release/../user/main.c:363
			file.data = &buffer[buf_offs];
			file.size = len_buf;
			bytes += len_buf;

			buf_offs = 12000 - buf_offs;
			recieve_fl = len_buf = 0;
 80005a2:	4635      	mov	r5, r6
F:\AT32-workspace\AT32F403ACGU7_clone_windows_desktop_virtual_com_port\Release/../user/main.c:357
		if (recieve_fl) {
 80005a4:	f89a 3000 	ldrb.w	r3, [sl]
 80005a8:	2b00      	cmp	r3, #0
 80005aa:	f000 80b6 	beq.w	800071a <main+0x472>
F:\AT32-workspace\AT32F403ACGU7_clone_windows_desktop_virtual_com_port\Release/../user/main.c:358
			file.data = &buffer[buf_offs];
 80005ae:	f8b9 3000 	ldrh.w	r3, [r9]
 80005b2:	4a2a      	ldr	r2, [pc, #168]	; (800065c <main+0x3b4>)
 80005b4:	fa12 f383 	uxtah	r3, r2, r3
 80005b8:	9312      	str	r3, [sp, #72]	; 0x48
F:\AT32-workspace\AT32F403ACGU7_clone_windows_desktop_virtual_com_port\Release/../user/main.c:359
			file.size = len_buf;
 80005ba:	f8bb 3000 	ldrh.w	r3, [fp]
F:\AT32-workspace\AT32F403ACGU7_clone_windows_desktop_virtual_com_port\Release/../user/main.c:365

			LCD_Load_JPG_chan(lcd, 0, 0, lcd->Width, lcd->Height, &file, PICTURE_IN_MEMORY);
 80005be:	9a11      	ldr	r2, [sp, #68]	; 0x44
 80005c0:	e058      	b.n	8000674 <main+0x3cc>
 80005c2:	bf00      	nop
 80005c4:	f3af 8000 	nop.w
 80005c8:	40003800 	.word	0x40003800
 80005cc:	40020000 	.word	0x40020000
 80005d0:	e000ed00 	.word	0xe000ed00
 80005d4:	05fa0300 	.word	0x05fa0300
 80005d8:	20000008 	.word	0x20000008
 80005dc:	10624dd3 	.word	0x10624dd3
 80005e0:	00180016 	.word	0x00180016
 80005e4:	001c0017 	.word	0x001c0017
 80005e8:	2000000c 	.word	0x2000000c
 80005ec:	2000003c 	.word	0x2000003c
 80005f0:	40005c00 	.word	0x40005c00
 80005f4:	20005fb0 	.word	0x20005fb0
 80005f8:	00180003 	.word	0x00180003
 80005fc:	00180004 	.word	0x00180004
 8000600:	01100400 	.word	0x01100400
 8000604:	001c0001 	.word	0x001c0001
 8000608:	01080400 	.word	0x01080400
 800060c:	40000400 	.word	0x40000400
 8000610:	014f8b59 	.word	0x014f8b59
 8000614:	001c000e 	.word	0x001c000e
 8000618:	02080400 	.word	0x02080400
 800061c:	40020000 	.word	0x40020000
 8000620:	40020008 	.word	0x40020008
 8000624:	4000380c 	.word	0x4000380c
 8000628:	40003800 	.word	0x40003800
 800062c:	080051b4 	.word	0x080051b4
 8000630:	08005099 	.word	0x08005099
 8000634:	08005091 	.word	0x08005091
 8000638:	0800506d 	.word	0x0800506d
 800063c:	08005031 	.word	0x08005031
 8000640:	00319bb1 	.word	0x00319bb1
 8000644:	080051c4 	.word	0x080051c4
 8000648:	003f3f3f 	.word	0x003f3f3f
 800064c:	20005fa8 	.word	0x20005fa8
 8000650:	080051cc 	.word	0x080051cc
 8000654:	080051d0 	.word	0x080051d0
 8000658:	20000100 	.word	0x20000100
 800065c:	200001e4 	.word	0x200001e4
 8000660:	40010c00 	.word	0x40010c00
 8000664:	20009224 	.word	0x20009224
 8000668:	20005fac 	.word	0x20005fac
 800066c:	200001e0 	.word	0x200001e0
 8000670:	20005fa4 	.word	0x20005fa4
F:\AT32-workspace\AT32F403ACGU7_clone_windows_desktop_virtual_com_port\Release/../user/main.c:359
			file.size = len_buf;
 8000674:	b29b      	uxth	r3, r3
 8000676:	9313      	str	r3, [sp, #76]	; 0x4c
F:\AT32-workspace\AT32F403ACGU7_clone_windows_desktop_virtual_com_port\Release/../user/main.c:360
			bytes += len_buf;
 8000678:	f8bb 3000 	ldrh.w	r3, [fp]
 800067c:	fa18 f883 	uxtah	r8, r8, r3
F:\AT32-workspace\AT32F403ACGU7_clone_windows_desktop_virtual_com_port\Release/../user/main.c:362
			buf_offs = 12000 - buf_offs;
 8000680:	f8b9 3000 	ldrh.w	r3, [r9]
 8000684:	f5c3 533b 	rsb	r3, r3, #11968	; 0x2ec0
 8000688:	3320      	adds	r3, #32
 800068a:	b29b      	uxth	r3, r3
 800068c:	f8a9 3000 	strh.w	r3, [r9]
F:\AT32-workspace\AT32F403ACGU7_clone_windows_desktop_virtual_com_port\Release/../user/main.c:365
			LCD_Load_JPG_chan(lcd, 0, 0, lcd->Width, lcd->Height, &file, PICTURE_IN_MEMORY);
 8000690:	88a3      	ldrh	r3, [r4, #4]
F:\AT32-workspace\AT32F403ACGU7_clone_windows_desktop_virtual_com_port\Release/../user/main.c:363
			recieve_fl = len_buf = 0;
 8000692:	f8ab 5000 	strh.w	r5, [fp]
 8000696:	f88a 5000 	strb.w	r5, [sl]
F:\AT32-workspace\AT32F403ACGU7_clone_windows_desktop_virtual_com_port\Release/../user/main.c:365
			LCD_Load_JPG_chan(lcd, 0, 0, lcd->Width, lcd->Height, &file, PICTURE_IN_MEMORY);
 800069a:	9202      	str	r2, [sp, #8]
 800069c:	aa12      	add	r2, sp, #72	; 0x48
 800069e:	9201      	str	r2, [sp, #4]
 80006a0:	88e2      	ldrh	r2, [r4, #6]
 80006a2:	9200      	str	r2, [sp, #0]
 80006a4:	2200      	movs	r2, #0
 80006a6:	4611      	mov	r1, r2
 80006a8:	4620      	mov	r0, r4
 80006aa:	f002 fb29 	bl	8002d00 <LCD_Load_JPG_chan>
F:\AT32-workspace\AT32F403ACGU7_clone_windows_desktop_virtual_com_port\Release/../user/main.c:367
#if (DISPLAY_DEBUG_DATA == 1)
			LCD_WriteString(lcd, 8, lcd->Height - Font_8x13.height, fps_txt, &Font_8x13, COLOR_BLACK, COLOR_WHITE, LCD_SYMBOL_PRINT_FAST);
 80006ae:	88e2      	ldrh	r2, [r4, #6]
 80006b0:	9503      	str	r5, [sp, #12]
 80006b2:	e9cd 7500 	strd	r7, r5, [sp]
 80006b6:	787b      	ldrb	r3, [r7, #1]
 80006b8:	1ad2      	subs	r2, r2, r3
 80006ba:	f06f 437f 	mvn.w	r3, #4278190080	; 0xff000000
 80006be:	b292      	uxth	r2, r2
 80006c0:	9302      	str	r3, [sp, #8]
 80006c2:	4620      	mov	r0, r4
 80006c4:	ab14      	add	r3, sp, #80	; 0x50
 80006c6:	2108      	movs	r1, #8
 80006c8:	f004 faf8 	bl	8004cbc <LCD_WriteString>
F:\AT32-workspace\AT32F403ACGU7_clone_windows_desktop_virtual_com_port\Release/../user/main.c:368
			LCD_WriteString(lcd, lcd->Width / 2, lcd->Height - Font_8x13.height, bytes_txt, &Font_8x13, COLOR_BLACK, COLOR_WHITE, LCD_SYMBOL_PRINT_FAST);
 80006cc:	787b      	ldrb	r3, [r7, #1]
 80006ce:	88e2      	ldrh	r2, [r4, #6]
 80006d0:	88a1      	ldrh	r1, [r4, #4]
 80006d2:	9503      	str	r5, [sp, #12]
 80006d4:	1ad2      	subs	r2, r2, r3
 80006d6:	f06f 437f 	mvn.w	r3, #4278190080	; 0xff000000
 80006da:	b292      	uxth	r2, r2
 80006dc:	9302      	str	r3, [sp, #8]
 80006de:	4620      	mov	r0, r4
 80006e0:	ab17      	add	r3, sp, #92	; 0x5c
 80006e2:	e9cd 7500 	strd	r7, r5, [sp]
 80006e6:	0849      	lsrs	r1, r1, #1
 80006e8:	f004 fae8 	bl	8004cbc <LCD_WriteString>
F:\AT32-workspace\AT32F403ACGU7_clone_windows_desktop_virtual_com_port\Release/../user/main.c:371
#endif
			frames_s++;
			if (millis - old_time >= 1000) {
 80006ec:	4b0c      	ldr	r3, [pc, #48]	; (8000720 <main+0x478>)
 80006ee:	9a10      	ldr	r2, [sp, #64]	; 0x40
 80006f0:	681b      	ldr	r3, [r3, #0]
 80006f2:	1a9b      	subs	r3, r3, r2
F:\AT32-workspace\AT32F403ACGU7_clone_windows_desktop_virtual_com_port\Release/../user/main.c:370
			frames_s++;
 80006f4:	3601      	adds	r6, #1
F:\AT32-workspace\AT32F403ACGU7_clone_windows_desktop_virtual_com_port\Release/../user/main.c:371
			if (millis - old_time >= 1000) {
 80006f6:	f5b3 7f7a 	cmp.w	r3, #1000	; 0x3e8
F:\AT32-workspace\AT32F403ACGU7_clone_windows_desktop_virtual_com_port\Release/../user/main.c:372
				utoa(frames_s, fps_txt, 10);
 80006fa:	4630      	mov	r0, r6
F:\AT32-workspace\AT32F403ACGU7_clone_windows_desktop_virtual_com_port\Release/../user/main.c:371
			if (millis - old_time >= 1000) {
 80006fc:	d30d      	bcc.n	800071a <main+0x472>
F:\AT32-workspace\AT32F403ACGU7_clone_windows_desktop_virtual_com_port\Release/../user/main.c:372
				utoa(frames_s, fps_txt, 10);
 80006fe:	a914      	add	r1, sp, #80	; 0x50
 8000700:	220a      	movs	r2, #10
 8000702:	f004 fd49 	bl	8005198 <utoa>
F:\AT32-workspace\AT32F403ACGU7_clone_windows_desktop_virtual_com_port\Release/../user/main.c:374
				frames_s = 0;
				old_time = millis;
 8000706:	4b06      	ldr	r3, [pc, #24]	; (8000720 <main+0x478>)
F:\AT32-workspace\AT32F403ACGU7_clone_windows_desktop_virtual_com_port\Release/../user/main.c:375
				utoa(bytes, bytes_txt, 10);
 8000708:	4640      	mov	r0, r8
F:\AT32-workspace\AT32F403ACGU7_clone_windows_desktop_virtual_com_port\Release/../user/main.c:374
				old_time = millis;
 800070a:	681b      	ldr	r3, [r3, #0]
 800070c:	9310      	str	r3, [sp, #64]	; 0x40
F:\AT32-workspace\AT32F403ACGU7_clone_windows_desktop_virtual_com_port\Release/../user/main.c:375
				utoa(bytes, bytes_txt, 10);
 800070e:	220a      	movs	r2, #10
 8000710:	a917      	add	r1, sp, #92	; 0x5c
 8000712:	f004 fd41 	bl	8005198 <utoa>
F:\AT32-workspace\AT32F403ACGU7_clone_windows_desktop_virtual_com_port\Release/../user/main.c:373
				frames_s = 0;
 8000716:	2600      	movs	r6, #0
F:\AT32-workspace\AT32F403ACGU7_clone_windows_desktop_virtual_com_port\Release/../user/main.c:376
				bytes = 0;
 8000718:	46b0      	mov	r8, r6
F:\AT32-workspace\AT32F403ACGU7_clone_windows_desktop_virtual_com_port\Release/../user/main.c:379
			}
		}
		__NOP();
 800071a:	bf00      	nop
F:\AT32-workspace\AT32F403ACGU7_clone_windows_desktop_virtual_com_port\Release/../user/main.c:357
		if (recieve_fl) {
 800071c:	e742      	b.n	80005a4 <main+0x2fc>
 800071e:	bf00      	nop
 8000720:	20005fa8 	.word	0x20005fa8

08000724 <USBFS_L_CAN1_RX0_IRQHandler>:
USBFS_L_CAN1_RX0_IRQHandler():
F:\AT32-workspace\AT32F403ACGU7_clone_windows_desktop_virtual_com_port\Release/../user/main.c:390
  * @param  none
  * @retval none
  */
void USBFS_L_CAN1_RX0_IRQHandler(void)
{
	usbd_irq_handler(&usb_core_dev);
 8000724:	4801      	ldr	r0, [pc, #4]	; (800072c <USBFS_L_CAN1_RX0_IRQHandler+0x8>)
 8000726:	f000 bd17 	b.w	8001158 <usbd_irq_handler>
 800072a:	bf00      	nop
 800072c:	20005fb0 	.word	0x20005fb0

08000730 <usbd_core_setup_handler>:
usbd_core_setup_handler():
F:\AT32-workspace\AT32F403ACGU7_clone_windows_desktop_virtual_com_port\Release/../usbd_drivers/usbd_core.c:138
  * @param  udev: to the structure of usbd_core_type
  * @param  ept_addr: endpoint number
  * @retval none
  */
void usbd_core_setup_handler(usbd_core_type *udev, uint8_t ept_num)
{
 8000730:	b510      	push	{r4, lr}
 8000732:	4604      	mov	r4, r0
F:\AT32-workspace\AT32F403ACGU7_clone_windows_desktop_virtual_com_port\Release/../usbd_drivers/usbd_core.c:140
  /* setup parse */
  usbd_setup_request_parse(&udev->setup, udev->setup_buffer);
 8000734:	f500 7105 	add.w	r1, r0, #532	; 0x214
 8000738:	f500 7003 	add.w	r0, r0, #524	; 0x20c
 800073c:	f000 fe6e 	bl	800141c <usbd_setup_request_parse>
F:\AT32-workspace\AT32F403ACGU7_clone_windows_desktop_virtual_com_port\Release/../usbd_drivers/usbd_core.c:143

  /* set ept0 status */
  udev->ept0_sts = USB_EPT0_SETUP;
 8000740:	f894 320c 	ldrb.w	r3, [r4, #524]	; 0x20c
F:\AT32-workspace\AT32F403ACGU7_clone_windows_desktop_virtual_com_port\Release/../usbd_drivers/usbd_core.c:144
  udev->ept0_wlength = udev->setup.wLength;
 8000744:	f8b4 2212 	ldrh.w	r2, [r4, #530]	; 0x212
 8000748:	f8a4 2222 	strh.w	r2, [r4, #546]	; 0x222
F:\AT32-workspace\AT32F403ACGU7_clone_windows_desktop_virtual_com_port\Release/../usbd_drivers/usbd_core.c:143
  udev->ept0_sts = USB_EPT0_SETUP;
 800074c:	2101      	movs	r1, #1
 800074e:	f003 031f 	and.w	r3, r3, #31
F:\AT32-workspace\AT32F403ACGU7_clone_windows_desktop_virtual_com_port\Release/../usbd_drivers/usbd_core.c:146

  switch(udev->setup.bmRequestType & USB_REQ_RECIPIENT_MASK)
 8000752:	428b      	cmp	r3, r1
F:\AT32-workspace\AT32F403ACGU7_clone_windows_desktop_virtual_com_port\Release/../usbd_drivers/usbd_core.c:143
  udev->ept0_sts = USB_EPT0_SETUP;
 8000754:	f884 1220 	strb.w	r1, [r4, #544]	; 0x220
F:\AT32-workspace\AT32F403ACGU7_clone_windows_desktop_virtual_com_port\Release/../usbd_drivers/usbd_core.c:146
  switch(udev->setup.bmRequestType & USB_REQ_RECIPIENT_MASK)
 8000758:	d003      	beq.n	8000762 <usbd_core_setup_handler+0x32>
 800075a:	2b02      	cmp	r3, #2
 800075c:	d00b      	beq.n	8000776 <usbd_core_setup_handler+0x46>
 800075e:	b12b      	cbz	r3, 800076c <usbd_core_setup_handler+0x3c>
F:\AT32-workspace\AT32F403ACGU7_clone_windows_desktop_virtual_com_port\Release/../usbd_drivers/usbd_core.c:163
      usbd_endpoint_request(udev);
      break;
    default:
      break;
  }
}
 8000760:	bd10      	pop	{r4, pc}
F:\AT32-workspace\AT32F403ACGU7_clone_windows_desktop_virtual_com_port\Release/../usbd_drivers/usbd_core.c:154
      usbd_interface_request(udev);
 8000762:	4620      	mov	r0, r4
F:\AT32-workspace\AT32F403ACGU7_clone_windows_desktop_virtual_com_port\Release/../usbd_drivers/usbd_core.c:163
}
 8000764:	e8bd 4010 	ldmia.w	sp!, {r4, lr}
F:\AT32-workspace\AT32F403ACGU7_clone_windows_desktop_virtual_com_port\Release/../usbd_drivers/usbd_core.c:154
      usbd_interface_request(udev);
 8000768:	f000 bf8e 	b.w	8001688 <usbd_interface_request>
F:\AT32-workspace\AT32F403ACGU7_clone_windows_desktop_virtual_com_port\Release/../usbd_drivers/usbd_core.c:150
      usbd_device_request(udev);
 800076c:	4620      	mov	r0, r4
F:\AT32-workspace\AT32F403ACGU7_clone_windows_desktop_virtual_com_port\Release/../usbd_drivers/usbd_core.c:163
}
 800076e:	e8bd 4010 	ldmia.w	sp!, {r4, lr}
F:\AT32-workspace\AT32F403ACGU7_clone_windows_desktop_virtual_com_port\Release/../usbd_drivers/usbd_core.c:150
      usbd_device_request(udev);
 8000772:	f000 be67 	b.w	8001444 <usbd_device_request>
F:\AT32-workspace\AT32F403ACGU7_clone_windows_desktop_virtual_com_port\Release/../usbd_drivers/usbd_core.c:158
      usbd_endpoint_request(udev);
 8000776:	4620      	mov	r0, r4
F:\AT32-workspace\AT32F403ACGU7_clone_windows_desktop_virtual_com_port\Release/../usbd_drivers/usbd_core.c:163
}
 8000778:	e8bd 4010 	ldmia.w	sp!, {r4, lr}
F:\AT32-workspace\AT32F403ACGU7_clone_windows_desktop_virtual_com_port\Release/../usbd_drivers/usbd_core.c:158
      usbd_endpoint_request(udev);
 800077c:	f000 bfa2 	b.w	80016c4 <usbd_endpoint_request>

08000780 <usbd_ctrl_send>:
usbd_ctrl_send():
F:\AT32-workspace\AT32F403ACGU7_clone_windows_desktop_virtual_com_port\Release/../usbd_drivers/usbd_core.c:174
  * @param  buffer: send data buffer
  * @param  len: send data length
  * @retval none
  */
void usbd_ctrl_send(usbd_core_type *udev, uint8_t *buffer, uint16_t len)
{
 8000780:	4603      	mov	r3, r0
F:\AT32-workspace\AT32F403ACGU7_clone_windows_desktop_virtual_com_port\Release/../usbd_drivers/usbd_core.c:178
  usb_ept_info *ept_info = &udev->ept_in[0];

  ept_info->ept0_slen = len;
  ept_info->rem0_len = len;
 8000782:	f04f 0c00 	mov.w	ip, #0
F:\AT32-workspace\AT32F403ACGU7_clone_windows_desktop_virtual_com_port\Release/../usbd_drivers/usbd_core.c:174
{
 8000786:	4608      	mov	r0, r1
F:\AT32-workspace\AT32F403ACGU7_clone_windows_desktop_virtual_com_port\Release/../usbd_drivers/usbd_core.c:179
  udev->ept0_sts = USB_EPT0_DATA_IN;
 8000788:	2102      	movs	r1, #2
F:\AT32-workspace\AT32F403ACGU7_clone_windows_desktop_virtual_com_port\Release/../usbd_drivers/usbd_core.c:174
{
 800078a:	b570      	push	{r4, r5, r6, lr}
F:\AT32-workspace\AT32F403ACGU7_clone_windows_desktop_virtual_com_port\Release/../usbd_drivers/usbd_core.c:178
  ept_info->rem0_len = len;
 800078c:	f362 0c0f 	bfi	ip, r2, #0, #16
F:\AT32-workspace\AT32F403ACGU7_clone_windows_desktop_virtual_com_port\Release/../usbd_drivers/usbd_core.c:179
  udev->ept0_sts = USB_EPT0_DATA_IN;
 8000790:	f883 1220 	strb.w	r1, [r3, #544]	; 0x220
usbd_ept_send():
F:\AT32-workspace\AT32F403ACGU7_clone_windows_desktop_virtual_com_port\Release/../usbd_drivers/usbd_core.c:310
  /* set send data buffer and length */
  ept_info->trans_buf = buffer;
  ept_info->total_len = len;
  ept_info->trans_len = 0;

  if(ept_info->total_len > ept_info->maxpacket)
 8000794:	8a99      	ldrh	r1, [r3, #20]
F:\AT32-workspace\AT32F403ACGU7_clone_windows_desktop_virtual_com_port\Release/../usbd_drivers/usbd_core.c:303
  usbd_type *usbx = udev->usb_reg;
 8000796:	681c      	ldr	r4, [r3, #0]
F:\AT32-workspace\AT32F403ACGU7_clone_windows_desktop_virtual_com_port\Release/../usbd_drivers/usbd_core.c:306
  ept_info->trans_buf = buffer;
 8000798:	6218      	str	r0, [r3, #32]
usbd_ctrl_send():
F:\AT32-workspace\AT32F403ACGU7_clone_windows_desktop_virtual_com_port\Release/../usbd_drivers/usbd_core.c:178
  ept_info->rem0_len = len;
 800079a:	f362 4c1f 	bfi	ip, r2, #16, #16
 800079e:	f8c3 c026 	str.w	ip, [r3, #38]	; 0x26
usbd_ept_send():
F:\AT32-workspace\AT32F403ACGU7_clone_windows_desktop_virtual_com_port\Release/../usbd_drivers/usbd_core.c:310
  if(ept_info->total_len > ept_info->maxpacket)
 80007a2:	428a      	cmp	r2, r1
F:\AT32-workspace\AT32F403ACGU7_clone_windows_desktop_virtual_com_port\Release/../usbd_drivers/usbd_core.c:308
  ept_info->trans_len = 0;
 80007a4:	f04f 0c00 	mov.w	ip, #0
usbd_ctrl_send():
F:\AT32-workspace\AT32F403ACGU7_clone_windows_desktop_virtual_com_port\Release/../usbd_drivers/usbd_core.c:174
{
 80007a8:	4616      	mov	r6, r2
usbd_ept_send():
F:\AT32-workspace\AT32F403ACGU7_clone_windows_desktop_virtual_com_port\Release/../usbd_drivers/usbd_core.c:308
  ept_info->trans_len = 0;
 80007aa:	f8a3 c01c 	strh.w	ip, [r3, #28]
F:\AT32-workspace\AT32F403ACGU7_clone_windows_desktop_virtual_com_port\Release/../usbd_drivers/usbd_core.c:310
  if(ept_info->total_len > ept_info->maxpacket)
 80007ae:	d904      	bls.n	80007ba <usbd_ctrl_send+0x3a>
F:\AT32-workspace\AT32F403ACGU7_clone_windows_desktop_virtual_com_port\Release/../usbd_drivers/usbd_core.c:313
  {
    trs_len = ept_info->maxpacket;
    ept_info->total_len -= trs_len;
 80007b0:	eba2 0c01 	sub.w	ip, r2, r1
 80007b4:	fa1f fc8c 	uxth.w	ip, ip
 80007b8:	460e      	mov	r6, r1
F:\AT32-workspace\AT32F403ACGU7_clone_windows_desktop_virtual_com_port\Release/../usbd_drivers/usbd_core.c:323
    ept_info->total_len = 0;
  }

  ept_info->last_len = trs_len;

  if(ept_info->is_double_buffer == 0)
 80007ba:	7d99      	ldrb	r1, [r3, #22]
 80007bc:	f8a3 c01a 	strh.w	ip, [r3, #26]
F:\AT32-workspace\AT32F403ACGU7_clone_windows_desktop_virtual_com_port\Release/../usbd_drivers/usbd_core.c:321
  ept_info->last_len = trs_len;
 80007c0:	849e      	strh	r6, [r3, #36]	; 0x24
F:\AT32-workspace\AT32F403ACGU7_clone_windows_desktop_virtual_com_port\Release/../usbd_drivers/usbd_core.c:323
  if(ept_info->is_double_buffer == 0)
 80007c2:	b351      	cbz	r1, 800081a <usbd_ctrl_send+0x9a>
F:\AT32-workspace\AT32F403ACGU7_clone_windows_desktop_virtual_com_port\Release/../usbd_drivers/usbd_core.c:333
    /* set send data length */
    USB_SET_TXLEN((ept_addr & 0x7F), trs_len);
  }
  else
  {
    if(usbx->ept_bit[ept_addr & 0x7F].txdts)
 80007c4:	6821      	ldr	r1, [r4, #0]
F:\AT32-workspace\AT32F403ACGU7_clone_windows_desktop_virtual_com_port\Release/../usbd_drivers/usbd_core.c:335
    {
      USB_SET_EPT_DOUBLE_BUF1_LEN((ept_addr & 0x7F), trs_len, DATA_TRANS_IN);
 80007c6:	4c1b      	ldr	r4, [pc, #108]	; (8000834 <usbd_ctrl_send+0xb4>)
F:\AT32-workspace\AT32F403ACGU7_clone_windows_desktop_virtual_com_port\Release/../usbd_drivers/usbd_core.c:333
    if(usbx->ept_bit[ept_addr & 0x7F].txdts)
 80007c8:	f011 0f40 	tst.w	r1, #64	; 0x40
F:\AT32-workspace\AT32F403ACGU7_clone_windows_desktop_virtual_com_port\Release/../usbd_drivers/usbd_core.c:335
      USB_SET_EPT_DOUBLE_BUF1_LEN((ept_addr & 0x7F), trs_len, DATA_TRANS_IN);
 80007cc:	6d24      	ldr	r4, [r4, #80]	; 0x50
 80007ce:	491a      	ldr	r1, [pc, #104]	; (8000838 <usbd_ctrl_send+0xb8>)
 80007d0:	bf18      	it	ne
 80007d2:	3406      	addne	r4, #6
 80007d4:	680d      	ldr	r5, [r1, #0]
F:\AT32-workspace\AT32F403ACGU7_clone_windows_desktop_virtual_com_port\Release/../usbd_drivers/usbd_core.c:336
      usb_write_packet(ept_info->trans_buf, ept_info->rx_addr, trs_len);
 80007d6:	bf12      	itee	ne
 80007d8:	8a59      	ldrhne	r1, [r3, #18]
F:\AT32-workspace\AT32F403ACGU7_clone_windows_desktop_virtual_com_port\Release/../usbd_drivers/usbd_core.c:341
    }
    else
    {
      USB_SET_EPT_DOUBLE_BUF0_LEN((ept_addr & 0x7F), trs_len, DATA_TRANS_IN);
      usb_write_packet(ept_info->trans_buf, ept_info->tx_addr, trs_len);
 80007da:	8a19      	ldrheq	r1, [r3, #16]
F:\AT32-workspace\AT32F403ACGU7_clone_windows_desktop_virtual_com_port\Release/../usbd_drivers/usbd_core.c:340
      USB_SET_EPT_DOUBLE_BUF0_LEN((ept_addr & 0x7F), trs_len, DATA_TRANS_IN);
 80007dc:	3402      	addeq	r4, #2
F:\AT32-workspace\AT32F403ACGU7_clone_windows_desktop_virtual_com_port\Release/../usbd_drivers/usbd_core.c:341
      usb_write_packet(ept_info->trans_buf, ept_info->tx_addr, trs_len);
 80007de:	4632      	mov	r2, r6
F:\AT32-workspace\AT32F403ACGU7_clone_windows_desktop_virtual_com_port\Release/../usbd_drivers/usbd_core.c:340
      USB_SET_EPT_DOUBLE_BUF0_LEN((ept_addr & 0x7F), trs_len, DATA_TRANS_IN);
 80007e0:	f845 6014 	str.w	r6, [r5, r4, lsl #1]
F:\AT32-workspace\AT32F403ACGU7_clone_windows_desktop_virtual_com_port\Release/../usbd_drivers/usbd_core.c:341
      usb_write_packet(ept_info->trans_buf, ept_info->tx_addr, trs_len);
 80007e4:	f001 feb8 	bl	8002558 <usb_write_packet>
F:\AT32-workspace\AT32F403ACGU7_clone_windows_desktop_virtual_com_port\Release/../usbd_drivers/usbd_core.c:343
    }
    USB_FREE_DB_USER_BUFFER((ept_addr & 0x7F), DATA_TRANS_IN);
 80007e8:	4a12      	ldr	r2, [pc, #72]	; (8000834 <usbd_ctrl_send+0xb4>)
 80007ea:	6813      	ldr	r3, [r2, #0]
 80007ec:	f640 710f 	movw	r1, #3855	; 0xf0f
 80007f0:	400b      	ands	r3, r1
 80007f2:	f443 4340 	orr.w	r3, r3, #49152	; 0xc000
 80007f6:	f043 0380 	orr.w	r3, r3, #128	; 0x80
 80007fa:	6013      	str	r3, [r2, #0]
F:\AT32-workspace\AT32F403ACGU7_clone_windows_desktop_virtual_com_port\Release/../usbd_drivers/usbd_core.c:347
  }

  /* set tx status valid */
  USB_SET_TXSTS((ept_addr & 0x7F), USB_TX_VALID);
 80007fc:	4a0d      	ldr	r2, [pc, #52]	; (8000834 <usbd_ctrl_send+0xb4>)
 80007fe:	6813      	ldr	r3, [r2, #0]
 8000800:	f423 43e0 	bic.w	r3, r3, #28672	; 0x7000
 8000804:	f023 0340 	bic.w	r3, r3, #64	; 0x40
 8000808:	b29b      	uxth	r3, r3
 800080a:	f083 0330 	eor.w	r3, r3, #48	; 0x30
 800080e:	f443 4300 	orr.w	r3, r3, #32768	; 0x8000
 8000812:	f043 0380 	orr.w	r3, r3, #128	; 0x80
 8000816:	6013      	str	r3, [r2, #0]
usbd_ctrl_send():
F:\AT32-workspace\AT32F403ACGU7_clone_windows_desktop_virtual_com_port\Release/../usbd_drivers/usbd_core.c:182
}
 8000818:	bd70      	pop	{r4, r5, r6, pc}
usbd_ept_send():
F:\AT32-workspace\AT32F403ACGU7_clone_windows_desktop_virtual_com_port\Release/../usbd_drivers/usbd_core.c:326
    usb_write_packet(ept_info->trans_buf, ept_info->tx_addr, trs_len);
 800081a:	8a19      	ldrh	r1, [r3, #16]
 800081c:	4632      	mov	r2, r6
 800081e:	f001 fe9b 	bl	8002558 <usb_write_packet>
F:\AT32-workspace\AT32F403ACGU7_clone_windows_desktop_virtual_com_port\Release/../usbd_drivers/usbd_core.c:329
    USB_SET_TXLEN((ept_addr & 0x7F), trs_len);
 8000822:	4b04      	ldr	r3, [pc, #16]	; (8000834 <usbd_ctrl_send+0xb4>)
 8000824:	4904      	ldr	r1, [pc, #16]	; (8000838 <usbd_ctrl_send+0xb8>)
 8000826:	6d1b      	ldr	r3, [r3, #80]	; 0x50
 8000828:	6809      	ldr	r1, [r1, #0]
 800082a:	3302      	adds	r3, #2
 800082c:	f841 6013 	str.w	r6, [r1, r3, lsl #1]
 8000830:	e7e4      	b.n	80007fc <usbd_ctrl_send+0x7c>
 8000832:	bf00      	nop
 8000834:	40005c00 	.word	0x40005c00
 8000838:	20000004 	.word	0x20000004

0800083c <usbd_ctrl_recv>:
usbd_ept_recv():
F:\AT32-workspace\AT32F403ACGU7_clone_windows_desktop_virtual_com_port\Release/../usbd_drivers/usbd_core.c:369
   /* set receive data buffer and length */
  ept_info->trans_buf = buffer;
  ept_info->total_len = len;
  ept_info->trans_len = 0;

  if(ept_info->total_len > ept_info->maxpacket)
 800083c:	f8b0 c114 	ldrh.w	ip, [r0, #276]	; 0x114
F:\AT32-workspace\AT32F403ACGU7_clone_windows_desktop_virtual_com_port\Release/../usbd_drivers/usbd_core.c:365
  ept_info->trans_buf = buffer;
 8000840:	f8c0 1120 	str.w	r1, [r0, #288]	; 0x120
usbd_ctrl_recv():
F:\AT32-workspace\AT32F403ACGU7_clone_windows_desktop_virtual_com_port\Release/../usbd_drivers/usbd_core.c:197
  ept_info->rem0_len = len;
 8000844:	2300      	movs	r3, #0
 8000846:	f362 030f 	bfi	r3, r2, #0, #16
 800084a:	f362 431f 	bfi	r3, r2, #16, #16
usbd_ept_recv():
F:\AT32-workspace\AT32F403ACGU7_clone_windows_desktop_virtual_com_port\Release/../usbd_drivers/usbd_core.c:369
  if(ept_info->total_len > ept_info->maxpacket)
 800084e:	4562      	cmp	r2, ip
usbd_ctrl_recv():
F:\AT32-workspace\AT32F403ACGU7_clone_windows_desktop_virtual_com_port\Release/../usbd_drivers/usbd_core.c:197
  ept_info->rem0_len = len;
 8000850:	f8c0 3126 	str.w	r3, [r0, #294]	; 0x126
usbd_ept_recv():
F:\AT32-workspace\AT32F403ACGU7_clone_windows_desktop_virtual_com_port\Release/../usbd_drivers/usbd_core.c:372
  {
    trs_len = ept_info->maxpacket;
    ept_info->total_len -= trs_len;
 8000854:	bf88      	it	hi
 8000856:	eba2 020c 	subhi.w	r2, r2, ip
F:\AT32-workspace\AT32F403ACGU7_clone_windows_desktop_virtual_com_port\Release/../usbd_drivers/usbd_core.c:367
  ept_info->trans_len = 0;
 800085a:	f04f 0300 	mov.w	r3, #0
 800085e:	f8a0 311c 	strh.w	r3, [r0, #284]	; 0x11c
usbd_ctrl_recv():
F:\AT32-workspace\AT32F403ACGU7_clone_windows_desktop_virtual_com_port\Release/../usbd_drivers/usbd_core.c:193
{
 8000862:	b500      	push	{lr}
usbd_ept_recv():
F:\AT32-workspace\AT32F403ACGU7_clone_windows_desktop_virtual_com_port\Release/../usbd_drivers/usbd_core.c:372
    ept_info->total_len -= trs_len;
 8000864:	bf88      	it	hi
 8000866:	b293      	uxthhi	r3, r2
usbd_ctrl_recv():
F:\AT32-workspace\AT32F403ACGU7_clone_windows_desktop_virtual_com_port\Release/../usbd_drivers/usbd_core.c:198
  udev->ept0_sts = USB_EPT0_DATA_OUT;
 8000868:	f04f 0e03 	mov.w	lr, #3
usbd_ept_recv():
F:\AT32-workspace\AT32F403ACGU7_clone_windows_desktop_virtual_com_port\Release/../usbd_drivers/usbd_core.c:381
    trs_len = len;
    ept_info->total_len = 0;
  }

  /* set rx status valid */
  USB_SET_RXSTS((ept_addr & 0x7F), USB_RX_VALID);
 800086c:	4a09      	ldr	r2, [pc, #36]	; (8000894 <usbd_ctrl_recv+0x58>)
usbd_ctrl_recv():
F:\AT32-workspace\AT32F403ACGU7_clone_windows_desktop_virtual_com_port\Release/../usbd_drivers/usbd_core.c:198
  udev->ept0_sts = USB_EPT0_DATA_OUT;
 800086e:	f880 e220 	strb.w	lr, [r0, #544]	; 0x220
 8000872:	f8a0 311a 	strh.w	r3, [r0, #282]	; 0x11a
usbd_ept_recv():
F:\AT32-workspace\AT32F403ACGU7_clone_windows_desktop_virtual_com_port\Release/../usbd_drivers/usbd_core.c:381
  USB_SET_RXSTS((ept_addr & 0x7F), USB_RX_VALID);
 8000876:	6813      	ldr	r3, [r2, #0]
 8000878:	f423 4380 	bic.w	r3, r3, #16384	; 0x4000
 800087c:	f023 0370 	bic.w	r3, r3, #112	; 0x70
 8000880:	b29b      	uxth	r3, r3
 8000882:	f483 5340 	eor.w	r3, r3, #12288	; 0x3000
 8000886:	f443 4300 	orr.w	r3, r3, #32768	; 0x8000
 800088a:	f043 0380 	orr.w	r3, r3, #128	; 0x80
 800088e:	6013      	str	r3, [r2, #0]
usbd_ctrl_recv():
F:\AT32-workspace\AT32F403ACGU7_clone_windows_desktop_virtual_com_port\Release/../usbd_drivers/usbd_core.c:201
}
 8000890:	f85d fb04 	ldr.w	pc, [sp], #4
 8000894:	40005c00 	.word	0x40005c00

08000898 <usbd_ctrl_send_status>:
usbd_ctrl_send_status():
F:\AT32-workspace\AT32F403ACGU7_clone_windows_desktop_virtual_com_port\Release/../usbd_drivers/usbd_core.c:209
{
 8000898:	b510      	push	{r4, lr}
usbd_ept_send():
F:\AT32-workspace\AT32F403ACGU7_clone_windows_desktop_virtual_com_port\Release/../usbd_drivers/usbd_core.c:323
  if(ept_info->is_double_buffer == 0)
 800089a:	7d84      	ldrb	r4, [r0, #22]
F:\AT32-workspace\AT32F403ACGU7_clone_windows_desktop_virtual_com_port\Release/../usbd_drivers/usbd_core.c:303
  usbd_type *usbx = udev->usb_reg;
 800089c:	6801      	ldr	r1, [r0, #0]
F:\AT32-workspace\AT32F403ACGU7_clone_windows_desktop_virtual_com_port\Release/../usbd_drivers/usbd_core.c:306
  ept_info->trans_buf = buffer;
 800089e:	2300      	movs	r3, #0
usbd_ctrl_send_status():
F:\AT32-workspace\AT32F403ACGU7_clone_windows_desktop_virtual_com_port\Release/../usbd_drivers/usbd_core.c:210
  udev->ept0_sts = USB_EPT0_STATUS_IN;
 80008a0:	2204      	movs	r2, #4
 80008a2:	f880 2220 	strb.w	r2, [r0, #544]	; 0x220
usbd_ept_send():
F:\AT32-workspace\AT32F403ACGU7_clone_windows_desktop_virtual_com_port\Release/../usbd_drivers/usbd_core.c:306
  ept_info->trans_buf = buffer;
 80008a6:	6203      	str	r3, [r0, #32]
F:\AT32-workspace\AT32F403ACGU7_clone_windows_desktop_virtual_com_port\Release/../usbd_drivers/usbd_core.c:318
    ept_info->total_len = 0;
 80008a8:	f8c0 301a 	str.w	r3, [r0, #26]
F:\AT32-workspace\AT32F403ACGU7_clone_windows_desktop_virtual_com_port\Release/../usbd_drivers/usbd_core.c:321
  ept_info->last_len = trs_len;
 80008ac:	8483      	strh	r3, [r0, #36]	; 0x24
F:\AT32-workspace\AT32F403ACGU7_clone_windows_desktop_virtual_com_port\Release/../usbd_drivers/usbd_core.c:323
  if(ept_info->is_double_buffer == 0)
 80008ae:	2c00      	cmp	r4, #0
 80008b0:	d035      	beq.n	800091e <usbd_ctrl_send_status+0x86>
F:\AT32-workspace\AT32F403ACGU7_clone_windows_desktop_virtual_com_port\Release/../usbd_drivers/usbd_core.c:333
    if(usbx->ept_bit[ept_addr & 0x7F].txdts)
 80008b2:	6809      	ldr	r1, [r1, #0]
 80008b4:	f3c1 1280 	ubfx	r2, r1, #6, #1
 80008b8:	0649      	lsls	r1, r1, #25
 80008ba:	d423      	bmi.n	8000904 <usbd_ctrl_send_status+0x6c>
F:\AT32-workspace\AT32F403ACGU7_clone_windows_desktop_virtual_com_port\Release/../usbd_drivers/usbd_core.c:340
      USB_SET_EPT_DOUBLE_BUF0_LEN((ept_addr & 0x7F), trs_len, DATA_TRANS_IN);
 80008bc:	4b1e      	ldr	r3, [pc, #120]	; (8000938 <usbd_ctrl_send_status+0xa0>)
 80008be:	491f      	ldr	r1, [pc, #124]	; (800093c <usbd_ctrl_send_status+0xa4>)
 80008c0:	6d1b      	ldr	r3, [r3, #80]	; 0x50
 80008c2:	680c      	ldr	r4, [r1, #0]
F:\AT32-workspace\AT32F403ACGU7_clone_windows_desktop_virtual_com_port\Release/../usbd_drivers/usbd_core.c:341
      usb_write_packet(ept_info->trans_buf, ept_info->tx_addr, trs_len);
 80008c4:	8a01      	ldrh	r1, [r0, #16]
F:\AT32-workspace\AT32F403ACGU7_clone_windows_desktop_virtual_com_port\Release/../usbd_drivers/usbd_core.c:340
      USB_SET_EPT_DOUBLE_BUF0_LEN((ept_addr & 0x7F), trs_len, DATA_TRANS_IN);
 80008c6:	3302      	adds	r3, #2
F:\AT32-workspace\AT32F403ACGU7_clone_windows_desktop_virtual_com_port\Release/../usbd_drivers/usbd_core.c:341
      usb_write_packet(ept_info->trans_buf, ept_info->tx_addr, trs_len);
 80008c8:	4610      	mov	r0, r2
F:\AT32-workspace\AT32F403ACGU7_clone_windows_desktop_virtual_com_port\Release/../usbd_drivers/usbd_core.c:340
      USB_SET_EPT_DOUBLE_BUF0_LEN((ept_addr & 0x7F), trs_len, DATA_TRANS_IN);
 80008ca:	f844 2013 	str.w	r2, [r4, r3, lsl #1]
F:\AT32-workspace\AT32F403ACGU7_clone_windows_desktop_virtual_com_port\Release/../usbd_drivers/usbd_core.c:341
      usb_write_packet(ept_info->trans_buf, ept_info->tx_addr, trs_len);
 80008ce:	f001 fe43 	bl	8002558 <usb_write_packet>
F:\AT32-workspace\AT32F403ACGU7_clone_windows_desktop_virtual_com_port\Release/../usbd_drivers/usbd_core.c:343
    USB_FREE_DB_USER_BUFFER((ept_addr & 0x7F), DATA_TRANS_IN);
 80008d2:	4a19      	ldr	r2, [pc, #100]	; (8000938 <usbd_ctrl_send_status+0xa0>)
 80008d4:	6813      	ldr	r3, [r2, #0]
 80008d6:	f640 710f 	movw	r1, #3855	; 0xf0f
 80008da:	400b      	ands	r3, r1
 80008dc:	f443 4340 	orr.w	r3, r3, #49152	; 0xc000
 80008e0:	f043 0380 	orr.w	r3, r3, #128	; 0x80
 80008e4:	6013      	str	r3, [r2, #0]
F:\AT32-workspace\AT32F403ACGU7_clone_windows_desktop_virtual_com_port\Release/../usbd_drivers/usbd_core.c:347
  USB_SET_TXSTS((ept_addr & 0x7F), USB_TX_VALID);
 80008e6:	4a14      	ldr	r2, [pc, #80]	; (8000938 <usbd_ctrl_send_status+0xa0>)
 80008e8:	6813      	ldr	r3, [r2, #0]
 80008ea:	f423 43e0 	bic.w	r3, r3, #28672	; 0x7000
 80008ee:	f023 0340 	bic.w	r3, r3, #64	; 0x40
 80008f2:	b29b      	uxth	r3, r3
 80008f4:	f083 0330 	eor.w	r3, r3, #48	; 0x30
 80008f8:	f443 4300 	orr.w	r3, r3, #32768	; 0x8000
 80008fc:	f043 0380 	orr.w	r3, r3, #128	; 0x80
 8000900:	6013      	str	r3, [r2, #0]
usbd_ctrl_send_status():
F:\AT32-workspace\AT32F403ACGU7_clone_windows_desktop_virtual_com_port\Release/../usbd_drivers/usbd_core.c:213
}
 8000902:	bd10      	pop	{r4, pc}
usbd_ept_send():
F:\AT32-workspace\AT32F403ACGU7_clone_windows_desktop_virtual_com_port\Release/../usbd_drivers/usbd_core.c:335
      USB_SET_EPT_DOUBLE_BUF1_LEN((ept_addr & 0x7F), trs_len, DATA_TRANS_IN);
 8000904:	4a0c      	ldr	r2, [pc, #48]	; (8000938 <usbd_ctrl_send_status+0xa0>)
 8000906:	490d      	ldr	r1, [pc, #52]	; (800093c <usbd_ctrl_send_status+0xa4>)
 8000908:	6d12      	ldr	r2, [r2, #80]	; 0x50
 800090a:	680c      	ldr	r4, [r1, #0]
F:\AT32-workspace\AT32F403ACGU7_clone_windows_desktop_virtual_com_port\Release/../usbd_drivers/usbd_core.c:336
      usb_write_packet(ept_info->trans_buf, ept_info->rx_addr, trs_len);
 800090c:	8a41      	ldrh	r1, [r0, #18]
F:\AT32-workspace\AT32F403ACGU7_clone_windows_desktop_virtual_com_port\Release/../usbd_drivers/usbd_core.c:335
      USB_SET_EPT_DOUBLE_BUF1_LEN((ept_addr & 0x7F), trs_len, DATA_TRANS_IN);
 800090e:	3206      	adds	r2, #6
F:\AT32-workspace\AT32F403ACGU7_clone_windows_desktop_virtual_com_port\Release/../usbd_drivers/usbd_core.c:336
      usb_write_packet(ept_info->trans_buf, ept_info->rx_addr, trs_len);
 8000910:	4618      	mov	r0, r3
F:\AT32-workspace\AT32F403ACGU7_clone_windows_desktop_virtual_com_port\Release/../usbd_drivers/usbd_core.c:335
      USB_SET_EPT_DOUBLE_BUF1_LEN((ept_addr & 0x7F), trs_len, DATA_TRANS_IN);
 8000912:	f844 3012 	str.w	r3, [r4, r2, lsl #1]
F:\AT32-workspace\AT32F403ACGU7_clone_windows_desktop_virtual_com_port\Release/../usbd_drivers/usbd_core.c:336
      usb_write_packet(ept_info->trans_buf, ept_info->rx_addr, trs_len);
 8000916:	461a      	mov	r2, r3
 8000918:	f001 fe1e 	bl	8002558 <usb_write_packet>
 800091c:	e7d9      	b.n	80008d2 <usbd_ctrl_send_status+0x3a>
F:\AT32-workspace\AT32F403ACGU7_clone_windows_desktop_virtual_com_port\Release/../usbd_drivers/usbd_core.c:326
    usb_write_packet(ept_info->trans_buf, ept_info->tx_addr, trs_len);
 800091e:	8a01      	ldrh	r1, [r0, #16]
 8000920:	4622      	mov	r2, r4
 8000922:	4620      	mov	r0, r4
 8000924:	f001 fe18 	bl	8002558 <usb_write_packet>
F:\AT32-workspace\AT32F403ACGU7_clone_windows_desktop_virtual_com_port\Release/../usbd_drivers/usbd_core.c:329
    USB_SET_TXLEN((ept_addr & 0x7F), trs_len);
 8000928:	4b03      	ldr	r3, [pc, #12]	; (8000938 <usbd_ctrl_send_status+0xa0>)
 800092a:	4a04      	ldr	r2, [pc, #16]	; (800093c <usbd_ctrl_send_status+0xa4>)
 800092c:	6d1b      	ldr	r3, [r3, #80]	; 0x50
 800092e:	6812      	ldr	r2, [r2, #0]
 8000930:	3302      	adds	r3, #2
 8000932:	f842 4013 	str.w	r4, [r2, r3, lsl #1]
 8000936:	e7d6      	b.n	80008e6 <usbd_ctrl_send_status+0x4e>
 8000938:	40005c00 	.word	0x40005c00
 800093c:	20000004 	.word	0x20000004

08000940 <usbd_clear_stall>:
usbd_clear_stall():
F:\AT32-workspace\AT32F403ACGU7_clone_windows_desktop_virtual_com_port\Release/../usbd_drivers/usbd_core.c:237
  if(ept_addr & 0x80)
 8000940:	060b      	lsls	r3, r1, #24
 8000942:	d419      	bmi.n	8000978 <usbd_clear_stall+0x38>
F:\AT32-workspace\AT32F403ACGU7_clone_windows_desktop_virtual_com_port\Release/../usbd_drivers/usbd_core.c:247
    USB_SET_RXSTS(ept_info->eptn, USB_RX_VALID);
 8000944:	eb00 1341 	add.w	r3, r0, r1, lsl #5
 8000948:	4a19      	ldr	r2, [pc, #100]	; (80009b0 <usbd_clear_stall+0x70>)
 800094a:	f893 c10c 	ldrb.w	ip, [r3, #268]	; 0x10c
F:\AT32-workspace\AT32F403ACGU7_clone_windows_desktop_virtual_com_port\Release/../usbd_drivers/usbd_core.c:246
    ept_info = &udev->ept_out[ept_addr & 0x7F];
 800094e:	4618      	mov	r0, r3
F:\AT32-workspace\AT32F403ACGU7_clone_windows_desktop_virtual_com_port\Release/../usbd_drivers/usbd_core.c:247
    USB_SET_RXSTS(ept_info->eptn, USB_RX_VALID);
 8000950:	f852 302c 	ldr.w	r3, [r2, ip, lsl #2]
 8000954:	f423 4380 	bic.w	r3, r3, #16384	; 0x4000
 8000958:	f023 0370 	bic.w	r3, r3, #112	; 0x70
 800095c:	b29b      	uxth	r3, r3
 800095e:	f483 5340 	eor.w	r3, r3, #12288	; 0x3000
 8000962:	f443 4300 	orr.w	r3, r3, #32768	; 0x8000
 8000966:	f043 0380 	orr.w	r3, r3, #128	; 0x80
F:\AT32-workspace\AT32F403ACGU7_clone_windows_desktop_virtual_com_port\Release/../usbd_drivers/usbd_core.c:246
    ept_info = &udev->ept_out[ept_addr & 0x7F];
 800096a:	f500 7086 	add.w	r0, r0, #268	; 0x10c
F:\AT32-workspace\AT32F403ACGU7_clone_windows_desktop_virtual_com_port\Release/../usbd_drivers/usbd_core.c:247
    USB_SET_RXSTS(ept_info->eptn, USB_RX_VALID);
 800096e:	f842 302c 	str.w	r3, [r2, ip, lsl #2]
F:\AT32-workspace\AT32F403ACGU7_clone_windows_desktop_virtual_com_port\Release/../usbd_drivers/usbd_core.c:249
  ept_info->stall = 0;
 8000972:	2300      	movs	r3, #0
 8000974:	72c3      	strb	r3, [r0, #11]
F:\AT32-workspace\AT32F403ACGU7_clone_windows_desktop_virtual_com_port\Release/../usbd_drivers/usbd_core.c:250
}
 8000976:	4770      	bx	lr
F:\AT32-workspace\AT32F403ACGU7_clone_windows_desktop_virtual_com_port\Release/../usbd_drivers/usbd_core.c:240
    ept_info = &udev->ept_in[ept_addr & 0x7F];
 8000978:	f001 017f 	and.w	r1, r1, #127	; 0x7f
F:\AT32-workspace\AT32F403ACGU7_clone_windows_desktop_virtual_com_port\Release/../usbd_drivers/usbd_core.c:241
    USB_SET_TXSTS(ept_info->eptn, USB_TX_VALID);
 800097c:	eb00 1341 	add.w	r3, r0, r1, lsl #5
 8000980:	4a0b      	ldr	r2, [pc, #44]	; (80009b0 <usbd_clear_stall+0x70>)
 8000982:	f893 c00c 	ldrb.w	ip, [r3, #12]
F:\AT32-workspace\AT32F403ACGU7_clone_windows_desktop_virtual_com_port\Release/../usbd_drivers/usbd_core.c:240
    ept_info = &udev->ept_in[ept_addr & 0x7F];
 8000986:	4618      	mov	r0, r3
F:\AT32-workspace\AT32F403ACGU7_clone_windows_desktop_virtual_com_port\Release/../usbd_drivers/usbd_core.c:241
    USB_SET_TXSTS(ept_info->eptn, USB_TX_VALID);
 8000988:	f852 302c 	ldr.w	r3, [r2, ip, lsl #2]
 800098c:	f423 43e0 	bic.w	r3, r3, #28672	; 0x7000
 8000990:	f023 0340 	bic.w	r3, r3, #64	; 0x40
 8000994:	b29b      	uxth	r3, r3
 8000996:	f083 0330 	eor.w	r3, r3, #48	; 0x30
 800099a:	f443 4300 	orr.w	r3, r3, #32768	; 0x8000
 800099e:	f043 0380 	orr.w	r3, r3, #128	; 0x80
F:\AT32-workspace\AT32F403ACGU7_clone_windows_desktop_virtual_com_port\Release/../usbd_drivers/usbd_core.c:240
    ept_info = &udev->ept_in[ept_addr & 0x7F];
 80009a2:	300c      	adds	r0, #12
F:\AT32-workspace\AT32F403ACGU7_clone_windows_desktop_virtual_com_port\Release/../usbd_drivers/usbd_core.c:241
    USB_SET_TXSTS(ept_info->eptn, USB_TX_VALID);
 80009a4:	f842 302c 	str.w	r3, [r2, ip, lsl #2]
F:\AT32-workspace\AT32F403ACGU7_clone_windows_desktop_virtual_com_port\Release/../usbd_drivers/usbd_core.c:249
  ept_info->stall = 0;
 80009a8:	2300      	movs	r3, #0
 80009aa:	72c3      	strb	r3, [r0, #11]
F:\AT32-workspace\AT32F403ACGU7_clone_windows_desktop_virtual_com_port\Release/../usbd_drivers/usbd_core.c:250
}
 80009ac:	4770      	bx	lr
 80009ae:	bf00      	nop
 80009b0:	40005c00 	.word	0x40005c00

080009b4 <usbd_set_stall>:
usbd_set_stall():
F:\AT32-workspace\AT32F403ACGU7_clone_windows_desktop_virtual_com_port\Release/../usbd_drivers/usbd_core.c:262
  if(ept_addr & 0x80)
 80009b4:	060b      	lsls	r3, r1, #24
 80009b6:	d419      	bmi.n	80009ec <usbd_set_stall+0x38>
F:\AT32-workspace\AT32F403ACGU7_clone_windows_desktop_virtual_com_port\Release/../usbd_drivers/usbd_core.c:272
    USB_SET_RXSTS(ept_info->eptn, USB_RX_STALL)
 80009b8:	eb00 1341 	add.w	r3, r0, r1, lsl #5
 80009bc:	4a19      	ldr	r2, [pc, #100]	; (8000a24 <usbd_set_stall+0x70>)
 80009be:	f893 c10c 	ldrb.w	ip, [r3, #268]	; 0x10c
F:\AT32-workspace\AT32F403ACGU7_clone_windows_desktop_virtual_com_port\Release/../usbd_drivers/usbd_core.c:271
    ept_info = &udev->ept_out[ept_addr & 0x7F];
 80009c2:	4618      	mov	r0, r3
F:\AT32-workspace\AT32F403ACGU7_clone_windows_desktop_virtual_com_port\Release/../usbd_drivers/usbd_core.c:272
    USB_SET_RXSTS(ept_info->eptn, USB_RX_STALL)
 80009c4:	f852 302c 	ldr.w	r3, [r2, ip, lsl #2]
 80009c8:	f423 4380 	bic.w	r3, r3, #16384	; 0x4000
 80009cc:	f023 0370 	bic.w	r3, r3, #112	; 0x70
 80009d0:	b29b      	uxth	r3, r3
 80009d2:	f483 5380 	eor.w	r3, r3, #4096	; 0x1000
 80009d6:	f443 4300 	orr.w	r3, r3, #32768	; 0x8000
 80009da:	f043 0380 	orr.w	r3, r3, #128	; 0x80
F:\AT32-workspace\AT32F403ACGU7_clone_windows_desktop_virtual_com_port\Release/../usbd_drivers/usbd_core.c:271
    ept_info = &udev->ept_out[ept_addr & 0x7F];
 80009de:	f500 7086 	add.w	r0, r0, #268	; 0x10c
F:\AT32-workspace\AT32F403ACGU7_clone_windows_desktop_virtual_com_port\Release/../usbd_drivers/usbd_core.c:272
    USB_SET_RXSTS(ept_info->eptn, USB_RX_STALL)
 80009e2:	f842 302c 	str.w	r3, [r2, ip, lsl #2]
F:\AT32-workspace\AT32F403ACGU7_clone_windows_desktop_virtual_com_port\Release/../usbd_drivers/usbd_core.c:275
  ept_info->stall = 1;
 80009e6:	2301      	movs	r3, #1
 80009e8:	72c3      	strb	r3, [r0, #11]
F:\AT32-workspace\AT32F403ACGU7_clone_windows_desktop_virtual_com_port\Release/../usbd_drivers/usbd_core.c:276
}
 80009ea:	4770      	bx	lr
F:\AT32-workspace\AT32F403ACGU7_clone_windows_desktop_virtual_com_port\Release/../usbd_drivers/usbd_core.c:265
    ept_info = &udev->ept_in[ept_addr & 0x7F];
 80009ec:	f001 017f 	and.w	r1, r1, #127	; 0x7f
F:\AT32-workspace\AT32F403ACGU7_clone_windows_desktop_virtual_com_port\Release/../usbd_drivers/usbd_core.c:266
    USB_SET_TXSTS(ept_info->eptn, USB_TX_STALL);
 80009f0:	eb00 1341 	add.w	r3, r0, r1, lsl #5
 80009f4:	4a0b      	ldr	r2, [pc, #44]	; (8000a24 <usbd_set_stall+0x70>)
 80009f6:	f893 c00c 	ldrb.w	ip, [r3, #12]
F:\AT32-workspace\AT32F403ACGU7_clone_windows_desktop_virtual_com_port\Release/../usbd_drivers/usbd_core.c:265
    ept_info = &udev->ept_in[ept_addr & 0x7F];
 80009fa:	4618      	mov	r0, r3
F:\AT32-workspace\AT32F403ACGU7_clone_windows_desktop_virtual_com_port\Release/../usbd_drivers/usbd_core.c:266
    USB_SET_TXSTS(ept_info->eptn, USB_TX_STALL);
 80009fc:	f852 302c 	ldr.w	r3, [r2, ip, lsl #2]
 8000a00:	f423 43e0 	bic.w	r3, r3, #28672	; 0x7000
 8000a04:	f023 0340 	bic.w	r3, r3, #64	; 0x40
 8000a08:	b29b      	uxth	r3, r3
 8000a0a:	f083 0310 	eor.w	r3, r3, #16
 8000a0e:	f443 4300 	orr.w	r3, r3, #32768	; 0x8000
 8000a12:	f043 0380 	orr.w	r3, r3, #128	; 0x80
F:\AT32-workspace\AT32F403ACGU7_clone_windows_desktop_virtual_com_port\Release/../usbd_drivers/usbd_core.c:265
    ept_info = &udev->ept_in[ept_addr & 0x7F];
 8000a16:	300c      	adds	r0, #12
F:\AT32-workspace\AT32F403ACGU7_clone_windows_desktop_virtual_com_port\Release/../usbd_drivers/usbd_core.c:266
    USB_SET_TXSTS(ept_info->eptn, USB_TX_STALL);
 8000a18:	f842 302c 	str.w	r3, [r2, ip, lsl #2]
F:\AT32-workspace\AT32F403ACGU7_clone_windows_desktop_virtual_com_port\Release/../usbd_drivers/usbd_core.c:275
  ept_info->stall = 1;
 8000a1c:	2301      	movs	r3, #1
 8000a1e:	72c3      	strb	r3, [r0, #11]
F:\AT32-workspace\AT32F403ACGU7_clone_windows_desktop_virtual_com_port\Release/../usbd_drivers/usbd_core.c:276
}
 8000a20:	4770      	bx	lr
 8000a22:	bf00      	nop
 8000a24:	40005c00 	.word	0x40005c00

08000a28 <usbd_ctrl_unsupport>:
F:\AT32-workspace\AT32F403ACGU7_clone_windows_desktop_virtual_com_port\Release/../usbd_drivers/usbd_core.c:272
    USB_SET_RXSTS(ept_info->eptn, USB_RX_STALL)
 8000a28:	4a13      	ldr	r2, [pc, #76]	; (8000a78 <usbd_ctrl_unsupport+0x50>)
 8000a2a:	f890 c10c 	ldrb.w	ip, [r0, #268]	; 0x10c
 8000a2e:	f852 302c 	ldr.w	r3, [r2, ip, lsl #2]
 8000a32:	f423 4380 	bic.w	r3, r3, #16384	; 0x4000
 8000a36:	f023 0370 	bic.w	r3, r3, #112	; 0x70
 8000a3a:	b29b      	uxth	r3, r3
 8000a3c:	f248 0180 	movw	r1, #32896	; 0x8080
 8000a40:	f483 5380 	eor.w	r3, r3, #4096	; 0x1000
 8000a44:	430b      	orrs	r3, r1
usbd_ctrl_unsupport():
F:\AT32-workspace\AT32F403ACGU7_clone_windows_desktop_virtual_com_port\Release/../usbd_drivers/usbd_core.c:284
{
 8000a46:	b500      	push	{lr}
usbd_set_stall():
F:\AT32-workspace\AT32F403ACGU7_clone_windows_desktop_virtual_com_port\Release/../usbd_drivers/usbd_core.c:272
    USB_SET_RXSTS(ept_info->eptn, USB_RX_STALL)
 8000a48:	f842 302c 	str.w	r3, [r2, ip, lsl #2]
F:\AT32-workspace\AT32F403ACGU7_clone_windows_desktop_virtual_com_port\Release/../usbd_drivers/usbd_core.c:266
    USB_SET_TXSTS(ept_info->eptn, USB_TX_STALL);
 8000a4c:	f890 e00c 	ldrb.w	lr, [r0, #12]
F:\AT32-workspace\AT32F403ACGU7_clone_windows_desktop_virtual_com_port\Release/../usbd_drivers/usbd_core.c:275
  ept_info->stall = 1;
 8000a50:	f04f 0c01 	mov.w	ip, #1
 8000a54:	f880 c117 	strb.w	ip, [r0, #279]	; 0x117
F:\AT32-workspace\AT32F403ACGU7_clone_windows_desktop_virtual_com_port\Release/../usbd_drivers/usbd_core.c:266
    USB_SET_TXSTS(ept_info->eptn, USB_TX_STALL);
 8000a58:	f852 302e 	ldr.w	r3, [r2, lr, lsl #2]
 8000a5c:	f423 43e0 	bic.w	r3, r3, #28672	; 0x7000
 8000a60:	f023 0340 	bic.w	r3, r3, #64	; 0x40
 8000a64:	b29b      	uxth	r3, r3
 8000a66:	f083 0310 	eor.w	r3, r3, #16
 8000a6a:	430b      	orrs	r3, r1
 8000a6c:	f842 302e 	str.w	r3, [r2, lr, lsl #2]
F:\AT32-workspace\AT32F403ACGU7_clone_windows_desktop_virtual_com_port\Release/../usbd_drivers/usbd_core.c:275
  ept_info->stall = 1;
 8000a70:	f880 c017 	strb.w	ip, [r0, #23]
usbd_ctrl_unsupport():
F:\AT32-workspace\AT32F403ACGU7_clone_windows_desktop_virtual_com_port\Release/../usbd_drivers/usbd_core.c:288
}
 8000a74:	f85d fb04 	ldr.w	pc, [sp], #4
 8000a78:	40005c00 	.word	0x40005c00

08000a7c <usbd_ept_send>:
usbd_ept_send():
F:\AT32-workspace\AT32F403ACGU7_clone_windows_desktop_virtual_com_port\Release/../usbd_drivers/usbd_core.c:299
{
 8000a7c:	b570      	push	{r4, r5, r6, lr}
 8000a7e:	4684      	mov	ip, r0
 8000a80:	f001 047f 	and.w	r4, r1, #127	; 0x7f
 8000a84:	461d      	mov	r5, r3
F:\AT32-workspace\AT32F403ACGU7_clone_windows_desktop_virtual_com_port\Release/../usbd_drivers/usbd_core.c:306
  ept_info->trans_buf = buffer;
 8000a86:	eb0c 1344 	add.w	r3, ip, r4, lsl #5
F:\AT32-workspace\AT32F403ACGU7_clone_windows_desktop_virtual_com_port\Release/../usbd_drivers/usbd_core.c:303
  usbd_type *usbx = udev->usb_reg;
 8000a8a:	f8dc 6000 	ldr.w	r6, [ip]
F:\AT32-workspace\AT32F403ACGU7_clone_windows_desktop_virtual_com_port\Release/../usbd_drivers/usbd_core.c:306
  ept_info->trans_buf = buffer;
 8000a8e:	621a      	str	r2, [r3, #32]
F:\AT32-workspace\AT32F403ACGU7_clone_windows_desktop_virtual_com_port\Release/../usbd_drivers/usbd_core.c:299
{
 8000a90:	4610      	mov	r0, r2
F:\AT32-workspace\AT32F403ACGU7_clone_windows_desktop_virtual_com_port\Release/../usbd_drivers/usbd_core.c:310
  if(ept_info->total_len > ept_info->maxpacket)
 8000a92:	8a9a      	ldrh	r2, [r3, #20]
F:\AT32-workspace\AT32F403ACGU7_clone_windows_desktop_virtual_com_port\Release/../usbd_drivers/usbd_core.c:308
  ept_info->trans_len = 0;
 8000a94:	2100      	movs	r1, #0
F:\AT32-workspace\AT32F403ACGU7_clone_windows_desktop_virtual_com_port\Release/../usbd_drivers/usbd_core.c:310
  if(ept_info->total_len > ept_info->maxpacket)
 8000a96:	42aa      	cmp	r2, r5
F:\AT32-workspace\AT32F403ACGU7_clone_windows_desktop_virtual_com_port\Release/../usbd_drivers/usbd_core.c:308
  ept_info->trans_len = 0;
 8000a98:	8399      	strh	r1, [r3, #28]
F:\AT32-workspace\AT32F403ACGU7_clone_windows_desktop_virtual_com_port\Release/../usbd_drivers/usbd_core.c:306
  ept_info->trans_buf = buffer;
 8000a9a:	ea4f 1344 	mov.w	r3, r4, lsl #5
F:\AT32-workspace\AT32F403ACGU7_clone_windows_desktop_virtual_com_port\Release/../usbd_drivers/usbd_core.c:310
  if(ept_info->total_len > ept_info->maxpacket)
 8000a9e:	d202      	bcs.n	8000aa6 <usbd_ept_send+0x2a>
F:\AT32-workspace\AT32F403ACGU7_clone_windows_desktop_virtual_com_port\Release/../usbd_drivers/usbd_core.c:313
    ept_info->total_len -= trs_len;
 8000aa0:	1aa9      	subs	r1, r5, r2
 8000aa2:	b289      	uxth	r1, r1
 8000aa4:	4615      	mov	r5, r2
 8000aa6:	4463      	add	r3, ip
F:\AT32-workspace\AT32F403ACGU7_clone_windows_desktop_virtual_com_port\Release/../usbd_drivers/usbd_core.c:321
  ept_info->last_len = trs_len;
 8000aa8:	eb0c 1c44 	add.w	ip, ip, r4, lsl #5
 8000aac:	8359      	strh	r1, [r3, #26]
 8000aae:	f8ac 5024 	strh.w	r5, [ip, #36]	; 0x24
F:\AT32-workspace\AT32F403ACGU7_clone_windows_desktop_virtual_com_port\Release/../usbd_drivers/usbd_core.c:323
  if(ept_info->is_double_buffer == 0)
 8000ab2:	7d9a      	ldrb	r2, [r3, #22]
 8000ab4:	b392      	cbz	r2, 8000b1c <usbd_ept_send+0xa0>
F:\AT32-workspace\AT32F403ACGU7_clone_windows_desktop_virtual_com_port\Release/../usbd_drivers/usbd_core.c:333
    if(usbx->ept_bit[ept_addr & 0x7F].txdts)
 8000ab6:	f856 2024 	ldr.w	r2, [r6, r4, lsl #2]
 8000aba:	f012 0f40 	tst.w	r2, #64	; 0x40
F:\AT32-workspace\AT32F403ACGU7_clone_windows_desktop_virtual_com_port\Release/../usbd_drivers/usbd_core.c:335
      USB_SET_EPT_DOUBLE_BUF1_LEN((ept_addr & 0x7F), trs_len, DATA_TRANS_IN);
 8000abe:	4a1e      	ldr	r2, [pc, #120]	; (8000b38 <usbd_ept_send+0xbc>)
F:\AT32-workspace\AT32F403ACGU7_clone_windows_desktop_virtual_com_port\Release/../usbd_drivers/usbd_core.c:333
    if(usbx->ept_bit[ept_addr & 0x7F].txdts)
 8000ac0:	d128      	bne.n	8000b14 <usbd_ept_send+0x98>
F:\AT32-workspace\AT32F403ACGU7_clone_windows_desktop_virtual_com_port\Release/../usbd_drivers/usbd_core.c:341 (discriminator 2)
      usb_write_packet(ept_info->trans_buf, ept_info->tx_addr, trs_len);
 8000ac2:	8a19      	ldrh	r1, [r3, #16]
F:\AT32-workspace\AT32F403ACGU7_clone_windows_desktop_virtual_com_port\Release/../usbd_drivers/usbd_core.c:340 (discriminator 2)
      USB_SET_EPT_DOUBLE_BUF0_LEN((ept_addr & 0x7F), trs_len, DATA_TRANS_IN);
 8000ac4:	6d13      	ldr	r3, [r2, #80]	; 0x50
 8000ac6:	3302      	adds	r3, #2
 8000ac8:	4a1c      	ldr	r2, [pc, #112]	; (8000b3c <usbd_ept_send+0xc0>)
 8000aca:	eb03 03c4 	add.w	r3, r3, r4, lsl #3
 8000ace:	6812      	ldr	r2, [r2, #0]
 8000ad0:	f842 5013 	str.w	r5, [r2, r3, lsl #1]
F:\AT32-workspace\AT32F403ACGU7_clone_windows_desktop_virtual_com_port\Release/../usbd_drivers/usbd_core.c:341 (discriminator 2)
      usb_write_packet(ept_info->trans_buf, ept_info->tx_addr, trs_len);
 8000ad4:	462a      	mov	r2, r5
 8000ad6:	f001 fd3f 	bl	8002558 <usb_write_packet>
F:\AT32-workspace\AT32F403ACGU7_clone_windows_desktop_virtual_com_port\Release/../usbd_drivers/usbd_core.c:343 (discriminator 2)
    USB_FREE_DB_USER_BUFFER((ept_addr & 0x7F), DATA_TRANS_IN);
 8000ada:	4a17      	ldr	r2, [pc, #92]	; (8000b38 <usbd_ept_send+0xbc>)
 8000adc:	f852 3024 	ldr.w	r3, [r2, r4, lsl #2]
 8000ae0:	f640 710f 	movw	r1, #3855	; 0xf0f
 8000ae4:	400b      	ands	r3, r1
 8000ae6:	f443 4340 	orr.w	r3, r3, #49152	; 0xc000
 8000aea:	f043 0380 	orr.w	r3, r3, #128	; 0x80
 8000aee:	f842 3024 	str.w	r3, [r2, r4, lsl #2]
F:\AT32-workspace\AT32F403ACGU7_clone_windows_desktop_virtual_com_port\Release/../usbd_drivers/usbd_core.c:347 (discriminator 4)
  USB_SET_TXSTS((ept_addr & 0x7F), USB_TX_VALID);
 8000af2:	4a11      	ldr	r2, [pc, #68]	; (8000b38 <usbd_ept_send+0xbc>)
 8000af4:	f852 3024 	ldr.w	r3, [r2, r4, lsl #2]
 8000af8:	f423 43e0 	bic.w	r3, r3, #28672	; 0x7000
 8000afc:	f023 0340 	bic.w	r3, r3, #64	; 0x40
 8000b00:	b29b      	uxth	r3, r3
 8000b02:	f083 0330 	eor.w	r3, r3, #48	; 0x30
 8000b06:	f443 4300 	orr.w	r3, r3, #32768	; 0x8000
 8000b0a:	f043 0380 	orr.w	r3, r3, #128	; 0x80
 8000b0e:	f842 3024 	str.w	r3, [r2, r4, lsl #2]
F:\AT32-workspace\AT32F403ACGU7_clone_windows_desktop_virtual_com_port\Release/../usbd_drivers/usbd_core.c:348 (discriminator 4)
}
 8000b12:	bd70      	pop	{r4, r5, r6, pc}
F:\AT32-workspace\AT32F403ACGU7_clone_windows_desktop_virtual_com_port\Release/../usbd_drivers/usbd_core.c:336 (discriminator 2)
      usb_write_packet(ept_info->trans_buf, ept_info->rx_addr, trs_len);
 8000b14:	8a59      	ldrh	r1, [r3, #18]
F:\AT32-workspace\AT32F403ACGU7_clone_windows_desktop_virtual_com_port\Release/../usbd_drivers/usbd_core.c:335 (discriminator 2)
      USB_SET_EPT_DOUBLE_BUF1_LEN((ept_addr & 0x7F), trs_len, DATA_TRANS_IN);
 8000b16:	6d13      	ldr	r3, [r2, #80]	; 0x50
 8000b18:	3306      	adds	r3, #6
 8000b1a:	e7d5      	b.n	8000ac8 <usbd_ept_send+0x4c>
F:\AT32-workspace\AT32F403ACGU7_clone_windows_desktop_virtual_com_port\Release/../usbd_drivers/usbd_core.c:326
    usb_write_packet(ept_info->trans_buf, ept_info->tx_addr, trs_len);
 8000b1c:	8a19      	ldrh	r1, [r3, #16]
 8000b1e:	462a      	mov	r2, r5
 8000b20:	f001 fd1a 	bl	8002558 <usb_write_packet>
F:\AT32-workspace\AT32F403ACGU7_clone_windows_desktop_virtual_com_port\Release/../usbd_drivers/usbd_core.c:329
    USB_SET_TXLEN((ept_addr & 0x7F), trs_len);
 8000b24:	4b04      	ldr	r3, [pc, #16]	; (8000b38 <usbd_ept_send+0xbc>)
 8000b26:	4a05      	ldr	r2, [pc, #20]	; (8000b3c <usbd_ept_send+0xc0>)
 8000b28:	6d1b      	ldr	r3, [r3, #80]	; 0x50
 8000b2a:	6812      	ldr	r2, [r2, #0]
 8000b2c:	3302      	adds	r3, #2
 8000b2e:	eb03 03c4 	add.w	r3, r3, r4, lsl #3
 8000b32:	f842 5013 	str.w	r5, [r2, r3, lsl #1]
 8000b36:	e7dc      	b.n	8000af2 <usbd_ept_send+0x76>
 8000b38:	40005c00 	.word	0x40005c00
 8000b3c:	20000004 	.word	0x20000004

08000b40 <usbd_core_out_handler>:
usbd_core_out_handler():
F:\AT32-workspace\AT32F403ACGU7_clone_windows_desktop_virtual_com_port\Release/../usbd_drivers/usbd_core.c:98
{
 8000b40:	b510      	push	{r4, lr}
 8000b42:	4604      	mov	r4, r0
F:\AT32-workspace\AT32F403ACGU7_clone_windows_desktop_virtual_com_port\Release/../usbd_drivers/usbd_core.c:102
  if(ept_addr == 0)
 8000b44:	b921      	cbnz	r1, 8000b50 <usbd_core_out_handler+0x10>
F:\AT32-workspace\AT32F403ACGU7_clone_windows_desktop_virtual_com_port\Release/../usbd_drivers/usbd_core.c:105
    if(udev->ept0_sts == USB_EPT0_DATA_OUT)
 8000b46:	f890 2220 	ldrb.w	r2, [r0, #544]	; 0x220
 8000b4a:	2a03      	cmp	r2, #3
 8000b4c:	d00b      	beq.n	8000b66 <usbd_core_out_handler+0x26>
F:\AT32-workspace\AT32F403ACGU7_clone_windows_desktop_virtual_com_port\Release/../usbd_drivers/usbd_core.c:129
}
 8000b4e:	bd10      	pop	{r4, pc}
F:\AT32-workspace\AT32F403ACGU7_clone_windows_desktop_virtual_com_port\Release/../usbd_drivers/usbd_core.c:123
  else if(udev->class_handler->out_handler != 0 &&
 8000b50:	6843      	ldr	r3, [r0, #4]
 8000b52:	699b      	ldr	r3, [r3, #24]
 8000b54:	2b00      	cmp	r3, #0
 8000b56:	d0fa      	beq.n	8000b4e <usbd_core_out_handler+0xe>
F:\AT32-workspace\AT32F403ACGU7_clone_windows_desktop_virtual_com_port\Release/../usbd_drivers/usbd_core.c:123 (discriminator 1)
 8000b58:	f890 2224 	ldrb.w	r2, [r0, #548]	; 0x224
 8000b5c:	2a03      	cmp	r2, #3
 8000b5e:	d1f6      	bne.n	8000b4e <usbd_core_out_handler+0xe>
F:\AT32-workspace\AT32F403ACGU7_clone_windows_desktop_virtual_com_port\Release/../usbd_drivers/usbd_core.c:129
}
 8000b60:	e8bd 4010 	ldmia.w	sp!, {r4, lr}
F:\AT32-workspace\AT32F403ACGU7_clone_windows_desktop_virtual_com_port\Release/../usbd_drivers/usbd_core.c:127
    udev->class_handler->out_handler(udev, ept_addr);
 8000b64:	4718      	bx	r3
F:\AT32-workspace\AT32F403ACGU7_clone_windows_desktop_virtual_com_port\Release/../usbd_drivers/usbd_core.c:107
      if(ept_info->rem0_len > ept_info->maxpacket)
 8000b66:	f8b0 2126 	ldrh.w	r2, [r0, #294]	; 0x126
 8000b6a:	460b      	mov	r3, r1
 8000b6c:	f8b0 1114 	ldrh.w	r1, [r0, #276]	; 0x114
 8000b70:	428a      	cmp	r2, r1
 8000b72:	d91f      	bls.n	8000bb4 <usbd_core_out_handler+0x74>
F:\AT32-workspace\AT32F403ACGU7_clone_windows_desktop_virtual_com_port\Release/../usbd_drivers/usbd_core.c:109
        ept_info->rem0_len -= ept_info->maxpacket;
 8000b74:	1a52      	subs	r2, r2, r1
 8000b76:	b292      	uxth	r2, r2
F:\AT32-workspace\AT32F403ACGU7_clone_windows_desktop_virtual_com_port\Release/../usbd_drivers/usbd_core.c:111
                      MIN(ept_info->rem0_len, ept_info->maxpacket));
 8000b78:	4291      	cmp	r1, r2
 8000b7a:	4608      	mov	r0, r1
 8000b7c:	bf28      	it	cs
 8000b7e:	4610      	movcs	r0, r2
usbd_ept_recv():
F:\AT32-workspace\AT32F403ACGU7_clone_windows_desktop_virtual_com_port\Release/../usbd_drivers/usbd_core.c:369
  if(ept_info->total_len > ept_info->maxpacket)
 8000b80:	4281      	cmp	r1, r0
F:\AT32-workspace\AT32F403ACGU7_clone_windows_desktop_virtual_com_port\Release/../usbd_drivers/usbd_core.c:367
  ept_info->trans_len = 0;
 8000b82:	f8a4 311c 	strh.w	r3, [r4, #284]	; 0x11c
usbd_core_out_handler():
F:\AT32-workspace\AT32F403ACGU7_clone_windows_desktop_virtual_com_port\Release/../usbd_drivers/usbd_core.c:109
        ept_info->rem0_len -= ept_info->maxpacket;
 8000b86:	f8a4 2126 	strh.w	r2, [r4, #294]	; 0x126
usbd_ept_recv():
F:\AT32-workspace\AT32F403ACGU7_clone_windows_desktop_virtual_com_port\Release/../usbd_drivers/usbd_core.c:372
    ept_info->total_len -= trs_len;
 8000b8a:	bf38      	it	cc
 8000b8c:	1a43      	subcc	r3, r0, r1
F:\AT32-workspace\AT32F403ACGU7_clone_windows_desktop_virtual_com_port\Release/../usbd_drivers/usbd_core.c:381
  USB_SET_RXSTS((ept_addr & 0x7F), USB_RX_VALID);
 8000b8e:	4a11      	ldr	r2, [pc, #68]	; (8000bd4 <usbd_core_out_handler+0x94>)
F:\AT32-workspace\AT32F403ACGU7_clone_windows_desktop_virtual_com_port\Release/../usbd_drivers/usbd_core.c:372
    ept_info->total_len -= trs_len;
 8000b90:	bf38      	it	cc
 8000b92:	b29b      	uxthcc	r3, r3
 8000b94:	f8a4 311a 	strh.w	r3, [r4, #282]	; 0x11a
F:\AT32-workspace\AT32F403ACGU7_clone_windows_desktop_virtual_com_port\Release/../usbd_drivers/usbd_core.c:381
  USB_SET_RXSTS((ept_addr & 0x7F), USB_RX_VALID);
 8000b98:	6813      	ldr	r3, [r2, #0]
 8000b9a:	f423 4380 	bic.w	r3, r3, #16384	; 0x4000
 8000b9e:	f023 0370 	bic.w	r3, r3, #112	; 0x70
 8000ba2:	b29b      	uxth	r3, r3
 8000ba4:	f483 5340 	eor.w	r3, r3, #12288	; 0x3000
 8000ba8:	f443 4300 	orr.w	r3, r3, #32768	; 0x8000
 8000bac:	f043 0380 	orr.w	r3, r3, #128	; 0x80
 8000bb0:	6013      	str	r3, [r2, #0]
usbd_core_out_handler():
F:\AT32-workspace\AT32F403ACGU7_clone_windows_desktop_virtual_com_port\Release/../usbd_drivers/usbd_core.c:129
}
 8000bb2:	bd10      	pop	{r4, pc}
F:\AT32-workspace\AT32F403ACGU7_clone_windows_desktop_virtual_com_port\Release/../usbd_drivers/usbd_core.c:115
          if(udev->class_handler->ept0_rx_handler != 0)
 8000bb4:	6843      	ldr	r3, [r0, #4]
 8000bb6:	691b      	ldr	r3, [r3, #16]
 8000bb8:	b103      	cbz	r3, 8000bbc <usbd_core_out_handler+0x7c>
F:\AT32-workspace\AT32F403ACGU7_clone_windows_desktop_virtual_com_port\Release/../usbd_drivers/usbd_core.c:117
            udev->class_handler->ept0_rx_handler(udev);
 8000bba:	4798      	blx	r3
usbd_ctrl_send_status():
F:\AT32-workspace\AT32F403ACGU7_clone_windows_desktop_virtual_com_port\Release/../usbd_drivers/usbd_core.c:210
  udev->ept0_sts = USB_EPT0_STATUS_IN;
 8000bbc:	2204      	movs	r2, #4
F:\AT32-workspace\AT32F403ACGU7_clone_windows_desktop_virtual_com_port\Release/../usbd_drivers/usbd_core.c:212
  usbd_ept_send(udev, 0, 0, 0);
 8000bbe:	2300      	movs	r3, #0
F:\AT32-workspace\AT32F403ACGU7_clone_windows_desktop_virtual_com_port\Release/../usbd_drivers/usbd_core.c:210
  udev->ept0_sts = USB_EPT0_STATUS_IN;
 8000bc0:	f884 2220 	strb.w	r2, [r4, #544]	; 0x220
F:\AT32-workspace\AT32F403ACGU7_clone_windows_desktop_virtual_com_port\Release/../usbd_drivers/usbd_core.c:212
  usbd_ept_send(udev, 0, 0, 0);
 8000bc4:	4620      	mov	r0, r4
 8000bc6:	461a      	mov	r2, r3
usbd_core_out_handler():
F:\AT32-workspace\AT32F403ACGU7_clone_windows_desktop_virtual_com_port\Release/../usbd_drivers/usbd_core.c:129
}
 8000bc8:	e8bd 4010 	ldmia.w	sp!, {r4, lr}
usbd_ctrl_send_status():
F:\AT32-workspace\AT32F403ACGU7_clone_windows_desktop_virtual_com_port\Release/../usbd_drivers/usbd_core.c:212
  usbd_ept_send(udev, 0, 0, 0);
 8000bcc:	4619      	mov	r1, r3
 8000bce:	f7ff bf55 	b.w	8000a7c <usbd_ept_send>
 8000bd2:	bf00      	nop
 8000bd4:	40005c00 	.word	0x40005c00

08000bd8 <usbd_core_in_handler>:
usbd_core_in_handler():
F:\AT32-workspace\AT32F403ACGU7_clone_windows_desktop_virtual_com_port\Release/../usbd_drivers/usbd_core.c:47
{
 8000bd8:	b570      	push	{r4, r5, r6, lr}
 8000bda:	4604      	mov	r4, r0
F:\AT32-workspace\AT32F403ACGU7_clone_windows_desktop_virtual_com_port\Release/../usbd_drivers/usbd_core.c:51
  if(ept_addr == 0)
 8000bdc:	b921      	cbnz	r1, 8000be8 <usbd_core_in_handler+0x10>
F:\AT32-workspace\AT32F403ACGU7_clone_windows_desktop_virtual_com_port\Release/../usbd_drivers/usbd_core.c:53
    if(udev->ept0_sts == USB_EPT0_DATA_IN)
 8000bde:	f890 3220 	ldrb.w	r3, [r0, #544]	; 0x220
 8000be2:	2b02      	cmp	r3, #2
 8000be4:	d00b      	beq.n	8000bfe <usbd_core_in_handler+0x26>
F:\AT32-workspace\AT32F403ACGU7_clone_windows_desktop_virtual_com_port\Release/../usbd_drivers/usbd_core.c:89
}
 8000be6:	bd70      	pop	{r4, r5, r6, pc}
F:\AT32-workspace\AT32F403ACGU7_clone_windows_desktop_virtual_com_port\Release/../usbd_drivers/usbd_core.c:83
  else if(udev->class_handler->in_handler != 0 &&
 8000be8:	6843      	ldr	r3, [r0, #4]
 8000bea:	695b      	ldr	r3, [r3, #20]
 8000bec:	2b00      	cmp	r3, #0
 8000bee:	d0fa      	beq.n	8000be6 <usbd_core_in_handler+0xe>
F:\AT32-workspace\AT32F403ACGU7_clone_windows_desktop_virtual_com_port\Release/../usbd_drivers/usbd_core.c:83 (discriminator 1)
 8000bf0:	f890 2224 	ldrb.w	r2, [r0, #548]	; 0x224
 8000bf4:	2a03      	cmp	r2, #3
 8000bf6:	d1f6      	bne.n	8000be6 <usbd_core_in_handler+0xe>
F:\AT32-workspace\AT32F403ACGU7_clone_windows_desktop_virtual_com_port\Release/../usbd_drivers/usbd_core.c:89
}
 8000bf8:	e8bd 4070 	ldmia.w	sp!, {r4, r5, r6, lr}
F:\AT32-workspace\AT32F403ACGU7_clone_windows_desktop_virtual_com_port\Release/../usbd_drivers/usbd_core.c:87
    udev->class_handler->in_handler(udev, ept_addr);
 8000bfc:	4718      	bx	r3
F:\AT32-workspace\AT32F403ACGU7_clone_windows_desktop_virtual_com_port\Release/../usbd_drivers/usbd_core.c:55
      if(ept_info->rem0_len > ept_info->maxpacket)
 8000bfe:	8cc2      	ldrh	r2, [r0, #38]	; 0x26
 8000c00:	f8b0 c014 	ldrh.w	ip, [r0, #20]
 8000c04:	4562      	cmp	r2, ip
 8000c06:	d820      	bhi.n	8000c4a <usbd_core_in_handler+0x72>
F:\AT32-workspace\AT32F403ACGU7_clone_windows_desktop_virtual_com_port\Release/../usbd_drivers/usbd_core.c:62
      else if(ept_info->last_len == ept_info->maxpacket
 8000c08:	8c83      	ldrh	r3, [r0, #36]	; 0x24
 8000c0a:	4563      	cmp	r3, ip
 8000c0c:	d02c      	beq.n	8000c68 <usbd_core_in_handler+0x90>
F:\AT32-workspace\AT32F403ACGU7_clone_windows_desktop_virtual_com_port\Release/../usbd_drivers/usbd_core.c:73
        if(udev->class_handler->ept0_tx_handler != 0 &&
 8000c0e:	6863      	ldr	r3, [r4, #4]
 8000c10:	68db      	ldr	r3, [r3, #12]
 8000c12:	b11b      	cbz	r3, 8000c1c <usbd_core_in_handler+0x44>
F:\AT32-workspace\AT32F403ACGU7_clone_windows_desktop_virtual_com_port\Release/../usbd_drivers/usbd_core.c:73 (discriminator 1)
 8000c14:	f894 2224 	ldrb.w	r2, [r4, #548]	; 0x224
 8000c18:	2a03      	cmp	r2, #3
 8000c1a:	d022      	beq.n	8000c62 <usbd_core_in_handler+0x8a>
usbd_ept_recv():
F:\AT32-workspace\AT32F403ACGU7_clone_windows_desktop_virtual_com_port\Release/../usbd_drivers/usbd_core.c:381
  USB_SET_RXSTS((ept_addr & 0x7F), USB_RX_VALID);
 8000c1c:	4a22      	ldr	r2, [pc, #136]	; (8000ca8 <usbd_core_in_handler+0xd0>)
usbd_ctrl_recv_status():
F:\AT32-workspace\AT32F403ACGU7_clone_windows_desktop_virtual_com_port\Release/../usbd_drivers/usbd_core.c:222
  udev->ept0_sts = USB_EPT0_STATUS_OUT;
 8000c1e:	2305      	movs	r3, #5
 8000c20:	f884 3220 	strb.w	r3, [r4, #544]	; 0x220
usbd_ept_recv():
F:\AT32-workspace\AT32F403ACGU7_clone_windows_desktop_virtual_com_port\Release/../usbd_drivers/usbd_core.c:381
  USB_SET_RXSTS((ept_addr & 0x7F), USB_RX_VALID);
 8000c24:	6813      	ldr	r3, [r2, #0]
 8000c26:	f423 4380 	bic.w	r3, r3, #16384	; 0x4000
 8000c2a:	f023 0370 	bic.w	r3, r3, #112	; 0x70
 8000c2e:	b29b      	uxth	r3, r3
 8000c30:	f483 5340 	eor.w	r3, r3, #12288	; 0x3000
 8000c34:	f443 4300 	orr.w	r3, r3, #32768	; 0x8000
F:\AT32-workspace\AT32F403ACGU7_clone_windows_desktop_virtual_com_port\Release/../usbd_drivers/usbd_core.c:365
  ept_info->trans_buf = buffer;
 8000c38:	2100      	movs	r1, #0
F:\AT32-workspace\AT32F403ACGU7_clone_windows_desktop_virtual_com_port\Release/../usbd_drivers/usbd_core.c:381
  USB_SET_RXSTS((ept_addr & 0x7F), USB_RX_VALID);
 8000c3a:	f043 0380 	orr.w	r3, r3, #128	; 0x80
F:\AT32-workspace\AT32F403ACGU7_clone_windows_desktop_virtual_com_port\Release/../usbd_drivers/usbd_core.c:365
  ept_info->trans_buf = buffer;
 8000c3e:	f8c4 1120 	str.w	r1, [r4, #288]	; 0x120
F:\AT32-workspace\AT32F403ACGU7_clone_windows_desktop_virtual_com_port\Release/../usbd_drivers/usbd_core.c:377
    ept_info->total_len = 0;
 8000c42:	f8c4 111a 	str.w	r1, [r4, #282]	; 0x11a
F:\AT32-workspace\AT32F403ACGU7_clone_windows_desktop_virtual_com_port\Release/../usbd_drivers/usbd_core.c:381
  USB_SET_RXSTS((ept_addr & 0x7F), USB_RX_VALID);
 8000c46:	6013      	str	r3, [r2, #0]
usbd_core_in_handler():
F:\AT32-workspace\AT32F403ACGU7_clone_windows_desktop_virtual_com_port\Release/../usbd_drivers/usbd_core.c:89
}
 8000c48:	bd70      	pop	{r4, r5, r6, pc}
F:\AT32-workspace\AT32F403ACGU7_clone_windows_desktop_virtual_com_port\Release/../usbd_drivers/usbd_core.c:57
        ept_info->rem0_len -= ept_info->maxpacket;
 8000c4a:	eba2 020c 	sub.w	r2, r2, ip
 8000c4e:	b293      	uxth	r3, r2
F:\AT32-workspace\AT32F403ACGU7_clone_windows_desktop_virtual_com_port\Release/../usbd_drivers/usbd_core.c:58
        usbd_ept_send(udev, 0, ept_info->trans_buf,
 8000c50:	4563      	cmp	r3, ip
F:\AT32-workspace\AT32F403ACGU7_clone_windows_desktop_virtual_com_port\Release/../usbd_drivers/usbd_core.c:57
        ept_info->rem0_len -= ept_info->maxpacket;
 8000c52:	84c3      	strh	r3, [r0, #38]	; 0x26
F:\AT32-workspace\AT32F403ACGU7_clone_windows_desktop_virtual_com_port\Release/../usbd_drivers/usbd_core.c:89
}
 8000c54:	e8bd 4070 	ldmia.w	sp!, {r4, r5, r6, lr}
F:\AT32-workspace\AT32F403ACGU7_clone_windows_desktop_virtual_com_port\Release/../usbd_drivers/usbd_core.c:58
        usbd_ept_send(udev, 0, ept_info->trans_buf,
 8000c58:	6a02      	ldr	r2, [r0, #32]
 8000c5a:	bf28      	it	cs
 8000c5c:	4663      	movcs	r3, ip
 8000c5e:	f7ff bf0d 	b.w	8000a7c <usbd_ept_send>
F:\AT32-workspace\AT32F403ACGU7_clone_windows_desktop_virtual_com_port\Release/../usbd_drivers/usbd_core.c:76
          udev->class_handler->ept0_tx_handler(udev);
 8000c62:	4620      	mov	r0, r4
 8000c64:	4798      	blx	r3
 8000c66:	e7d9      	b.n	8000c1c <usbd_core_in_handler+0x44>
F:\AT32-workspace\AT32F403ACGU7_clone_windows_desktop_virtual_com_port\Release/../usbd_drivers/usbd_core.c:63
        && ept_info->ept0_slen >= ept_info->maxpacket
 8000c68:	8d02      	ldrh	r2, [r0, #40]	; 0x28
 8000c6a:	4293      	cmp	r3, r2
 8000c6c:	d8cf      	bhi.n	8000c0e <usbd_core_in_handler+0x36>
F:\AT32-workspace\AT32F403ACGU7_clone_windows_desktop_virtual_com_port\Release/../usbd_drivers/usbd_core.c:64
        && ept_info->ept0_slen < udev->ept0_wlength)
 8000c6e:	f8b0 3222 	ldrh.w	r3, [r0, #546]	; 0x222
 8000c72:	4293      	cmp	r3, r2
 8000c74:	d9cb      	bls.n	8000c0e <usbd_core_in_handler+0x36>
F:\AT32-workspace\AT32F403ACGU7_clone_windows_desktop_virtual_com_port\Release/../usbd_drivers/usbd_core.c:67
        usbd_ept_send(udev, 0, 0, 0);
 8000c76:	460b      	mov	r3, r1
 8000c78:	460a      	mov	r2, r1
F:\AT32-workspace\AT32F403ACGU7_clone_windows_desktop_virtual_com_port\Release/../usbd_drivers/usbd_core.c:66
        ept_info->last_len = 0;
 8000c7a:	84a1      	strh	r1, [r4, #36]	; 0x24
F:\AT32-workspace\AT32F403ACGU7_clone_windows_desktop_virtual_com_port\Release/../usbd_drivers/usbd_core.c:67
        usbd_ept_send(udev, 0, 0, 0);
 8000c7c:	460d      	mov	r5, r1
 8000c7e:	f7ff fefd 	bl	8000a7c <usbd_ept_send>
usbd_ept_recv():
F:\AT32-workspace\AT32F403ACGU7_clone_windows_desktop_virtual_com_port\Release/../usbd_drivers/usbd_core.c:381
  USB_SET_RXSTS((ept_addr & 0x7F), USB_RX_VALID);
 8000c82:	4a09      	ldr	r2, [pc, #36]	; (8000ca8 <usbd_core_in_handler+0xd0>)
F:\AT32-workspace\AT32F403ACGU7_clone_windows_desktop_virtual_com_port\Release/../usbd_drivers/usbd_core.c:365
  ept_info->trans_buf = buffer;
 8000c84:	f8c4 5120 	str.w	r5, [r4, #288]	; 0x120
F:\AT32-workspace\AT32F403ACGU7_clone_windows_desktop_virtual_com_port\Release/../usbd_drivers/usbd_core.c:381
  USB_SET_RXSTS((ept_addr & 0x7F), USB_RX_VALID);
 8000c88:	6813      	ldr	r3, [r2, #0]
F:\AT32-workspace\AT32F403ACGU7_clone_windows_desktop_virtual_com_port\Release/../usbd_drivers/usbd_core.c:377
    ept_info->total_len = 0;
 8000c8a:	f8c4 511a 	str.w	r5, [r4, #282]	; 0x11a
F:\AT32-workspace\AT32F403ACGU7_clone_windows_desktop_virtual_com_port\Release/../usbd_drivers/usbd_core.c:381
  USB_SET_RXSTS((ept_addr & 0x7F), USB_RX_VALID);
 8000c8e:	f423 4380 	bic.w	r3, r3, #16384	; 0x4000
 8000c92:	f023 0370 	bic.w	r3, r3, #112	; 0x70
 8000c96:	b29b      	uxth	r3, r3
 8000c98:	f483 5340 	eor.w	r3, r3, #12288	; 0x3000
 8000c9c:	f443 4300 	orr.w	r3, r3, #32768	; 0x8000
 8000ca0:	f043 0380 	orr.w	r3, r3, #128	; 0x80
 8000ca4:	6013      	str	r3, [r2, #0]
usbd_core_in_handler():
F:\AT32-workspace\AT32F403ACGU7_clone_windows_desktop_virtual_com_port\Release/../usbd_drivers/usbd_core.c:89
}
 8000ca6:	bd70      	pop	{r4, r5, r6, pc}
 8000ca8:	40005c00 	.word	0x40005c00

08000cac <usbd_ept_recv>:
usbd_ept_recv():
F:\AT32-workspace\AT32F403ACGU7_clone_windows_desktop_virtual_com_port\Release/../usbd_drivers/usbd_core.c:361
  usb_ept_info *ept_info = &udev->ept_out[ept_addr & 0x7F];
 8000cac:	f001 017f 	and.w	r1, r1, #127	; 0x7f
F:\AT32-workspace\AT32F403ACGU7_clone_windows_desktop_virtual_com_port\Release/../usbd_drivers/usbd_core.c:365
  ept_info->trans_buf = buffer;
 8000cb0:	eb00 1c41 	add.w	ip, r0, r1, lsl #5
F:\AT32-workspace\AT32F403ACGU7_clone_windows_desktop_virtual_com_port\Release/../usbd_drivers/usbd_core.c:359
{
 8000cb4:	b510      	push	{r4, lr}
F:\AT32-workspace\AT32F403ACGU7_clone_windows_desktop_virtual_com_port\Release/../usbd_drivers/usbd_core.c:369
  if(ept_info->total_len > ept_info->maxpacket)
 8000cb6:	f8bc 4114 	ldrh.w	r4, [ip, #276]	; 0x114
F:\AT32-workspace\AT32F403ACGU7_clone_windows_desktop_virtual_com_port\Release/../usbd_drivers/usbd_core.c:365
  ept_info->trans_buf = buffer;
 8000cba:	f8cc 2120 	str.w	r2, [ip, #288]	; 0x120
F:\AT32-workspace\AT32F403ACGU7_clone_windows_desktop_virtual_com_port\Release/../usbd_drivers/usbd_core.c:369
  if(ept_info->total_len > ept_info->maxpacket)
 8000cbe:	429c      	cmp	r4, r3
F:\AT32-workspace\AT32F403ACGU7_clone_windows_desktop_virtual_com_port\Release/../usbd_drivers/usbd_core.c:372
    ept_info->total_len -= trs_len;
 8000cc0:	bf38      	it	cc
 8000cc2:	1b1b      	subcc	r3, r3, r4
F:\AT32-workspace\AT32F403ACGU7_clone_windows_desktop_virtual_com_port\Release/../usbd_drivers/usbd_core.c:381
  USB_SET_RXSTS((ept_addr & 0x7F), USB_RX_VALID);
 8000cc4:	4c0d      	ldr	r4, [pc, #52]	; (8000cfc <usbd_ept_recv+0x50>)
F:\AT32-workspace\AT32F403ACGU7_clone_windows_desktop_virtual_com_port\Release/../usbd_drivers/usbd_core.c:367
  ept_info->trans_len = 0;
 8000cc6:	f04f 0200 	mov.w	r2, #0
 8000cca:	f8ac 211c 	strh.w	r2, [ip, #284]	; 0x11c
F:\AT32-workspace\AT32F403ACGU7_clone_windows_desktop_virtual_com_port\Release/../usbd_drivers/usbd_core.c:372
    ept_info->total_len -= trs_len;
 8000cce:	bf38      	it	cc
 8000cd0:	b29a      	uxthcc	r2, r3
F:\AT32-workspace\AT32F403ACGU7_clone_windows_desktop_virtual_com_port\Release/../usbd_drivers/usbd_core.c:381
  USB_SET_RXSTS((ept_addr & 0x7F), USB_RX_VALID);
 8000cd2:	f854 3021 	ldr.w	r3, [r4, r1, lsl #2]
 8000cd6:	f423 4380 	bic.w	r3, r3, #16384	; 0x4000
 8000cda:	f023 0370 	bic.w	r3, r3, #112	; 0x70
 8000cde:	b29b      	uxth	r3, r3
F:\AT32-workspace\AT32F403ACGU7_clone_windows_desktop_virtual_com_port\Release/../usbd_drivers/usbd_core.c:365
  ept_info->trans_buf = buffer;
 8000ce0:	ea4f 1e41 	mov.w	lr, r1, lsl #5
F:\AT32-workspace\AT32F403ACGU7_clone_windows_desktop_virtual_com_port\Release/../usbd_drivers/usbd_core.c:381
  USB_SET_RXSTS((ept_addr & 0x7F), USB_RX_VALID);
 8000ce4:	f483 5340 	eor.w	r3, r3, #12288	; 0x3000
 8000ce8:	4470      	add	r0, lr
 8000cea:	f443 4300 	orr.w	r3, r3, #32768	; 0x8000
 8000cee:	f043 0380 	orr.w	r3, r3, #128	; 0x80
 8000cf2:	f8a0 211a 	strh.w	r2, [r0, #282]	; 0x11a
 8000cf6:	f844 3021 	str.w	r3, [r4, r1, lsl #2]
F:\AT32-workspace\AT32F403ACGU7_clone_windows_desktop_virtual_com_port\Release/../usbd_drivers/usbd_core.c:382
}
 8000cfa:	bd10      	pop	{r4, pc}
 8000cfc:	40005c00 	.word	0x40005c00

08000d00 <usbd_get_recv_len>:
usbd_get_recv_len():
F:\AT32-workspace\AT32F403ACGU7_clone_windows_desktop_virtual_com_port\Release/../usbd_drivers/usbd_core.c:393
  * @param  ept_addr: endpoint number
  * @retval none
  */
uint32_t usbd_get_recv_len(usbd_core_type *udev, uint8_t ept_addr)
{
  usb_ept_info *ept = &udev->ept_out[ept_addr & 0x7F];
 8000d00:	f001 017f 	and.w	r1, r1, #127	; 0x7f
F:\AT32-workspace\AT32F403ACGU7_clone_windows_desktop_virtual_com_port\Release/../usbd_drivers/usbd_core.c:394
  return ept->trans_len;
 8000d04:	eb00 1041 	add.w	r0, r0, r1, lsl #5
F:\AT32-workspace\AT32F403ACGU7_clone_windows_desktop_virtual_com_port\Release/../usbd_drivers/usbd_core.c:395
}
 8000d08:	f8b0 011c 	ldrh.w	r0, [r0, #284]	; 0x11c
 8000d0c:	4770      	bx	lr
 8000d0e:	bf00      	nop

08000d10 <usbd_ept_buf_custom_define>:
usbd_ept_buf_custom_define():
F:\AT32-workspace\AT32F403ACGU7_clone_windows_desktop_virtual_com_port\Release/../usbd_drivers/usbd_core.c:462
  */
void usbd_ept_buf_custom_define(usbd_core_type *udev, uint8_t ept_addr,
                                uint32_t addr)
{
  usb_ept_info *ept_info;
  if((ept_addr & 0x80) == 0)
 8000d10:	060b      	lsls	r3, r1, #24
 8000d12:	d40d      	bmi.n	8000d30 <usbd_ept_buf_custom_define+0x20>
F:\AT32-workspace\AT32F403ACGU7_clone_windows_desktop_virtual_com_port\Release/../usbd_drivers/usbd_core.c:465
  {
    /* out endpoint info */
    ept_info = &udev->ept_out[ept_addr & 0x7F];
 8000d14:	eb00 1041 	add.w	r0, r0, r1, lsl #5
 8000d18:	f500 7086 	add.w	r0, r0, #268	; 0x10c
F:\AT32-workspace\AT32F403ACGU7_clone_windows_desktop_virtual_com_port\Release/../usbd_drivers/usbd_core.c:473
  {
    /* in endpoint info */
    ept_info = &udev->ept_in[ept_addr & 0x7F];
  }

  if(ept_info->is_double_buffer == 0)
 8000d1c:	7a83      	ldrb	r3, [r0, #10]
 8000d1e:	b92b      	cbnz	r3, 8000d2c <usbd_ept_buf_custom_define+0x1c>
F:\AT32-workspace\AT32F403ACGU7_clone_windows_desktop_virtual_com_port\Release/../usbd_drivers/usbd_core.c:475
  {
    if( ept_info->inout == DATA_TRANS_IN )
 8000d20:	7883      	ldrb	r3, [r0, #2]
 8000d22:	2b01      	cmp	r3, #1
F:\AT32-workspace\AT32F403ACGU7_clone_windows_desktop_virtual_com_port\Release/../usbd_drivers/usbd_core.c:477
    {
      ept_info->tx_addr = addr;
 8000d24:	bf0c      	ite	eq
 8000d26:	8082      	strheq	r2, [r0, #4]
F:\AT32-workspace\AT32F403ACGU7_clone_windows_desktop_virtual_com_port\Release/../usbd_drivers/usbd_core.c:481
    }
    else
    {
      ept_info->rx_addr = addr;
 8000d28:	80c2      	strhne	r2, [r0, #6]
 8000d2a:	4770      	bx	lr
F:\AT32-workspace\AT32F403ACGU7_clone_windows_desktop_virtual_com_port\Release/../usbd_drivers/usbd_core.c:487
    }
  }
  else
  {
    /* double buffer malloc */
    ept_info->tx_addr = addr & 0xFFFF;
 8000d2c:	6042      	str	r2, [r0, #4]
F:\AT32-workspace\AT32F403ACGU7_clone_windows_desktop_virtual_com_port\Release/../usbd_drivers/usbd_core.c:490
    ept_info->rx_addr = (addr >> 16) & 0xFFFF;
  }
}
 8000d2e:	4770      	bx	lr
F:\AT32-workspace\AT32F403ACGU7_clone_windows_desktop_virtual_com_port\Release/../usbd_drivers/usbd_core.c:470
    ept_info = &udev->ept_in[ept_addr & 0x7F];
 8000d30:	f001 017f 	and.w	r1, r1, #127	; 0x7f
 8000d34:	eb00 1041 	add.w	r0, r0, r1, lsl #5
 8000d38:	300c      	adds	r0, #12
 8000d3a:	e7ef      	b.n	8000d1c <usbd_ept_buf_custom_define+0xc>

08000d3c <usbd_ept_open>:
usbd_ept_open():
F:\AT32-workspace\AT32F403ACGU7_clone_windows_desktop_virtual_com_port\Release/../usbd_drivers/usbd_core.c:505
void usbd_ept_open(usbd_core_type *udev, uint8_t ept_addr, uint8_t ept_type, uint16_t maxpacket)
{
  usbd_type *usbx = udev->usb_reg;
  usb_ept_info *ept_info;

  if((ept_addr & 0x80) == 0)
 8000d3c:	f011 0f80 	tst.w	r1, #128	; 0x80
F:\AT32-workspace\AT32F403ACGU7_clone_windows_desktop_virtual_com_port\Release/../usbd_drivers/usbd_core.c:501
{
 8000d40:	4684      	mov	ip, r0
 8000d42:	b500      	push	{lr}
F:\AT32-workspace\AT32F403ACGU7_clone_windows_desktop_virtual_com_port\Release/../usbd_drivers/usbd_core.c:502
  usbd_type *usbx = udev->usb_reg;
 8000d44:	6800      	ldr	r0, [r0, #0]
F:\AT32-workspace\AT32F403ACGU7_clone_windows_desktop_virtual_com_port\Release/../usbd_drivers/usbd_core.c:505
  if((ept_addr & 0x80) == 0)
 8000d46:	d110      	bne.n	8000d6a <usbd_ept_open+0x2e>
F:\AT32-workspace\AT32F403ACGU7_clone_windows_desktop_virtual_com_port\Release/../usbd_drivers/usbd_core.c:509
  {
    /* out endpoint info */
    ept_info = &udev->ept_out[ept_addr & 0x7F];
    ept_info->inout = DATA_TRANS_OUT;
 8000d48:	eb0c 1e41 	add.w	lr, ip, r1, lsl #5
 8000d4c:	f04f 0c00 	mov.w	ip, #0
F:\AT32-workspace\AT32F403ACGU7_clone_windows_desktop_virtual_com_port\Release/../usbd_drivers/usbd_core.c:508
    ept_info = &udev->ept_out[ept_addr & 0x7F];
 8000d50:	f50e 7186 	add.w	r1, lr, #268	; 0x10c
F:\AT32-workspace\AT32F403ACGU7_clone_windows_desktop_virtual_com_port\Release/../usbd_drivers/usbd_core.c:509
    ept_info->inout = DATA_TRANS_OUT;
 8000d54:	f88e c10e 	strb.w	ip, [lr, #270]	; 0x10e
F:\AT32-workspace\AT32F403ACGU7_clone_windows_desktop_virtual_com_port\Release/../usbd_drivers/usbd_core.c:519
    ept_info = &udev->ept_in[ept_addr & 0x7F];
    ept_info->inout = DATA_TRANS_IN;
  }

  /* set endpoint maxpacket and type */
  ept_info->maxpacket = (maxpacket + 1) & 0xFFFE;
 8000d58:	3301      	adds	r3, #1
 8000d5a:	f023 0301 	bic.w	r3, r3, #1
F:\AT32-workspace\AT32F403ACGU7_clone_windows_desktop_virtual_com_port\Release/../usbd_drivers/usbd_core.c:520
  ept_info->trans_type = ept_type;
 8000d5e:	70ca      	strb	r2, [r1, #3]
F:\AT32-workspace\AT32F403ACGU7_clone_windows_desktop_virtual_com_port\Release/../usbd_drivers/usbd_core.c:527
#ifdef USB_EPT_AUTO_MALLOC_BUFFER
  usbd_ept_buf_auto_define(ept_info);
#endif
  /* open endpoint */
  usb_ept_open(usbx, ept_info);
}
 8000d60:	f85d eb04 	ldr.w	lr, [sp], #4
F:\AT32-workspace\AT32F403ACGU7_clone_windows_desktop_virtual_com_port\Release/../usbd_drivers/usbd_core.c:519
  ept_info->maxpacket = (maxpacket + 1) & 0xFFFE;
 8000d64:	810b      	strh	r3, [r1, #8]
F:\AT32-workspace\AT32F403ACGU7_clone_windows_desktop_virtual_com_port\Release/../usbd_drivers/usbd_core.c:526
  usb_ept_open(usbx, ept_info);
 8000d66:	f001 b9d3 	b.w	8002110 <usb_ept_open>
F:\AT32-workspace\AT32F403ACGU7_clone_windows_desktop_virtual_com_port\Release/../usbd_drivers/usbd_core.c:514
    ept_info = &udev->ept_in[ept_addr & 0x7F];
 8000d6a:	f001 017f 	and.w	r1, r1, #127	; 0x7f
F:\AT32-workspace\AT32F403ACGU7_clone_windows_desktop_virtual_com_port\Release/../usbd_drivers/usbd_core.c:515
    ept_info->inout = DATA_TRANS_IN;
 8000d6e:	eb0c 1e41 	add.w	lr, ip, r1, lsl #5
 8000d72:	f04f 0c01 	mov.w	ip, #1
F:\AT32-workspace\AT32F403ACGU7_clone_windows_desktop_virtual_com_port\Release/../usbd_drivers/usbd_core.c:514
    ept_info = &udev->ept_in[ept_addr & 0x7F];
 8000d76:	f10e 010c 	add.w	r1, lr, #12
F:\AT32-workspace\AT32F403ACGU7_clone_windows_desktop_virtual_com_port\Release/../usbd_drivers/usbd_core.c:515
    ept_info->inout = DATA_TRANS_IN;
 8000d7a:	f88e c00e 	strb.w	ip, [lr, #14]
 8000d7e:	e7eb      	b.n	8000d58 <usbd_ept_open+0x1c>

08000d80 <usbd_ept_close>:
usbd_ept_close():
F:\AT32-workspace\AT32F403ACGU7_clone_windows_desktop_virtual_com_port\Release/../usbd_drivers/usbd_core.c:538
  * @retval none
  */
void usbd_ept_close(usbd_core_type *udev, uint8_t ept_addr)
{
  usb_ept_info *ept_info;
  if(ept_addr & 0x80)
 8000d80:	060b      	lsls	r3, r1, #24
 8000d82:	d406      	bmi.n	8000d92 <usbd_ept_close+0x12>
F:\AT32-workspace\AT32F403ACGU7_clone_windows_desktop_virtual_com_port\Release/../usbd_drivers/usbd_core.c:546
    ept_info = &udev->ept_in[ept_addr & 0x7F];
  }
  else
  {
    /* out endpoint */
    ept_info = &udev->ept_out[ept_addr & 0x7F];
 8000d84:	eb00 1141 	add.w	r1, r0, r1, lsl #5
 8000d88:	f501 7186 	add.w	r1, r1, #268	; 0x10c
F:\AT32-workspace\AT32F403ACGU7_clone_windows_desktop_virtual_com_port\Release/../usbd_drivers/usbd_core.c:550
  }

  /* close endpoint */
  usb_ept_close(udev->usb_reg, ept_info);
 8000d8c:	6800      	ldr	r0, [r0, #0]
 8000d8e:	f001 bb53 	b.w	8002438 <usb_ept_close>
F:\AT32-workspace\AT32F403ACGU7_clone_windows_desktop_virtual_com_port\Release/../usbd_drivers/usbd_core.c:541
    ept_info = &udev->ept_in[ept_addr & 0x7F];
 8000d92:	f001 017f 	and.w	r1, r1, #127	; 0x7f
 8000d96:	eb00 1141 	add.w	r1, r0, r1, lsl #5
 8000d9a:	310c      	adds	r1, #12
F:\AT32-workspace\AT32F403ACGU7_clone_windows_desktop_virtual_com_port\Release/../usbd_drivers/usbd_core.c:550
  usb_ept_close(udev->usb_reg, ept_info);
 8000d9c:	6800      	ldr	r0, [r0, #0]
 8000d9e:	f001 bb4b 	b.w	8002438 <usb_ept_close>
 8000da2:	bf00      	nop

08000da4 <usbd_connect>:
usbd_connect():
F:\AT32-workspace\AT32F403ACGU7_clone_windows_desktop_virtual_com_port\Release/../usbd_drivers/usbd_core.c:560
  * @param  udev: to the structure of usbd_core_type
  * @retval none
  */
void usbd_connect(usbd_core_type *udev)
{
  usb_connect(udev->usb_reg);
 8000da4:	6800      	ldr	r0, [r0, #0]
 8000da6:	f001 b9a9 	b.w	80020fc <usb_connect>
 8000daa:	bf00      	nop

08000dac <usbd_enter_suspend>:
usbd_enter_suspend():
F:\AT32-workspace\AT32F403ACGU7_clone_windows_desktop_virtual_com_port\Release/../usbd_drivers/usbd_core.c:621
  * @param  udev: to the structure of usbd_core_type
  * @retval none
  */
void usbd_enter_suspend(usbd_core_type *udev)
{
  usb_enter_suspend(udev->usb_reg);
 8000dac:	6800      	ldr	r0, [r0, #0]
 8000dae:	f001 bc05 	b.w	80025bc <usb_enter_suspend>
 8000db2:	bf00      	nop

08000db4 <usbd_ept_defaut_init>:
usbd_ept_defaut_init():
F:\AT32-workspace\AT32F403ACGU7_clone_windows_desktop_virtual_com_port\Release/../usbd_drivers/usbd_core.c:630
  * @brief  usb endpoint structure initialization
  * @param  udev: to the structure of usbd_core_type
  * @retval none
  */
void usbd_ept_defaut_init(usbd_core_type *udev)
{
 8000db4:	b530      	push	{r4, r5, lr}
F:\AT32-workspace\AT32F403ACGU7_clone_windows_desktop_virtual_com_port\Release/../usbd_drivers/usbd_core.c:635
  uint8_t i_index = 0;
  /* init in endpoint info structure */
  for(i_index = 0; i_index < USB_EPT_MAX_NUM; i_index ++)
  {
    udev->ept_in[i_index].eptn        = i_index;
 8000db6:	2300      	movs	r3, #0
F:\AT32-workspace\AT32F403ACGU7_clone_windows_desktop_virtual_com_port\Release/../usbd_drivers/usbd_core.c:637
    udev->ept_in[i_index].ept_address = i_index;
    udev->ept_in[i_index].inout         = DATA_TRANS_IN;
 8000db8:	2201      	movs	r2, #1
F:\AT32-workspace\AT32F403ACGU7_clone_windows_desktop_virtual_com_port\Release/../usbd_drivers/usbd_core.c:635
    udev->ept_in[i_index].eptn        = i_index;
 8000dba:	f240 2102 	movw	r1, #514	; 0x202
 8000dbe:	f240 1501 	movw	r5, #257	; 0x101
 8000dc2:	f240 3403 	movw	r4, #771	; 0x303
 8000dc6:	f240 4e04 	movw	lr, #1028	; 0x404
 8000dca:	f240 5c05 	movw	ip, #1285	; 0x505
F:\AT32-workspace\AT32F403ACGU7_clone_windows_desktop_virtual_com_port\Release/../usbd_drivers/usbd_core.c:637
    udev->ept_in[i_index].inout         = DATA_TRANS_IN;
 8000dce:	7382      	strb	r2, [r0, #14]
 8000dd0:	f880 202e 	strb.w	r2, [r0, #46]	; 0x2e
F:\AT32-workspace\AT32F403ACGU7_clone_windows_desktop_virtual_com_port\Release/../usbd_drivers/usbd_core.c:635
    udev->ept_in[i_index].eptn        = i_index;
 8000dd4:	f8a0 104c 	strh.w	r1, [r0, #76]	; 0x4c
F:\AT32-workspace\AT32F403ACGU7_clone_windows_desktop_virtual_com_port\Release/../usbd_drivers/usbd_core.c:637
    udev->ept_in[i_index].inout         = DATA_TRANS_IN;
 8000dd8:	f880 204e 	strb.w	r2, [r0, #78]	; 0x4e
 8000ddc:	f880 206e 	strb.w	r2, [r0, #110]	; 0x6e
 8000de0:	f880 208e 	strb.w	r2, [r0, #142]	; 0x8e
 8000de4:	f880 20ae 	strb.w	r2, [r0, #174]	; 0xae
F:\AT32-workspace\AT32F403ACGU7_clone_windows_desktop_virtual_com_port\Release/../usbd_drivers/usbd_core.c:635
    udev->ept_in[i_index].eptn        = i_index;
 8000de8:	8183      	strh	r3, [r0, #12]
F:\AT32-workspace\AT32F403ACGU7_clone_windows_desktop_virtual_com_port\Release/../usbd_drivers/usbd_core.c:639
    udev->ept_in[i_index].maxpacket   = 0;
    udev->ept_in[i_index].trans_buf   = 0;
 8000dea:	6203      	str	r3, [r0, #32]
F:\AT32-workspace\AT32F403ACGU7_clone_windows_desktop_virtual_com_port\Release/../usbd_drivers/usbd_core.c:640
    udev->ept_in[i_index].total_len   = 0;
 8000dec:	8343      	strh	r3, [r0, #26]
F:\AT32-workspace\AT32F403ACGU7_clone_windows_desktop_virtual_com_port\Release/../usbd_drivers/usbd_core.c:641
    udev->ept_in[i_index].tx_addr     = 0;
 8000dee:	6103      	str	r3, [r0, #16]
F:\AT32-workspace\AT32F403ACGU7_clone_windows_desktop_virtual_com_port\Release/../usbd_drivers/usbd_core.c:638
    udev->ept_in[i_index].maxpacket   = 0;
 8000df0:	8283      	strh	r3, [r0, #20]
F:\AT32-workspace\AT32F403ACGU7_clone_windows_desktop_virtual_com_port\Release/../usbd_drivers/usbd_core.c:635
    udev->ept_in[i_index].eptn        = i_index;
 8000df2:	8585      	strh	r5, [r0, #44]	; 0x2c
F:\AT32-workspace\AT32F403ACGU7_clone_windows_desktop_virtual_com_port\Release/../usbd_drivers/usbd_core.c:639
    udev->ept_in[i_index].trans_buf   = 0;
 8000df4:	6403      	str	r3, [r0, #64]	; 0x40
F:\AT32-workspace\AT32F403ACGU7_clone_windows_desktop_virtual_com_port\Release/../usbd_drivers/usbd_core.c:640
    udev->ept_in[i_index].total_len   = 0;
 8000df6:	8743      	strh	r3, [r0, #58]	; 0x3a
F:\AT32-workspace\AT32F403ACGU7_clone_windows_desktop_virtual_com_port\Release/../usbd_drivers/usbd_core.c:641
    udev->ept_in[i_index].tx_addr     = 0;
 8000df8:	6303      	str	r3, [r0, #48]	; 0x30
F:\AT32-workspace\AT32F403ACGU7_clone_windows_desktop_virtual_com_port\Release/../usbd_drivers/usbd_core.c:638
    udev->ept_in[i_index].maxpacket   = 0;
 8000dfa:	8683      	strh	r3, [r0, #52]	; 0x34
F:\AT32-workspace\AT32F403ACGU7_clone_windows_desktop_virtual_com_port\Release/../usbd_drivers/usbd_core.c:639
    udev->ept_in[i_index].trans_buf   = 0;
 8000dfc:	6603      	str	r3, [r0, #96]	; 0x60
F:\AT32-workspace\AT32F403ACGU7_clone_windows_desktop_virtual_com_port\Release/../usbd_drivers/usbd_core.c:640
    udev->ept_in[i_index].total_len   = 0;
 8000dfe:	f8a0 305a 	strh.w	r3, [r0, #90]	; 0x5a
F:\AT32-workspace\AT32F403ACGU7_clone_windows_desktop_virtual_com_port\Release/../usbd_drivers/usbd_core.c:641
    udev->ept_in[i_index].tx_addr     = 0;
 8000e02:	6503      	str	r3, [r0, #80]	; 0x50
F:\AT32-workspace\AT32F403ACGU7_clone_windows_desktop_virtual_com_port\Release/../usbd_drivers/usbd_core.c:638
    udev->ept_in[i_index].maxpacket   = 0;
 8000e04:	f8a0 3054 	strh.w	r3, [r0, #84]	; 0x54
F:\AT32-workspace\AT32F403ACGU7_clone_windows_desktop_virtual_com_port\Release/../usbd_drivers/usbd_core.c:639
    udev->ept_in[i_index].trans_buf   = 0;
 8000e08:	f8c0 3080 	str.w	r3, [r0, #128]	; 0x80
F:\AT32-workspace\AT32F403ACGU7_clone_windows_desktop_virtual_com_port\Release/../usbd_drivers/usbd_core.c:640
    udev->ept_in[i_index].total_len   = 0;
 8000e0c:	f8a0 307a 	strh.w	r3, [r0, #122]	; 0x7a
F:\AT32-workspace\AT32F403ACGU7_clone_windows_desktop_virtual_com_port\Release/../usbd_drivers/usbd_core.c:641
    udev->ept_in[i_index].tx_addr     = 0;
 8000e10:	6703      	str	r3, [r0, #112]	; 0x70
F:\AT32-workspace\AT32F403ACGU7_clone_windows_desktop_virtual_com_port\Release/../usbd_drivers/usbd_core.c:638
    udev->ept_in[i_index].maxpacket   = 0;
 8000e12:	f8a0 3074 	strh.w	r3, [r0, #116]	; 0x74
F:\AT32-workspace\AT32F403ACGU7_clone_windows_desktop_virtual_com_port\Release/../usbd_drivers/usbd_core.c:639
    udev->ept_in[i_index].trans_buf   = 0;
 8000e16:	f8c0 30a0 	str.w	r3, [r0, #160]	; 0xa0
F:\AT32-workspace\AT32F403ACGU7_clone_windows_desktop_virtual_com_port\Release/../usbd_drivers/usbd_core.c:640
    udev->ept_in[i_index].total_len   = 0;
 8000e1a:	f8a0 309a 	strh.w	r3, [r0, #154]	; 0x9a
F:\AT32-workspace\AT32F403ACGU7_clone_windows_desktop_virtual_com_port\Release/../usbd_drivers/usbd_core.c:641
    udev->ept_in[i_index].tx_addr     = 0;
 8000e1e:	f8c0 3090 	str.w	r3, [r0, #144]	; 0x90
F:\AT32-workspace\AT32F403ACGU7_clone_windows_desktop_virtual_com_port\Release/../usbd_drivers/usbd_core.c:638
    udev->ept_in[i_index].maxpacket   = 0;
 8000e22:	f8a0 3094 	strh.w	r3, [r0, #148]	; 0x94
F:\AT32-workspace\AT32F403ACGU7_clone_windows_desktop_virtual_com_port\Release/../usbd_drivers/usbd_core.c:635
    udev->ept_in[i_index].eptn        = i_index;
 8000e26:	f8a0 406c 	strh.w	r4, [r0, #108]	; 0x6c
 8000e2a:	f8a0 e08c 	strh.w	lr, [r0, #140]	; 0x8c
 8000e2e:	f8a0 c0ac 	strh.w	ip, [r0, #172]	; 0xac
F:\AT32-workspace\AT32F403ACGU7_clone_windows_desktop_virtual_com_port\Release/../usbd_drivers/usbd_core.c:648
  }

  /* init out endpoint info structure */
  for(i_index = 0; i_index < USB_EPT_MAX_NUM; i_index ++)
  {
    udev->ept_out[i_index].eptn        = i_index;
 8000e32:	f8a0 114c 	strh.w	r1, [r0, #332]	; 0x14c
F:\AT32-workspace\AT32F403ACGU7_clone_windows_desktop_virtual_com_port\Release/../usbd_drivers/usbd_core.c:637
    udev->ept_in[i_index].inout         = DATA_TRANS_IN;
 8000e36:	f880 20ce 	strb.w	r2, [r0, #206]	; 0xce
 8000e3a:	f880 20ee 	strb.w	r2, [r0, #238]	; 0xee
F:\AT32-workspace\AT32F403ACGU7_clone_windows_desktop_virtual_com_port\Release/../usbd_drivers/usbd_core.c:635
    udev->ept_in[i_index].eptn        = i_index;
 8000e3e:	f240 6106 	movw	r1, #1542	; 0x606
 8000e42:	f240 7207 	movw	r2, #1799	; 0x707
F:\AT32-workspace\AT32F403ACGU7_clone_windows_desktop_virtual_com_port\Release/../usbd_drivers/usbd_core.c:639
    udev->ept_in[i_index].trans_buf   = 0;
 8000e46:	f8c0 30c0 	str.w	r3, [r0, #192]	; 0xc0
F:\AT32-workspace\AT32F403ACGU7_clone_windows_desktop_virtual_com_port\Release/../usbd_drivers/usbd_core.c:648
    udev->ept_out[i_index].eptn        = i_index;
 8000e4a:	f8a0 512c 	strh.w	r5, [r0, #300]	; 0x12c
F:\AT32-workspace\AT32F403ACGU7_clone_windows_desktop_virtual_com_port\Release/../usbd_drivers/usbd_core.c:640
    udev->ept_in[i_index].total_len   = 0;
 8000e4e:	f8a0 30ba 	strh.w	r3, [r0, #186]	; 0xba
F:\AT32-workspace\AT32F403ACGU7_clone_windows_desktop_virtual_com_port\Release/../usbd_drivers/usbd_core.c:641
    udev->ept_in[i_index].tx_addr     = 0;
 8000e52:	f8c0 30b0 	str.w	r3, [r0, #176]	; 0xb0
F:\AT32-workspace\AT32F403ACGU7_clone_windows_desktop_virtual_com_port\Release/../usbd_drivers/usbd_core.c:638
    udev->ept_in[i_index].maxpacket   = 0;
 8000e56:	f8a0 30b4 	strh.w	r3, [r0, #180]	; 0xb4
F:\AT32-workspace\AT32F403ACGU7_clone_windows_desktop_virtual_com_port\Release/../usbd_drivers/usbd_core.c:639
    udev->ept_in[i_index].trans_buf   = 0;
 8000e5a:	f8c0 30e0 	str.w	r3, [r0, #224]	; 0xe0
F:\AT32-workspace\AT32F403ACGU7_clone_windows_desktop_virtual_com_port\Release/../usbd_drivers/usbd_core.c:640
    udev->ept_in[i_index].total_len   = 0;
 8000e5e:	f8a0 30da 	strh.w	r3, [r0, #218]	; 0xda
F:\AT32-workspace\AT32F403ACGU7_clone_windows_desktop_virtual_com_port\Release/../usbd_drivers/usbd_core.c:641
    udev->ept_in[i_index].tx_addr     = 0;
 8000e62:	f8c0 30d0 	str.w	r3, [r0, #208]	; 0xd0
F:\AT32-workspace\AT32F403ACGU7_clone_windows_desktop_virtual_com_port\Release/../usbd_drivers/usbd_core.c:638
    udev->ept_in[i_index].maxpacket   = 0;
 8000e66:	f8a0 30d4 	strh.w	r3, [r0, #212]	; 0xd4
F:\AT32-workspace\AT32F403ACGU7_clone_windows_desktop_virtual_com_port\Release/../usbd_drivers/usbd_core.c:639
    udev->ept_in[i_index].trans_buf   = 0;
 8000e6a:	f8c0 3100 	str.w	r3, [r0, #256]	; 0x100
F:\AT32-workspace\AT32F403ACGU7_clone_windows_desktop_virtual_com_port\Release/../usbd_drivers/usbd_core.c:640
    udev->ept_in[i_index].total_len   = 0;
 8000e6e:	f8a0 30fa 	strh.w	r3, [r0, #250]	; 0xfa
F:\AT32-workspace\AT32F403ACGU7_clone_windows_desktop_virtual_com_port\Release/../usbd_drivers/usbd_core.c:641
    udev->ept_in[i_index].tx_addr     = 0;
 8000e72:	f8c0 30f0 	str.w	r3, [r0, #240]	; 0xf0
F:\AT32-workspace\AT32F403ACGU7_clone_windows_desktop_virtual_com_port\Release/../usbd_drivers/usbd_core.c:638
    udev->ept_in[i_index].maxpacket   = 0;
 8000e76:	f8a0 30f4 	strh.w	r3, [r0, #244]	; 0xf4
F:\AT32-workspace\AT32F403ACGU7_clone_windows_desktop_virtual_com_port\Release/../usbd_drivers/usbd_core.c:648
    udev->ept_out[i_index].eptn        = i_index;
 8000e7a:	f8a0 310c 	strh.w	r3, [r0, #268]	; 0x10c
F:\AT32-workspace\AT32F403ACGU7_clone_windows_desktop_virtual_com_port\Release/../usbd_drivers/usbd_core.c:650
    udev->ept_out[i_index].ept_address = i_index;
    udev->ept_out[i_index].inout         = DATA_TRANS_OUT;
 8000e7e:	f880 310e 	strb.w	r3, [r0, #270]	; 0x10e
F:\AT32-workspace\AT32F403ACGU7_clone_windows_desktop_virtual_com_port\Release/../usbd_drivers/usbd_core.c:652
    udev->ept_out[i_index].maxpacket   = 0;
    udev->ept_out[i_index].trans_buf   = 0;
 8000e82:	f8c0 3120 	str.w	r3, [r0, #288]	; 0x120
F:\AT32-workspace\AT32F403ACGU7_clone_windows_desktop_virtual_com_port\Release/../usbd_drivers/usbd_core.c:653
    udev->ept_out[i_index].total_len   = 0;
 8000e86:	f8a0 311a 	strh.w	r3, [r0, #282]	; 0x11a
F:\AT32-workspace\AT32F403ACGU7_clone_windows_desktop_virtual_com_port\Release/../usbd_drivers/usbd_core.c:655
    udev->ept_out[i_index].rx_addr     = 0;
    udev->ept_out[i_index].tx_addr     = 0;
 8000e8a:	f8c0 3110 	str.w	r3, [r0, #272]	; 0x110
F:\AT32-workspace\AT32F403ACGU7_clone_windows_desktop_virtual_com_port\Release/../usbd_drivers/usbd_core.c:651
    udev->ept_out[i_index].maxpacket   = 0;
 8000e8e:	f8a0 3114 	strh.w	r3, [r0, #276]	; 0x114
F:\AT32-workspace\AT32F403ACGU7_clone_windows_desktop_virtual_com_port\Release/../usbd_drivers/usbd_core.c:650
    udev->ept_out[i_index].inout         = DATA_TRANS_OUT;
 8000e92:	f880 312e 	strb.w	r3, [r0, #302]	; 0x12e
F:\AT32-workspace\AT32F403ACGU7_clone_windows_desktop_virtual_com_port\Release/../usbd_drivers/usbd_core.c:652
    udev->ept_out[i_index].trans_buf   = 0;
 8000e96:	f8c0 3140 	str.w	r3, [r0, #320]	; 0x140
F:\AT32-workspace\AT32F403ACGU7_clone_windows_desktop_virtual_com_port\Release/../usbd_drivers/usbd_core.c:653
    udev->ept_out[i_index].total_len   = 0;
 8000e9a:	f8a0 313a 	strh.w	r3, [r0, #314]	; 0x13a
F:\AT32-workspace\AT32F403ACGU7_clone_windows_desktop_virtual_com_port\Release/../usbd_drivers/usbd_core.c:655
    udev->ept_out[i_index].tx_addr     = 0;
 8000e9e:	f8c0 3130 	str.w	r3, [r0, #304]	; 0x130
F:\AT32-workspace\AT32F403ACGU7_clone_windows_desktop_virtual_com_port\Release/../usbd_drivers/usbd_core.c:651
    udev->ept_out[i_index].maxpacket   = 0;
 8000ea2:	f8a0 3134 	strh.w	r3, [r0, #308]	; 0x134
F:\AT32-workspace\AT32F403ACGU7_clone_windows_desktop_virtual_com_port\Release/../usbd_drivers/usbd_core.c:650
    udev->ept_out[i_index].inout         = DATA_TRANS_OUT;
 8000ea6:	f880 314e 	strb.w	r3, [r0, #334]	; 0x14e
F:\AT32-workspace\AT32F403ACGU7_clone_windows_desktop_virtual_com_port\Release/../usbd_drivers/usbd_core.c:652
    udev->ept_out[i_index].trans_buf   = 0;
 8000eaa:	f8c0 3160 	str.w	r3, [r0, #352]	; 0x160
F:\AT32-workspace\AT32F403ACGU7_clone_windows_desktop_virtual_com_port\Release/../usbd_drivers/usbd_core.c:653
    udev->ept_out[i_index].total_len   = 0;
 8000eae:	f8a0 315a 	strh.w	r3, [r0, #346]	; 0x15a
F:\AT32-workspace\AT32F403ACGU7_clone_windows_desktop_virtual_com_port\Release/../usbd_drivers/usbd_core.c:655
    udev->ept_out[i_index].tx_addr     = 0;
 8000eb2:	f8c0 3150 	str.w	r3, [r0, #336]	; 0x150
F:\AT32-workspace\AT32F403ACGU7_clone_windows_desktop_virtual_com_port\Release/../usbd_drivers/usbd_core.c:635
    udev->ept_in[i_index].eptn        = i_index;
 8000eb6:	f8a0 10cc 	strh.w	r1, [r0, #204]	; 0xcc
 8000eba:	f8a0 20ec 	strh.w	r2, [r0, #236]	; 0xec
F:\AT32-workspace\AT32F403ACGU7_clone_windows_desktop_virtual_com_port\Release/../usbd_drivers/usbd_core.c:651
    udev->ept_out[i_index].maxpacket   = 0;
 8000ebe:	f8a0 3154 	strh.w	r3, [r0, #340]	; 0x154
F:\AT32-workspace\AT32F403ACGU7_clone_windows_desktop_virtual_com_port\Release/../usbd_drivers/usbd_core.c:648
    udev->ept_out[i_index].eptn        = i_index;
 8000ec2:	f8a0 416c 	strh.w	r4, [r0, #364]	; 0x16c
 8000ec6:	f8a0 e18c 	strh.w	lr, [r0, #396]	; 0x18c
F:\AT32-workspace\AT32F403ACGU7_clone_windows_desktop_virtual_com_port\Release/../usbd_drivers/usbd_core.c:650
    udev->ept_out[i_index].inout         = DATA_TRANS_OUT;
 8000eca:	f880 316e 	strb.w	r3, [r0, #366]	; 0x16e
F:\AT32-workspace\AT32F403ACGU7_clone_windows_desktop_virtual_com_port\Release/../usbd_drivers/usbd_core.c:652
    udev->ept_out[i_index].trans_buf   = 0;
 8000ece:	f8c0 3180 	str.w	r3, [r0, #384]	; 0x180
F:\AT32-workspace\AT32F403ACGU7_clone_windows_desktop_virtual_com_port\Release/../usbd_drivers/usbd_core.c:653
    udev->ept_out[i_index].total_len   = 0;
 8000ed2:	f8a0 317a 	strh.w	r3, [r0, #378]	; 0x17a
F:\AT32-workspace\AT32F403ACGU7_clone_windows_desktop_virtual_com_port\Release/../usbd_drivers/usbd_core.c:655
    udev->ept_out[i_index].tx_addr     = 0;
 8000ed6:	f8c0 3170 	str.w	r3, [r0, #368]	; 0x170
F:\AT32-workspace\AT32F403ACGU7_clone_windows_desktop_virtual_com_port\Release/../usbd_drivers/usbd_core.c:651
    udev->ept_out[i_index].maxpacket   = 0;
 8000eda:	f8a0 3174 	strh.w	r3, [r0, #372]	; 0x174
F:\AT32-workspace\AT32F403ACGU7_clone_windows_desktop_virtual_com_port\Release/../usbd_drivers/usbd_core.c:650
    udev->ept_out[i_index].inout         = DATA_TRANS_OUT;
 8000ede:	f880 318e 	strb.w	r3, [r0, #398]	; 0x18e
F:\AT32-workspace\AT32F403ACGU7_clone_windows_desktop_virtual_com_port\Release/../usbd_drivers/usbd_core.c:652
    udev->ept_out[i_index].trans_buf   = 0;
 8000ee2:	f8c0 31a0 	str.w	r3, [r0, #416]	; 0x1a0
F:\AT32-workspace\AT32F403ACGU7_clone_windows_desktop_virtual_com_port\Release/../usbd_drivers/usbd_core.c:653
    udev->ept_out[i_index].total_len   = 0;
 8000ee6:	f8a0 319a 	strh.w	r3, [r0, #410]	; 0x19a
F:\AT32-workspace\AT32F403ACGU7_clone_windows_desktop_virtual_com_port\Release/../usbd_drivers/usbd_core.c:655
    udev->ept_out[i_index].tx_addr     = 0;
 8000eea:	f8c0 3190 	str.w	r3, [r0, #400]	; 0x190
F:\AT32-workspace\AT32F403ACGU7_clone_windows_desktop_virtual_com_port\Release/../usbd_drivers/usbd_core.c:651
    udev->ept_out[i_index].maxpacket   = 0;
 8000eee:	f8a0 3194 	strh.w	r3, [r0, #404]	; 0x194
F:\AT32-workspace\AT32F403ACGU7_clone_windows_desktop_virtual_com_port\Release/../usbd_drivers/usbd_core.c:648
    udev->ept_out[i_index].eptn        = i_index;
 8000ef2:	f8a0 c1ac 	strh.w	ip, [r0, #428]	; 0x1ac
F:\AT32-workspace\AT32F403ACGU7_clone_windows_desktop_virtual_com_port\Release/../usbd_drivers/usbd_core.c:650
    udev->ept_out[i_index].inout         = DATA_TRANS_OUT;
 8000ef6:	f880 31ae 	strb.w	r3, [r0, #430]	; 0x1ae
F:\AT32-workspace\AT32F403ACGU7_clone_windows_desktop_virtual_com_port\Release/../usbd_drivers/usbd_core.c:652
    udev->ept_out[i_index].trans_buf   = 0;
 8000efa:	f8c0 31c0 	str.w	r3, [r0, #448]	; 0x1c0
F:\AT32-workspace\AT32F403ACGU7_clone_windows_desktop_virtual_com_port\Release/../usbd_drivers/usbd_core.c:653
    udev->ept_out[i_index].total_len   = 0;
 8000efe:	f8a0 31ba 	strh.w	r3, [r0, #442]	; 0x1ba
F:\AT32-workspace\AT32F403ACGU7_clone_windows_desktop_virtual_com_port\Release/../usbd_drivers/usbd_core.c:655
    udev->ept_out[i_index].tx_addr     = 0;
 8000f02:	f8c0 31b0 	str.w	r3, [r0, #432]	; 0x1b0
F:\AT32-workspace\AT32F403ACGU7_clone_windows_desktop_virtual_com_port\Release/../usbd_drivers/usbd_core.c:651
    udev->ept_out[i_index].maxpacket   = 0;
 8000f06:	f8a0 31b4 	strh.w	r3, [r0, #436]	; 0x1b4
F:\AT32-workspace\AT32F403ACGU7_clone_windows_desktop_virtual_com_port\Release/../usbd_drivers/usbd_core.c:648
    udev->ept_out[i_index].eptn        = i_index;
 8000f0a:	f8a0 11cc 	strh.w	r1, [r0, #460]	; 0x1cc
F:\AT32-workspace\AT32F403ACGU7_clone_windows_desktop_virtual_com_port\Release/../usbd_drivers/usbd_core.c:650
    udev->ept_out[i_index].inout         = DATA_TRANS_OUT;
 8000f0e:	f880 31ce 	strb.w	r3, [r0, #462]	; 0x1ce
F:\AT32-workspace\AT32F403ACGU7_clone_windows_desktop_virtual_com_port\Release/../usbd_drivers/usbd_core.c:652
    udev->ept_out[i_index].trans_buf   = 0;
 8000f12:	f8c0 31e0 	str.w	r3, [r0, #480]	; 0x1e0
F:\AT32-workspace\AT32F403ACGU7_clone_windows_desktop_virtual_com_port\Release/../usbd_drivers/usbd_core.c:653
    udev->ept_out[i_index].total_len   = 0;
 8000f16:	f8a0 31da 	strh.w	r3, [r0, #474]	; 0x1da
F:\AT32-workspace\AT32F403ACGU7_clone_windows_desktop_virtual_com_port\Release/../usbd_drivers/usbd_core.c:655
    udev->ept_out[i_index].tx_addr     = 0;
 8000f1a:	f8c0 31d0 	str.w	r3, [r0, #464]	; 0x1d0
F:\AT32-workspace\AT32F403ACGU7_clone_windows_desktop_virtual_com_port\Release/../usbd_drivers/usbd_core.c:651
    udev->ept_out[i_index].maxpacket   = 0;
 8000f1e:	f8a0 31d4 	strh.w	r3, [r0, #468]	; 0x1d4
F:\AT32-workspace\AT32F403ACGU7_clone_windows_desktop_virtual_com_port\Release/../usbd_drivers/usbd_core.c:648
    udev->ept_out[i_index].eptn        = i_index;
 8000f22:	f8a0 21ec 	strh.w	r2, [r0, #492]	; 0x1ec
F:\AT32-workspace\AT32F403ACGU7_clone_windows_desktop_virtual_com_port\Release/../usbd_drivers/usbd_core.c:650
    udev->ept_out[i_index].inout         = DATA_TRANS_OUT;
 8000f26:	f880 31ee 	strb.w	r3, [r0, #494]	; 0x1ee
F:\AT32-workspace\AT32F403ACGU7_clone_windows_desktop_virtual_com_port\Release/../usbd_drivers/usbd_core.c:651
    udev->ept_out[i_index].maxpacket   = 0;
 8000f2a:	f8a0 31f4 	strh.w	r3, [r0, #500]	; 0x1f4
F:\AT32-workspace\AT32F403ACGU7_clone_windows_desktop_virtual_com_port\Release/../usbd_drivers/usbd_core.c:652
    udev->ept_out[i_index].trans_buf   = 0;
 8000f2e:	f8c0 3200 	str.w	r3, [r0, #512]	; 0x200
F:\AT32-workspace\AT32F403ACGU7_clone_windows_desktop_virtual_com_port\Release/../usbd_drivers/usbd_core.c:653
    udev->ept_out[i_index].total_len   = 0;
 8000f32:	f8a0 31fa 	strh.w	r3, [r0, #506]	; 0x1fa
F:\AT32-workspace\AT32F403ACGU7_clone_windows_desktop_virtual_com_port\Release/../usbd_drivers/usbd_core.c:655
    udev->ept_out[i_index].tx_addr     = 0;
 8000f36:	f8c0 31f0 	str.w	r3, [r0, #496]	; 0x1f0
F:\AT32-workspace\AT32F403ACGU7_clone_windows_desktop_virtual_com_port\Release/../usbd_drivers/usbd_core.c:658
  }
  return;
}
 8000f3a:	bd30      	pop	{r4, r5, pc}

08000f3c <usbd_core_init>:
usbd_core_init():
F:\AT32-workspace\AT32F403ACGU7_clone_windows_desktop_virtual_com_port\Release/../usbd_drivers/usbd_core.c:674
void usbd_core_init(usbd_core_type *udev,
                    usb_reg_type *usb_reg,
                    usbd_class_handler *class_handler,
                    usbd_desc_handler *desc_handler,
                    uint8_t core_id)
{
 8000f3c:	b5f0      	push	{r4, r5, r6, r7, lr}
 8000f3e:	4684      	mov	ip, r0
usbd_ept_defaut_init():
F:\AT32-workspace\AT32F403ACGU7_clone_windows_desktop_virtual_com_port\Release/../usbd_drivers/usbd_core.c:635
    udev->ept_in[i_index].eptn        = i_index;
 8000f40:	2400      	movs	r4, #0
usbd_core_init():
F:\AT32-workspace\AT32F403ACGU7_clone_windows_desktop_virtual_com_port\Release/../usbd_drivers/usbd_core.c:685

  /* set usb register type */
  udev->usb_reg = usb_reg;

  /* set usb connect state to default */
  udev->conn_state = USB_CONN_STATE_DEFAULT;
 8000f42:	f04f 0e01 	mov.w	lr, #1
F:\AT32-workspace\AT32F403ACGU7_clone_windows_desktop_virtual_com_port\Release/../usbd_drivers/usbd_core.c:679
  udev->desc_handler = desc_handler;
 8000f46:	e9cc 2301 	strd	r2, r3, [ip, #4]
usbd_ept_defaut_init():
F:\AT32-workspace\AT32F403ACGU7_clone_windows_desktop_virtual_com_port\Release/../usbd_drivers/usbd_core.c:635
    udev->ept_in[i_index].eptn        = i_index;
 8000f4a:	f240 2702 	movw	r7, #514	; 0x202
 8000f4e:	f240 1301 	movw	r3, #257	; 0x101
 8000f52:	f240 3603 	movw	r6, #771	; 0x303
 8000f56:	f240 4504 	movw	r5, #1028	; 0x404
usbd_core_init():
F:\AT32-workspace\AT32F403ACGU7_clone_windows_desktop_virtual_com_port\Release/../usbd_drivers/usbd_core.c:682
  udev->usb_reg = usb_reg;
 8000f5a:	f8cc 1000 	str.w	r1, [ip]
F:\AT32-workspace\AT32F403ACGU7_clone_windows_desktop_virtual_com_port\Release/../usbd_drivers/usbd_core.c:685
  udev->conn_state = USB_CONN_STATE_DEFAULT;
 8000f5e:	f88c e224 	strb.w	lr, [ip, #548]	; 0x224
usbd_ept_defaut_init():
F:\AT32-workspace\AT32F403ACGU7_clone_windows_desktop_virtual_com_port\Release/../usbd_drivers/usbd_core.c:635
    udev->ept_in[i_index].eptn        = i_index;
 8000f62:	f8ac 400c 	strh.w	r4, [ip, #12]
F:\AT32-workspace\AT32F403ACGU7_clone_windows_desktop_virtual_com_port\Release/../usbd_drivers/usbd_core.c:637
    udev->ept_in[i_index].inout         = DATA_TRANS_IN;
 8000f66:	f88c e00e 	strb.w	lr, [ip, #14]
F:\AT32-workspace\AT32F403ACGU7_clone_windows_desktop_virtual_com_port\Release/../usbd_drivers/usbd_core.c:639
    udev->ept_in[i_index].trans_buf   = 0;
 8000f6a:	f8cc 4020 	str.w	r4, [ip, #32]
F:\AT32-workspace\AT32F403ACGU7_clone_windows_desktop_virtual_com_port\Release/../usbd_drivers/usbd_core.c:640
    udev->ept_in[i_index].total_len   = 0;
 8000f6e:	f8ac 401a 	strh.w	r4, [ip, #26]
F:\AT32-workspace\AT32F403ACGU7_clone_windows_desktop_virtual_com_port\Release/../usbd_drivers/usbd_core.c:641
    udev->ept_in[i_index].tx_addr     = 0;
 8000f72:	f8cc 4010 	str.w	r4, [ip, #16]
F:\AT32-workspace\AT32F403ACGU7_clone_windows_desktop_virtual_com_port\Release/../usbd_drivers/usbd_core.c:638
    udev->ept_in[i_index].maxpacket   = 0;
 8000f76:	f8ac 4014 	strh.w	r4, [ip, #20]
F:\AT32-workspace\AT32F403ACGU7_clone_windows_desktop_virtual_com_port\Release/../usbd_drivers/usbd_core.c:635
    udev->ept_in[i_index].eptn        = i_index;
 8000f7a:	f8ac 302c 	strh.w	r3, [ip, #44]	; 0x2c
F:\AT32-workspace\AT32F403ACGU7_clone_windows_desktop_virtual_com_port\Release/../usbd_drivers/usbd_core.c:637
    udev->ept_in[i_index].inout         = DATA_TRANS_IN;
 8000f7e:	f88c e02e 	strb.w	lr, [ip, #46]	; 0x2e
F:\AT32-workspace\AT32F403ACGU7_clone_windows_desktop_virtual_com_port\Release/../usbd_drivers/usbd_core.c:639
    udev->ept_in[i_index].trans_buf   = 0;
 8000f82:	f8cc 4040 	str.w	r4, [ip, #64]	; 0x40
F:\AT32-workspace\AT32F403ACGU7_clone_windows_desktop_virtual_com_port\Release/../usbd_drivers/usbd_core.c:640
    udev->ept_in[i_index].total_len   = 0;
 8000f86:	f8ac 403a 	strh.w	r4, [ip, #58]	; 0x3a
F:\AT32-workspace\AT32F403ACGU7_clone_windows_desktop_virtual_com_port\Release/../usbd_drivers/usbd_core.c:641
    udev->ept_in[i_index].tx_addr     = 0;
 8000f8a:	f8cc 4030 	str.w	r4, [ip, #48]	; 0x30
F:\AT32-workspace\AT32F403ACGU7_clone_windows_desktop_virtual_com_port\Release/../usbd_drivers/usbd_core.c:638
    udev->ept_in[i_index].maxpacket   = 0;
 8000f8e:	f8ac 4034 	strh.w	r4, [ip, #52]	; 0x34
F:\AT32-workspace\AT32F403ACGU7_clone_windows_desktop_virtual_com_port\Release/../usbd_drivers/usbd_core.c:637
    udev->ept_in[i_index].inout         = DATA_TRANS_IN;
 8000f92:	f88c e04e 	strb.w	lr, [ip, #78]	; 0x4e
F:\AT32-workspace\AT32F403ACGU7_clone_windows_desktop_virtual_com_port\Release/../usbd_drivers/usbd_core.c:639
    udev->ept_in[i_index].trans_buf   = 0;
 8000f96:	f8cc 4060 	str.w	r4, [ip, #96]	; 0x60
F:\AT32-workspace\AT32F403ACGU7_clone_windows_desktop_virtual_com_port\Release/../usbd_drivers/usbd_core.c:640
    udev->ept_in[i_index].total_len   = 0;
 8000f9a:	f8ac 405a 	strh.w	r4, [ip, #90]	; 0x5a
F:\AT32-workspace\AT32F403ACGU7_clone_windows_desktop_virtual_com_port\Release/../usbd_drivers/usbd_core.c:641
    udev->ept_in[i_index].tx_addr     = 0;
 8000f9e:	f8cc 4050 	str.w	r4, [ip, #80]	; 0x50
F:\AT32-workspace\AT32F403ACGU7_clone_windows_desktop_virtual_com_port\Release/../usbd_drivers/usbd_core.c:638
    udev->ept_in[i_index].maxpacket   = 0;
 8000fa2:	f8ac 4054 	strh.w	r4, [ip, #84]	; 0x54
F:\AT32-workspace\AT32F403ACGU7_clone_windows_desktop_virtual_com_port\Release/../usbd_drivers/usbd_core.c:637
    udev->ept_in[i_index].inout         = DATA_TRANS_IN;
 8000fa6:	f88c e06e 	strb.w	lr, [ip, #110]	; 0x6e
F:\AT32-workspace\AT32F403ACGU7_clone_windows_desktop_virtual_com_port\Release/../usbd_drivers/usbd_core.c:639
    udev->ept_in[i_index].trans_buf   = 0;
 8000faa:	f8cc 4080 	str.w	r4, [ip, #128]	; 0x80
F:\AT32-workspace\AT32F403ACGU7_clone_windows_desktop_virtual_com_port\Release/../usbd_drivers/usbd_core.c:640
    udev->ept_in[i_index].total_len   = 0;
 8000fae:	f8ac 407a 	strh.w	r4, [ip, #122]	; 0x7a
F:\AT32-workspace\AT32F403ACGU7_clone_windows_desktop_virtual_com_port\Release/../usbd_drivers/usbd_core.c:641
    udev->ept_in[i_index].tx_addr     = 0;
 8000fb2:	f8cc 4070 	str.w	r4, [ip, #112]	; 0x70
F:\AT32-workspace\AT32F403ACGU7_clone_windows_desktop_virtual_com_port\Release/../usbd_drivers/usbd_core.c:638
    udev->ept_in[i_index].maxpacket   = 0;
 8000fb6:	f8ac 4074 	strh.w	r4, [ip, #116]	; 0x74
F:\AT32-workspace\AT32F403ACGU7_clone_windows_desktop_virtual_com_port\Release/../usbd_drivers/usbd_core.c:637
    udev->ept_in[i_index].inout         = DATA_TRANS_IN;
 8000fba:	f88c e08e 	strb.w	lr, [ip, #142]	; 0x8e
F:\AT32-workspace\AT32F403ACGU7_clone_windows_desktop_virtual_com_port\Release/../usbd_drivers/usbd_core.c:639
    udev->ept_in[i_index].trans_buf   = 0;
 8000fbe:	f8cc 40a0 	str.w	r4, [ip, #160]	; 0xa0
F:\AT32-workspace\AT32F403ACGU7_clone_windows_desktop_virtual_com_port\Release/../usbd_drivers/usbd_core.c:640
    udev->ept_in[i_index].total_len   = 0;
 8000fc2:	f8ac 409a 	strh.w	r4, [ip, #154]	; 0x9a
F:\AT32-workspace\AT32F403ACGU7_clone_windows_desktop_virtual_com_port\Release/../usbd_drivers/usbd_core.c:635
    udev->ept_in[i_index].eptn        = i_index;
 8000fc6:	f8ac 704c 	strh.w	r7, [ip, #76]	; 0x4c
 8000fca:	f8ac 606c 	strh.w	r6, [ip, #108]	; 0x6c
 8000fce:	f240 6206 	movw	r2, #1542	; 0x606
 8000fd2:	f8ac 508c 	strh.w	r5, [ip, #140]	; 0x8c
usbd_core_init():
F:\AT32-workspace\AT32F403ACGU7_clone_windows_desktop_virtual_com_port\Release/../usbd_drivers/usbd_core.c:674
{
 8000fd6:	4608      	mov	r0, r1
usbd_ept_defaut_init():
F:\AT32-workspace\AT32F403ACGU7_clone_windows_desktop_virtual_com_port\Release/../usbd_drivers/usbd_core.c:648
    udev->ept_out[i_index].eptn        = i_index;
 8000fd8:	f8ac 312c 	strh.w	r3, [ip, #300]	; 0x12c
F:\AT32-workspace\AT32F403ACGU7_clone_windows_desktop_virtual_com_port\Release/../usbd_drivers/usbd_core.c:635
    udev->ept_in[i_index].eptn        = i_index;
 8000fdc:	f240 5105 	movw	r1, #1285	; 0x505
 8000fe0:	f240 7307 	movw	r3, #1799	; 0x707
F:\AT32-workspace\AT32F403ACGU7_clone_windows_desktop_virtual_com_port\Release/../usbd_drivers/usbd_core.c:641
    udev->ept_in[i_index].tx_addr     = 0;
 8000fe4:	f8cc 4090 	str.w	r4, [ip, #144]	; 0x90
F:\AT32-workspace\AT32F403ACGU7_clone_windows_desktop_virtual_com_port\Release/../usbd_drivers/usbd_core.c:638
    udev->ept_in[i_index].maxpacket   = 0;
 8000fe8:	f8ac 4094 	strh.w	r4, [ip, #148]	; 0x94
F:\AT32-workspace\AT32F403ACGU7_clone_windows_desktop_virtual_com_port\Release/../usbd_drivers/usbd_core.c:637
    udev->ept_in[i_index].inout         = DATA_TRANS_IN;
 8000fec:	f88c e0ae 	strb.w	lr, [ip, #174]	; 0xae
F:\AT32-workspace\AT32F403ACGU7_clone_windows_desktop_virtual_com_port\Release/../usbd_drivers/usbd_core.c:639
    udev->ept_in[i_index].trans_buf   = 0;
 8000ff0:	f8cc 40c0 	str.w	r4, [ip, #192]	; 0xc0
F:\AT32-workspace\AT32F403ACGU7_clone_windows_desktop_virtual_com_port\Release/../usbd_drivers/usbd_core.c:640
    udev->ept_in[i_index].total_len   = 0;
 8000ff4:	f8ac 40ba 	strh.w	r4, [ip, #186]	; 0xba
F:\AT32-workspace\AT32F403ACGU7_clone_windows_desktop_virtual_com_port\Release/../usbd_drivers/usbd_core.c:641
    udev->ept_in[i_index].tx_addr     = 0;
 8000ff8:	f8cc 40b0 	str.w	r4, [ip, #176]	; 0xb0
F:\AT32-workspace\AT32F403ACGU7_clone_windows_desktop_virtual_com_port\Release/../usbd_drivers/usbd_core.c:638
    udev->ept_in[i_index].maxpacket   = 0;
 8000ffc:	f8ac 40b4 	strh.w	r4, [ip, #180]	; 0xb4
F:\AT32-workspace\AT32F403ACGU7_clone_windows_desktop_virtual_com_port\Release/../usbd_drivers/usbd_core.c:637
    udev->ept_in[i_index].inout         = DATA_TRANS_IN;
 8001000:	f88c e0ce 	strb.w	lr, [ip, #206]	; 0xce
 8001004:	f88c e0ee 	strb.w	lr, [ip, #238]	; 0xee
F:\AT32-workspace\AT32F403ACGU7_clone_windows_desktop_virtual_com_port\Release/../usbd_drivers/usbd_core.c:639
    udev->ept_in[i_index].trans_buf   = 0;
 8001008:	f8cc 40e0 	str.w	r4, [ip, #224]	; 0xe0
F:\AT32-workspace\AT32F403ACGU7_clone_windows_desktop_virtual_com_port\Release/../usbd_drivers/usbd_core.c:640
    udev->ept_in[i_index].total_len   = 0;
 800100c:	f8ac 40da 	strh.w	r4, [ip, #218]	; 0xda
F:\AT32-workspace\AT32F403ACGU7_clone_windows_desktop_virtual_com_port\Release/../usbd_drivers/usbd_core.c:641
    udev->ept_in[i_index].tx_addr     = 0;
 8001010:	f8cc 40d0 	str.w	r4, [ip, #208]	; 0xd0
F:\AT32-workspace\AT32F403ACGU7_clone_windows_desktop_virtual_com_port\Release/../usbd_drivers/usbd_core.c:638
    udev->ept_in[i_index].maxpacket   = 0;
 8001014:	f8ac 40d4 	strh.w	r4, [ip, #212]	; 0xd4
 8001018:	f8ac 40f4 	strh.w	r4, [ip, #244]	; 0xf4
F:\AT32-workspace\AT32F403ACGU7_clone_windows_desktop_virtual_com_port\Release/../usbd_drivers/usbd_core.c:639
    udev->ept_in[i_index].trans_buf   = 0;
 800101c:	f8cc 4100 	str.w	r4, [ip, #256]	; 0x100
F:\AT32-workspace\AT32F403ACGU7_clone_windows_desktop_virtual_com_port\Release/../usbd_drivers/usbd_core.c:640
    udev->ept_in[i_index].total_len   = 0;
 8001020:	f8ac 40fa 	strh.w	r4, [ip, #250]	; 0xfa
F:\AT32-workspace\AT32F403ACGU7_clone_windows_desktop_virtual_com_port\Release/../usbd_drivers/usbd_core.c:641
    udev->ept_in[i_index].tx_addr     = 0;
 8001024:	f8ac 40f0 	strh.w	r4, [ip, #240]	; 0xf0
F:\AT32-workspace\AT32F403ACGU7_clone_windows_desktop_virtual_com_port\Release/../usbd_drivers/usbd_core.c:642
    udev->ept_in[i_index].rx_addr     = 0;
 8001028:	f8ac 40f2 	strh.w	r4, [ip, #242]	; 0xf2
F:\AT32-workspace\AT32F403ACGU7_clone_windows_desktop_virtual_com_port\Release/../usbd_drivers/usbd_core.c:648
    udev->ept_out[i_index].eptn        = i_index;
 800102c:	f8ac 410c 	strh.w	r4, [ip, #268]	; 0x10c
F:\AT32-workspace\AT32F403ACGU7_clone_windows_desktop_virtual_com_port\Release/../usbd_drivers/usbd_core.c:650
    udev->ept_out[i_index].inout         = DATA_TRANS_OUT;
 8001030:	f88c 410e 	strb.w	r4, [ip, #270]	; 0x10e
F:\AT32-workspace\AT32F403ACGU7_clone_windows_desktop_virtual_com_port\Release/../usbd_drivers/usbd_core.c:652
    udev->ept_out[i_index].trans_buf   = 0;
 8001034:	f8cc 4120 	str.w	r4, [ip, #288]	; 0x120
F:\AT32-workspace\AT32F403ACGU7_clone_windows_desktop_virtual_com_port\Release/../usbd_drivers/usbd_core.c:653
    udev->ept_out[i_index].total_len   = 0;
 8001038:	f8ac 411a 	strh.w	r4, [ip, #282]	; 0x11a
F:\AT32-workspace\AT32F403ACGU7_clone_windows_desktop_virtual_com_port\Release/../usbd_drivers/usbd_core.c:655
    udev->ept_out[i_index].tx_addr     = 0;
 800103c:	f8cc 4110 	str.w	r4, [ip, #272]	; 0x110
F:\AT32-workspace\AT32F403ACGU7_clone_windows_desktop_virtual_com_port\Release/../usbd_drivers/usbd_core.c:651
    udev->ept_out[i_index].maxpacket   = 0;
 8001040:	f8ac 4114 	strh.w	r4, [ip, #276]	; 0x114
F:\AT32-workspace\AT32F403ACGU7_clone_windows_desktop_virtual_com_port\Release/../usbd_drivers/usbd_core.c:650
    udev->ept_out[i_index].inout         = DATA_TRANS_OUT;
 8001044:	f88c 412e 	strb.w	r4, [ip, #302]	; 0x12e
F:\AT32-workspace\AT32F403ACGU7_clone_windows_desktop_virtual_com_port\Release/../usbd_drivers/usbd_core.c:652
    udev->ept_out[i_index].trans_buf   = 0;
 8001048:	f8cc 4140 	str.w	r4, [ip, #320]	; 0x140
F:\AT32-workspace\AT32F403ACGU7_clone_windows_desktop_virtual_com_port\Release/../usbd_drivers/usbd_core.c:653
    udev->ept_out[i_index].total_len   = 0;
 800104c:	f8ac 413a 	strh.w	r4, [ip, #314]	; 0x13a
F:\AT32-workspace\AT32F403ACGU7_clone_windows_desktop_virtual_com_port\Release/../usbd_drivers/usbd_core.c:655
    udev->ept_out[i_index].tx_addr     = 0;
 8001050:	f8cc 4130 	str.w	r4, [ip, #304]	; 0x130
F:\AT32-workspace\AT32F403ACGU7_clone_windows_desktop_virtual_com_port\Release/../usbd_drivers/usbd_core.c:651
    udev->ept_out[i_index].maxpacket   = 0;
 8001054:	f8ac 4134 	strh.w	r4, [ip, #308]	; 0x134
F:\AT32-workspace\AT32F403ACGU7_clone_windows_desktop_virtual_com_port\Release/../usbd_drivers/usbd_core.c:635
    udev->ept_in[i_index].eptn        = i_index;
 8001058:	f8ac 10ac 	strh.w	r1, [ip, #172]	; 0xac
 800105c:	f8ac 20cc 	strh.w	r2, [ip, #204]	; 0xcc
 8001060:	f8ac 30ec 	strh.w	r3, [ip, #236]	; 0xec
F:\AT32-workspace\AT32F403ACGU7_clone_windows_desktop_virtual_com_port\Release/../usbd_drivers/usbd_core.c:648
    udev->ept_out[i_index].eptn        = i_index;
 8001064:	f8ac 714c 	strh.w	r7, [ip, #332]	; 0x14c
 8001068:	f8ac 616c 	strh.w	r6, [ip, #364]	; 0x16c
 800106c:	f8ac 518c 	strh.w	r5, [ip, #396]	; 0x18c
F:\AT32-workspace\AT32F403ACGU7_clone_windows_desktop_virtual_com_port\Release/../usbd_drivers/usbd_core.c:650
    udev->ept_out[i_index].inout         = DATA_TRANS_OUT;
 8001070:	f88c 414e 	strb.w	r4, [ip, #334]	; 0x14e
F:\AT32-workspace\AT32F403ACGU7_clone_windows_desktop_virtual_com_port\Release/../usbd_drivers/usbd_core.c:652
    udev->ept_out[i_index].trans_buf   = 0;
 8001074:	f8cc 4160 	str.w	r4, [ip, #352]	; 0x160
F:\AT32-workspace\AT32F403ACGU7_clone_windows_desktop_virtual_com_port\Release/../usbd_drivers/usbd_core.c:653
    udev->ept_out[i_index].total_len   = 0;
 8001078:	f8ac 415a 	strh.w	r4, [ip, #346]	; 0x15a
F:\AT32-workspace\AT32F403ACGU7_clone_windows_desktop_virtual_com_port\Release/../usbd_drivers/usbd_core.c:655
    udev->ept_out[i_index].tx_addr     = 0;
 800107c:	f8cc 4150 	str.w	r4, [ip, #336]	; 0x150
F:\AT32-workspace\AT32F403ACGU7_clone_windows_desktop_virtual_com_port\Release/../usbd_drivers/usbd_core.c:651
    udev->ept_out[i_index].maxpacket   = 0;
 8001080:	f8ac 4154 	strh.w	r4, [ip, #340]	; 0x154
F:\AT32-workspace\AT32F403ACGU7_clone_windows_desktop_virtual_com_port\Release/../usbd_drivers/usbd_core.c:650
    udev->ept_out[i_index].inout         = DATA_TRANS_OUT;
 8001084:	f88c 416e 	strb.w	r4, [ip, #366]	; 0x16e
F:\AT32-workspace\AT32F403ACGU7_clone_windows_desktop_virtual_com_port\Release/../usbd_drivers/usbd_core.c:652
    udev->ept_out[i_index].trans_buf   = 0;
 8001088:	f8cc 4180 	str.w	r4, [ip, #384]	; 0x180
F:\AT32-workspace\AT32F403ACGU7_clone_windows_desktop_virtual_com_port\Release/../usbd_drivers/usbd_core.c:653
    udev->ept_out[i_index].total_len   = 0;
 800108c:	f8ac 417a 	strh.w	r4, [ip, #378]	; 0x17a
F:\AT32-workspace\AT32F403ACGU7_clone_windows_desktop_virtual_com_port\Release/../usbd_drivers/usbd_core.c:655
    udev->ept_out[i_index].tx_addr     = 0;
 8001090:	f8cc 4170 	str.w	r4, [ip, #368]	; 0x170
F:\AT32-workspace\AT32F403ACGU7_clone_windows_desktop_virtual_com_port\Release/../usbd_drivers/usbd_core.c:651
    udev->ept_out[i_index].maxpacket   = 0;
 8001094:	f8ac 4174 	strh.w	r4, [ip, #372]	; 0x174
F:\AT32-workspace\AT32F403ACGU7_clone_windows_desktop_virtual_com_port\Release/../usbd_drivers/usbd_core.c:650
    udev->ept_out[i_index].inout         = DATA_TRANS_OUT;
 8001098:	f88c 418e 	strb.w	r4, [ip, #398]	; 0x18e
F:\AT32-workspace\AT32F403ACGU7_clone_windows_desktop_virtual_com_port\Release/../usbd_drivers/usbd_core.c:652
    udev->ept_out[i_index].trans_buf   = 0;
 800109c:	f8cc 41a0 	str.w	r4, [ip, #416]	; 0x1a0
F:\AT32-workspace\AT32F403ACGU7_clone_windows_desktop_virtual_com_port\Release/../usbd_drivers/usbd_core.c:653
    udev->ept_out[i_index].total_len   = 0;
 80010a0:	f8ac 419a 	strh.w	r4, [ip, #410]	; 0x19a
F:\AT32-workspace\AT32F403ACGU7_clone_windows_desktop_virtual_com_port\Release/../usbd_drivers/usbd_core.c:655
    udev->ept_out[i_index].tx_addr     = 0;
 80010a4:	f8cc 4190 	str.w	r4, [ip, #400]	; 0x190
F:\AT32-workspace\AT32F403ACGU7_clone_windows_desktop_virtual_com_port\Release/../usbd_drivers/usbd_core.c:651
    udev->ept_out[i_index].maxpacket   = 0;
 80010a8:	f8ac 4194 	strh.w	r4, [ip, #404]	; 0x194
F:\AT32-workspace\AT32F403ACGU7_clone_windows_desktop_virtual_com_port\Release/../usbd_drivers/usbd_core.c:650
    udev->ept_out[i_index].inout         = DATA_TRANS_OUT;
 80010ac:	f88c 41ae 	strb.w	r4, [ip, #430]	; 0x1ae
F:\AT32-workspace\AT32F403ACGU7_clone_windows_desktop_virtual_com_port\Release/../usbd_drivers/usbd_core.c:652
    udev->ept_out[i_index].trans_buf   = 0;
 80010b0:	f8cc 41c0 	str.w	r4, [ip, #448]	; 0x1c0
F:\AT32-workspace\AT32F403ACGU7_clone_windows_desktop_virtual_com_port\Release/../usbd_drivers/usbd_core.c:653
    udev->ept_out[i_index].total_len   = 0;
 80010b4:	f8ac 41ba 	strh.w	r4, [ip, #442]	; 0x1ba
F:\AT32-workspace\AT32F403ACGU7_clone_windows_desktop_virtual_com_port\Release/../usbd_drivers/usbd_core.c:655
    udev->ept_out[i_index].tx_addr     = 0;
 80010b8:	f8cc 41b0 	str.w	r4, [ip, #432]	; 0x1b0
F:\AT32-workspace\AT32F403ACGU7_clone_windows_desktop_virtual_com_port\Release/../usbd_drivers/usbd_core.c:651
    udev->ept_out[i_index].maxpacket   = 0;
 80010bc:	f8ac 41b4 	strh.w	r4, [ip, #436]	; 0x1b4
F:\AT32-workspace\AT32F403ACGU7_clone_windows_desktop_virtual_com_port\Release/../usbd_drivers/usbd_core.c:650
    udev->ept_out[i_index].inout         = DATA_TRANS_OUT;
 80010c0:	f88c 41ce 	strb.w	r4, [ip, #462]	; 0x1ce
F:\AT32-workspace\AT32F403ACGU7_clone_windows_desktop_virtual_com_port\Release/../usbd_drivers/usbd_core.c:652
    udev->ept_out[i_index].trans_buf   = 0;
 80010c4:	f8cc 41e0 	str.w	r4, [ip, #480]	; 0x1e0
F:\AT32-workspace\AT32F403ACGU7_clone_windows_desktop_virtual_com_port\Release/../usbd_drivers/usbd_core.c:653
    udev->ept_out[i_index].total_len   = 0;
 80010c8:	f8ac 41da 	strh.w	r4, [ip, #474]	; 0x1da
F:\AT32-workspace\AT32F403ACGU7_clone_windows_desktop_virtual_com_port\Release/../usbd_drivers/usbd_core.c:655
    udev->ept_out[i_index].tx_addr     = 0;
 80010cc:	f8cc 41d0 	str.w	r4, [ip, #464]	; 0x1d0
F:\AT32-workspace\AT32F403ACGU7_clone_windows_desktop_virtual_com_port\Release/../usbd_drivers/usbd_core.c:651
    udev->ept_out[i_index].maxpacket   = 0;
 80010d0:	f8ac 41d4 	strh.w	r4, [ip, #468]	; 0x1d4
F:\AT32-workspace\AT32F403ACGU7_clone_windows_desktop_virtual_com_port\Release/../usbd_drivers/usbd_core.c:650
    udev->ept_out[i_index].inout         = DATA_TRANS_OUT;
 80010d4:	f88c 41ee 	strb.w	r4, [ip, #494]	; 0x1ee
F:\AT32-workspace\AT32F403ACGU7_clone_windows_desktop_virtual_com_port\Release/../usbd_drivers/usbd_core.c:648
    udev->ept_out[i_index].eptn        = i_index;
 80010d8:	f8ac 11ac 	strh.w	r1, [ip, #428]	; 0x1ac
 80010dc:	f8ac 21cc 	strh.w	r2, [ip, #460]	; 0x1cc
 80010e0:	f8ac 31ec 	strh.w	r3, [ip, #492]	; 0x1ec
F:\AT32-workspace\AT32F403ACGU7_clone_windows_desktop_virtual_com_port\Release/../usbd_drivers/usbd_core.c:651
    udev->ept_out[i_index].maxpacket   = 0;
 80010e4:	f8ac 41f4 	strh.w	r4, [ip, #500]	; 0x1f4
F:\AT32-workspace\AT32F403ACGU7_clone_windows_desktop_virtual_com_port\Release/../usbd_drivers/usbd_core.c:652
    udev->ept_out[i_index].trans_buf   = 0;
 80010e8:	f8cc 4200 	str.w	r4, [ip, #512]	; 0x200
F:\AT32-workspace\AT32F403ACGU7_clone_windows_desktop_virtual_com_port\Release/../usbd_drivers/usbd_core.c:653
    udev->ept_out[i_index].total_len   = 0;
 80010ec:	f8ac 41fa 	strh.w	r4, [ip, #506]	; 0x1fa
F:\AT32-workspace\AT32F403ACGU7_clone_windows_desktop_virtual_com_port\Release/../usbd_drivers/usbd_core.c:654
    udev->ept_out[i_index].rx_addr     = 0;
 80010f0:	f8ac 41f2 	strh.w	r4, [ip, #498]	; 0x1f2
F:\AT32-workspace\AT32F403ACGU7_clone_windows_desktop_virtual_com_port\Release/../usbd_drivers/usbd_core.c:655
    udev->ept_out[i_index].tx_addr     = 0;
 80010f4:	f8ac 41f0 	strh.w	r4, [ip, #496]	; 0x1f0
usbd_core_init():
F:\AT32-workspace\AT32F403ACGU7_clone_windows_desktop_virtual_com_port\Release/../usbd_drivers/usbd_core.c:697
  usb_usbbufs_enable(usb_reg, TRUE);
#endif

  /*usb register config */
  usb_dev_init(udev->usb_reg);
}
 80010f8:	e8bd 40f0 	ldmia.w	sp!, {r4, r5, r6, r7, lr}
F:\AT32-workspace\AT32F403ACGU7_clone_windows_desktop_virtual_com_port\Release/../usbd_drivers/usbd_core.c:696
  usb_dev_init(udev->usb_reg);
 80010fc:	f000 bff0 	b.w	80020e0 <usb_dev_init>

08001100 <usbd_reset_handler>:
usbd_reset_handler():
F:\AT32-workspace\AT32F403ACGU7_clone_windows_desktop_virtual_com_port\Release/../usbd_drivers/usbd_int.c:243
  * @brief  usb device reset interrupt request handler.
  * @param  udev: to the structure of usbd_core_type
  * @retval none
  */
void usbd_reset_handler(usbd_core_type *udev)
{
 8001100:	b510      	push	{r4, lr}
 8001102:	4604      	mov	r4, r0
F:\AT32-workspace\AT32F403ACGU7_clone_windows_desktop_virtual_com_port\Release/../usbd_drivers/usbd_int.c:245
  /* free usb buffer */
  usb_buffer_free();
 8001104:	f001 fa6e 	bl	80025e4 <usb_buffer_free>
F:\AT32-workspace\AT32F403ACGU7_clone_windows_desktop_virtual_com_port\Release/../usbd_drivers/usbd_int.c:247

  usbd_ept_defaut_init(udev);
 8001108:	4620      	mov	r0, r4
 800110a:	f7ff fe53 	bl	8000db4 <usbd_ept_defaut_init>
F:\AT32-workspace\AT32F403ACGU7_clone_windows_desktop_virtual_com_port\Release/../usbd_drivers/usbd_int.c:249
#ifndef USB_EPT_AUTO_MALLOC_BUFFER
  usbd_ept_buf_custom_define(udev, 0x80, EPT0_TX_ADDR);
 800110e:	2240      	movs	r2, #64	; 0x40
 8001110:	2180      	movs	r1, #128	; 0x80
 8001112:	4620      	mov	r0, r4
 8001114:	f7ff fdfc 	bl	8000d10 <usbd_ept_buf_custom_define>
F:\AT32-workspace\AT32F403ACGU7_clone_windows_desktop_virtual_com_port\Release/../usbd_drivers/usbd_int.c:250
  usbd_ept_buf_custom_define(udev, 0x00, EPT0_RX_ADDR);
 8001118:	2280      	movs	r2, #128	; 0x80
 800111a:	2100      	movs	r1, #0
 800111c:	4620      	mov	r0, r4
 800111e:	f7ff fdf7 	bl	8000d10 <usbd_ept_buf_custom_define>
F:\AT32-workspace\AT32F403ACGU7_clone_windows_desktop_virtual_com_port\Release/../usbd_drivers/usbd_int.c:254
#endif

  /* open endpoint 0 out */
  usbd_ept_open(udev, 0x00, EPT_CONTROL_TYPE, 0x40);
 8001122:	2200      	movs	r2, #0
 8001124:	4611      	mov	r1, r2
 8001126:	2340      	movs	r3, #64	; 0x40
 8001128:	4620      	mov	r0, r4
 800112a:	f7ff fe07 	bl	8000d3c <usbd_ept_open>
F:\AT32-workspace\AT32F403ACGU7_clone_windows_desktop_virtual_com_port\Release/../usbd_drivers/usbd_int.c:257

  /* open endpoint 0 in */
  usbd_ept_open(udev, 0x80, EPT_CONTROL_TYPE, 0x40);
 800112e:	2340      	movs	r3, #64	; 0x40
 8001130:	2200      	movs	r2, #0
 8001132:	2180      	movs	r1, #128	; 0x80
 8001134:	4620      	mov	r0, r4
 8001136:	f7ff fe01 	bl	8000d3c <usbd_ept_open>
F:\AT32-workspace\AT32F403ACGU7_clone_windows_desktop_virtual_com_port\Release/../usbd_drivers/usbd_int.c:260

  /* set device address to 0 */
  usb_set_address(udev->usb_reg, 0);
 800113a:	2100      	movs	r1, #0
 800113c:	6820      	ldr	r0, [r4, #0]
 800113e:	f001 fa33 	bl	80025a8 <usb_set_address>
F:\AT32-workspace\AT32F403ACGU7_clone_windows_desktop_virtual_com_port\Release/../usbd_drivers/usbd_int.c:266

  /* usb connect state set to default */
  udev->conn_state = USB_CONN_STATE_DEFAULT;

  /* user define reset event */
  if(udev->class_handler->event_handler)
 8001142:	6863      	ldr	r3, [r4, #4]
F:\AT32-workspace\AT32F403ACGU7_clone_windows_desktop_virtual_com_port\Release/../usbd_drivers/usbd_int.c:263
  udev->conn_state = USB_CONN_STATE_DEFAULT;
 8001144:	2101      	movs	r1, #1
 8001146:	f884 1224 	strb.w	r1, [r4, #548]	; 0x224
F:\AT32-workspace\AT32F403ACGU7_clone_windows_desktop_virtual_com_port\Release/../usbd_drivers/usbd_int.c:266
  if(udev->class_handler->event_handler)
 800114a:	6a1b      	ldr	r3, [r3, #32]
 800114c:	b11b      	cbz	r3, 8001156 <usbd_reset_handler+0x56>
F:\AT32-workspace\AT32F403ACGU7_clone_windows_desktop_virtual_com_port\Release/../usbd_drivers/usbd_int.c:267
    udev->class_handler->event_handler(udev, USBD_RESET_EVENT);
 800114e:	4620      	mov	r0, r4
F:\AT32-workspace\AT32F403ACGU7_clone_windows_desktop_virtual_com_port\Release/../usbd_drivers/usbd_int.c:268
}
 8001150:	e8bd 4010 	ldmia.w	sp!, {r4, lr}
F:\AT32-workspace\AT32F403ACGU7_clone_windows_desktop_virtual_com_port\Release/../usbd_drivers/usbd_int.c:267
    udev->class_handler->event_handler(udev, USBD_RESET_EVENT);
 8001154:	4718      	bx	r3
F:\AT32-workspace\AT32F403ACGU7_clone_windows_desktop_virtual_com_port\Release/../usbd_drivers/usbd_int.c:268
}
 8001156:	bd10      	pop	{r4, pc}

08001158 <usbd_irq_handler>:
usbd_irq_handler():
F:\AT32-workspace\AT32F403ACGU7_clone_windows_desktop_virtual_com_port\Release/../usbd_drivers/usbd_int.c:45
{
 8001158:	e92d 4ff0 	stmdb	sp!, {r4, r5, r6, r7, r8, r9, sl, fp, lr}
F:\AT32-workspace\AT32F403ACGU7_clone_windows_desktop_virtual_com_port\Release/../usbd_drivers/usbd_int.c:46
  usbd_type *usbx = udev->usb_reg;
 800115c:	6807      	ldr	r7, [r0, #0]
F:\AT32-workspace\AT32F403ACGU7_clone_windows_desktop_virtual_com_port\Release/../usbd_drivers/usbd_int.c:47
  uint32_t sts_val = usbx->intsts;
 800115e:	f8d7 8044 	ldr.w	r8, [r7, #68]	; 0x44
F:\AT32-workspace\AT32F403ACGU7_clone_windows_desktop_virtual_com_port\Release/../usbd_drivers/usbd_int.c:48
  uint32_t sts_ien = usbx->ctrl;
 8001162:	f8d7 b040 	ldr.w	fp, [r7, #64]	; 0x40
F:\AT32-workspace\AT32F403ACGU7_clone_windows_desktop_virtual_com_port\Release/../usbd_drivers/usbd_int.c:50
  if(sts_val & USB_TC_FLAG)
 8001166:	f418 4f00 	tst.w	r8, #32768	; 0x8000
F:\AT32-workspace\AT32F403ACGU7_clone_windows_desktop_virtual_com_port\Release/../usbd_drivers/usbd_int.c:45
{
 800116a:	b083      	sub	sp, #12
 800116c:	4605      	mov	r5, r0
F:\AT32-workspace\AT32F403ACGU7_clone_windows_desktop_virtual_com_port\Release/../usbd_drivers/usbd_int.c:50
  if(sts_val & USB_TC_FLAG)
 800116e:	f000 808e 	beq.w	800128e <usbd_irq_handler+0x136>
usbd_ept_loop_handler():
F:\AT32-workspace\AT32F403ACGU7_clone_windows_desktop_virtual_com_port\Release/../usbd_drivers/usbd_int.c:228
  while((sts_val = usbx->intsts) & USB_TC_FLAG)
 8001172:	6c7c      	ldr	r4, [r7, #68]	; 0x44
 8001174:	0422      	lsls	r2, r4, #16
 8001176:	f140 808a 	bpl.w	800128e <usbd_irq_handler+0x136>
usbd_eptn_handler():
F:\AT32-workspace\AT32F403ACGU7_clone_windows_desktop_virtual_com_port\Release/../usbd_drivers/usbd_int.c:193
          length = USB_DBUF1_GET_LEN(ept_num);
 800117a:	4ea6      	ldr	r6, [pc, #664]	; (8001414 <usbd_irq_handler+0x2bc>)
 800117c:	f8df a298 	ldr.w	sl, [pc, #664]	; 8001418 <usbd_irq_handler+0x2c0>
F:\AT32-workspace\AT32F403ACGU7_clone_windows_desktop_virtual_com_port\Release/../usbd_drivers/usbd_int.c:174
      USB_CLEAR_RXTC(ept_num);
 8001180:	f8cd 8000 	str.w	r8, [sp]
usbd_ept_loop_handler():
F:\AT32-workspace\AT32F403ACGU7_clone_windows_desktop_virtual_com_port\Release/../usbd_drivers/usbd_int.c:228
  while((sts_val = usbx->intsts) & USB_TC_FLAG)
 8001184:	463b      	mov	r3, r7
 8001186:	e027      	b.n	80011d8 <usbd_irq_handler+0x80>
usbd_eptn_handler():
F:\AT32-workspace\AT32F403ACGU7_clone_windows_desktop_virtual_com_port\Release/../usbd_drivers/usbd_int.c:123
    USB_CLEAR_TXTC(ept_num);
 8001188:	f856 3024 	ldr.w	r3, [r6, r4, lsl #2]
 800118c:	f648 720f 	movw	r2, #36623	; 0x8f0f
 8001190:	4013      	ands	r3, r2
 8001192:	f846 3024 	str.w	r3, [r6, r4, lsl #2]
F:\AT32-workspace\AT32F403ACGU7_clone_windows_desktop_virtual_com_port\Release/../usbd_drivers/usbd_int.c:126
    ept_info->trans_len = USB_GET_TX_LEN(ept_num);
 8001196:	6d33      	ldr	r3, [r6, #80]	; 0x50
 8001198:	f8da 2000 	ldr.w	r2, [sl]
 800119c:	3302      	adds	r3, #2
 800119e:	eb03 03c4 	add.w	r3, r3, r4, lsl #3
F:\AT32-workspace\AT32F403ACGU7_clone_windows_desktop_virtual_com_port\Release/../usbd_drivers/usbd_int.c:134
      usbd_core_in_handler(udev, ept_num);
 80011a2:	4628      	mov	r0, r5
F:\AT32-workspace\AT32F403ACGU7_clone_windows_desktop_virtual_com_port\Release/../usbd_drivers/usbd_int.c:126
    ept_info->trans_len = USB_GET_TX_LEN(ept_num);
 80011a4:	f852 2013 	ldr.w	r2, [r2, r3, lsl #1]
 80011a8:	eb05 1344 	add.w	r3, r5, r4, lsl #5
 80011ac:	f3c2 0209 	ubfx	r2, r2, #0, #10
F:\AT32-workspace\AT32F403ACGU7_clone_windows_desktop_virtual_com_port\Release/../usbd_drivers/usbd_int.c:129
    ept_info->trans_buf += ept_info->trans_len;
 80011b0:	6a19      	ldr	r1, [r3, #32]
F:\AT32-workspace\AT32F403ACGU7_clone_windows_desktop_virtual_com_port\Release/../usbd_drivers/usbd_int.c:126
    ept_info->trans_len = USB_GET_TX_LEN(ept_num);
 80011b2:	839a      	strh	r2, [r3, #28]
F:\AT32-workspace\AT32F403ACGU7_clone_windows_desktop_virtual_com_port\Release/../usbd_drivers/usbd_int.c:129
    ept_info->trans_buf += ept_info->trans_len;
 80011b4:	440a      	add	r2, r1
 80011b6:	621a      	str	r2, [r3, #32]
F:\AT32-workspace\AT32F403ACGU7_clone_windows_desktop_virtual_com_port\Release/../usbd_drivers/usbd_int.c:131
    if(ept_info->total_len == 0 || ept_num == USB_EPT0)
 80011b8:	8b5b      	ldrh	r3, [r3, #26]
F:\AT32-workspace\AT32F403ACGU7_clone_windows_desktop_virtual_com_port\Release/../usbd_drivers/usbd_int.c:134
      usbd_core_in_handler(udev, ept_num);
 80011ba:	4621      	mov	r1, r4
F:\AT32-workspace\AT32F403ACGU7_clone_windows_desktop_virtual_com_port\Release/../usbd_drivers/usbd_int.c:131
    if(ept_info->total_len == 0 || ept_num == USB_EPT0)
 80011bc:	b113      	cbz	r3, 80011c4 <usbd_irq_handler+0x6c>
 80011be:	2c00      	cmp	r4, #0
 80011c0:	f040 80b1 	bne.w	8001326 <usbd_irq_handler+0x1ce>
F:\AT32-workspace\AT32F403ACGU7_clone_windows_desktop_virtual_com_port\Release/../usbd_drivers/usbd_int.c:134
      usbd_core_in_handler(udev, ept_num);
 80011c4:	f7ff fd08 	bl	8000bd8 <usbd_core_in_handler>
F:\AT32-workspace\AT32F403ACGU7_clone_windows_desktop_virtual_com_port\Release/../usbd_drivers/usbd_int.c:142
    if(udev->conn_state == USB_CONN_STATE_ADDRESSED && udev->device_addr > 0)
 80011c8:	f895 3224 	ldrb.w	r3, [r5, #548]	; 0x224
 80011cc:	2b02      	cmp	r3, #2
 80011ce:	d07f      	beq.n	80012d0 <usbd_irq_handler+0x178>
usbd_ept_loop_handler():
F:\AT32-workspace\AT32F403ACGU7_clone_windows_desktop_virtual_com_port\Release/../usbd_drivers/usbd_int.c:228
  while((sts_val = usbx->intsts) & USB_TC_FLAG)
 80011d0:	6c7c      	ldr	r4, [r7, #68]	; 0x44
 80011d2:	0423      	lsls	r3, r4, #16
 80011d4:	d559      	bpl.n	800128a <usbd_irq_handler+0x132>
usbd_eptn_handler():
F:\AT32-workspace\AT32F403ACGU7_clone_windows_desktop_virtual_com_port\Release/../usbd_drivers/usbd_int.c:111
  usbd_type *usbx = udev->usb_reg;
 80011d6:	682b      	ldr	r3, [r5, #0]
usbd_ept_loop_handler():
F:\AT32-workspace\AT32F403ACGU7_clone_windows_desktop_virtual_com_port\Release/../usbd_drivers/usbd_int.c:231
    ept_num = (usb_ept_number_type)(sts_val & USB_EPT_NUM_FLAG);
 80011d8:	f004 040f 	and.w	r4, r4, #15
usbd_eptn_handler():
F:\AT32-workspace\AT32F403ACGU7_clone_windows_desktop_virtual_com_port\Release/../usbd_drivers/usbd_int.c:113
  uint32_t ept_val = usbx->ept[ept_num];
 80011dc:	f853 2024 	ldr.w	r2, [r3, r4, lsl #2]
F:\AT32-workspace\AT32F403ACGU7_clone_windows_desktop_virtual_com_port\Release/../usbd_drivers/usbd_int.c:117
  if(ept_val & USB_TXTC)
 80011e0:	0613      	lsls	r3, r2, #24
 80011e2:	d4d1      	bmi.n	8001188 <usbd_irq_handler+0x30>
F:\AT32-workspace\AT32F403ACGU7_clone_windows_desktop_virtual_com_port\Release/../usbd_drivers/usbd_int.c:155
    if((ept_val & USB_SETUPTC) != 0)
 80011e4:	0510      	lsls	r0, r2, #20
 80011e6:	d47f      	bmi.n	80012e8 <usbd_irq_handler+0x190>
F:\AT32-workspace\AT32F403ACGU7_clone_windows_desktop_virtual_com_port\Release/../usbd_drivers/usbd_int.c:171
    else if(ept_val & USB_RXTC )
 80011e8:	0411      	lsls	r1, r2, #16
 80011ea:	d5f1      	bpl.n	80011d0 <usbd_irq_handler+0x78>
F:\AT32-workspace\AT32F403ACGU7_clone_windows_desktop_virtual_com_port\Release/../usbd_drivers/usbd_int.c:174
      USB_CLEAR_RXTC(ept_num);
 80011ec:	00a3      	lsls	r3, r4, #2
 80011ee:	f103 4380 	add.w	r3, r3, #1073741824	; 0x40000000
 80011f2:	f503 43b8 	add.w	r3, r3, #23552	; 0x5c00
F:\AT32-workspace\AT32F403ACGU7_clone_windows_desktop_virtual_com_port\Release/../usbd_drivers/usbd_int.c:176
      if(ept_info->is_double_buffer == 0)
 80011f6:	eb05 1044 	add.w	r0, r5, r4, lsl #5
F:\AT32-workspace\AT32F403ACGU7_clone_windows_desktop_virtual_com_port\Release/../usbd_drivers/usbd_int.c:174
      USB_CLEAR_RXTC(ept_num);
 80011fa:	6819      	ldr	r1, [r3, #0]
 80011fc:	f021 0170 	bic.w	r1, r1, #112	; 0x70
 8001200:	0509      	lsls	r1, r1, #20
 8001202:	0d09      	lsrs	r1, r1, #20
 8001204:	6019      	str	r1, [r3, #0]
F:\AT32-workspace\AT32F403ACGU7_clone_windows_desktop_virtual_com_port\Release/../usbd_drivers/usbd_int.c:176
      if(ept_info->is_double_buffer == 0)
 8001206:	f890 1116 	ldrb.w	r1, [r0, #278]	; 0x116
 800120a:	ea4f 1944 	mov.w	r9, r4, lsl #5
 800120e:	2900      	cmp	r1, #0
 8001210:	f000 80a7 	beq.w	8001362 <usbd_irq_handler+0x20a>
F:\AT32-workspace\AT32F403ACGU7_clone_windows_desktop_virtual_com_port\Release/../usbd_drivers/usbd_int.c:186
        if( ept_val & USB_RXDTS)
 8001214:	0452      	lsls	r2, r2, #17
F:\AT32-workspace\AT32F403ACGU7_clone_windows_desktop_virtual_com_port\Release/../usbd_drivers/usbd_int.c:188
          length = USB_DBUF0_GET_LEN(ept_num);
 8001216:	6d31      	ldr	r1, [r6, #80]	; 0x50
 8001218:	9301      	str	r3, [sp, #4]
F:\AT32-workspace\AT32F403ACGU7_clone_windows_desktop_virtual_com_port\Release/../usbd_drivers/usbd_int.c:186
        if( ept_val & USB_RXDTS)
 800121a:	f140 8090 	bpl.w	800133e <usbd_irq_handler+0x1e6>
F:\AT32-workspace\AT32F403ACGU7_clone_windows_desktop_virtual_com_port\Release/../usbd_drivers/usbd_int.c:188
          length = USB_DBUF0_GET_LEN(ept_num);
 800121e:	eb01 01c4 	add.w	r1, r1, r4, lsl #3
 8001222:	f8da 2000 	ldr.w	r2, [sl]
 8001226:	3102      	adds	r1, #2
 8001228:	f852 2011 	ldr.w	r2, [r2, r1, lsl #1]
F:\AT32-workspace\AT32F403ACGU7_clone_windows_desktop_virtual_com_port\Release/../usbd_drivers/usbd_int.c:189
          usb_read_packet(ept_info->trans_buf, ept_info->tx_addr, length);
 800122c:	f8b0 1110 	ldrh.w	r1, [r0, #272]	; 0x110
 8001230:	f8d0 0120 	ldr.w	r0, [r0, #288]	; 0x120
F:\AT32-workspace\AT32F403ACGU7_clone_windows_desktop_virtual_com_port\Release/../usbd_drivers/usbd_int.c:188
          length = USB_DBUF0_GET_LEN(ept_num);
 8001234:	f3c2 0809 	ubfx	r8, r2, #0, #10
F:\AT32-workspace\AT32F403ACGU7_clone_windows_desktop_virtual_com_port\Release/../usbd_drivers/usbd_int.c:189
          usb_read_packet(ept_info->trans_buf, ept_info->tx_addr, length);
 8001238:	4642      	mov	r2, r8
 800123a:	f001 f9a1 	bl	8002580 <usb_read_packet>
 800123e:	9b01      	ldr	r3, [sp, #4]
F:\AT32-workspace\AT32F403ACGU7_clone_windows_desktop_virtual_com_port\Release/../usbd_drivers/usbd_int.c:196
        USB_FREE_DB_USER_BUFFER(ept_num, DATA_TRANS_OUT);
 8001240:	6819      	ldr	r1, [r3, #0]
 8001242:	f640 700f 	movw	r0, #3855	; 0xf0f
 8001246:	4001      	ands	r1, r0
 8001248:	f441 4100 	orr.w	r1, r1, #32768	; 0x8000
 800124c:	f041 01c0 	orr.w	r1, r1, #192	; 0xc0
 8001250:	6019      	str	r1, [r3, #0]
F:\AT32-workspace\AT32F403ACGU7_clone_windows_desktop_virtual_com_port\Release/../usbd_drivers/usbd_int.c:200
      ept_info->trans_len += length;
 8001252:	44a9      	add	r9, r5
 8001254:	f8b9 311c 	ldrh.w	r3, [r9, #284]	; 0x11c
F:\AT32-workspace\AT32F403ACGU7_clone_windows_desktop_virtual_com_port\Release/../usbd_drivers/usbd_int.c:201
      ept_info->trans_buf += length;
 8001258:	f8d9 1120 	ldr.w	r1, [r9, #288]	; 0x120
F:\AT32-workspace\AT32F403ACGU7_clone_windows_desktop_virtual_com_port\Release/../usbd_drivers/usbd_int.c:200
      ept_info->trans_len += length;
 800125c:	4443      	add	r3, r8
 800125e:	f8a9 311c 	strh.w	r3, [r9, #284]	; 0x11c
F:\AT32-workspace\AT32F403ACGU7_clone_windows_desktop_virtual_com_port\Release/../usbd_drivers/usbd_int.c:203
      if(ept_info->total_len == 0 || length < ept_info->maxpacket || ept_num == USB_EPT0)
 8001262:	f8b9 311a 	ldrh.w	r3, [r9, #282]	; 0x11a
F:\AT32-workspace\AT32F403ACGU7_clone_windows_desktop_virtual_com_port\Release/../usbd_drivers/usbd_int.c:201
      ept_info->trans_buf += length;
 8001266:	4441      	add	r1, r8
 8001268:	f8c9 1120 	str.w	r1, [r9, #288]	; 0x120
F:\AT32-workspace\AT32F403ACGU7_clone_windows_desktop_virtual_com_port\Release/../usbd_drivers/usbd_int.c:203
      if(ept_info->total_len == 0 || length < ept_info->maxpacket || ept_num == USB_EPT0)
 800126c:	b133      	cbz	r3, 800127c <usbd_irq_handler+0x124>
 800126e:	f8b9 0114 	ldrh.w	r0, [r9, #276]	; 0x114
 8001272:	4540      	cmp	r0, r8
 8001274:	d802      	bhi.n	800127c <usbd_irq_handler+0x124>
 8001276:	2c00      	cmp	r4, #0
 8001278:	f040 80c5 	bne.w	8001406 <usbd_irq_handler+0x2ae>
F:\AT32-workspace\AT32F403ACGU7_clone_windows_desktop_virtual_com_port\Release/../usbd_drivers/usbd_int.c:206
        usbd_core_out_handler(udev, ept_num);
 800127c:	4621      	mov	r1, r4
 800127e:	4628      	mov	r0, r5
 8001280:	f7ff fc5e 	bl	8000b40 <usbd_core_out_handler>
usbd_ept_loop_handler():
F:\AT32-workspace\AT32F403ACGU7_clone_windows_desktop_virtual_com_port\Release/../usbd_drivers/usbd_int.c:228
  while((sts_val = usbx->intsts) & USB_TC_FLAG)
 8001284:	6c7c      	ldr	r4, [r7, #68]	; 0x44
 8001286:	0423      	lsls	r3, r4, #16
 8001288:	d4a5      	bmi.n	80011d6 <usbd_irq_handler+0x7e>
 800128a:	f8dd 8000 	ldr.w	r8, [sp]
usbd_irq_handler():
F:\AT32-workspace\AT32F403ACGU7_clone_windows_desktop_virtual_com_port\Release/../usbd_drivers/usbd_int.c:56
  if(sts_val & USB_RST_FLAG)
 800128e:	f418 6f80 	tst.w	r8, #1024	; 0x400
 8001292:	d14b      	bne.n	800132c <usbd_irq_handler+0x1d4>
F:\AT32-workspace\AT32F403ACGU7_clone_windows_desktop_virtual_com_port\Release/../usbd_drivers/usbd_int.c:65
  if((sts_val & USB_SOF_FLAG) &&
 8001294:	f418 7f00 	tst.w	r8, #512	; 0x200
 8001298:	d003      	beq.n	80012a2 <usbd_irq_handler+0x14a>
F:\AT32-workspace\AT32F403ACGU7_clone_windows_desktop_virtual_com_port\Release/../usbd_drivers/usbd_int.c:65 (discriminator 1)
 800129a:	f41b 7f00 	tst.w	fp, #512	; 0x200
 800129e:	f040 8087 	bne.w	80013b0 <usbd_irq_handler+0x258>
F:\AT32-workspace\AT32F403ACGU7_clone_windows_desktop_virtual_com_port\Release/../usbd_drivers/usbd_int.c:75
  if((sts_val & USB_LSOF_FLAG) &&
 80012a2:	f418 7f80 	tst.w	r8, #256	; 0x100
 80012a6:	d003      	beq.n	80012b0 <usbd_irq_handler+0x158>
F:\AT32-workspace\AT32F403ACGU7_clone_windows_desktop_virtual_com_port\Release/../usbd_drivers/usbd_int.c:75 (discriminator 1)
 80012a8:	f41b 7f80 	tst.w	fp, #256	; 0x100
 80012ac:	f040 808d 	bne.w	80013ca <usbd_irq_handler+0x272>
F:\AT32-workspace\AT32F403ACGU7_clone_windows_desktop_virtual_com_port\Release/../usbd_drivers/usbd_int.c:82
  if((sts_val & USB_SP_FLAG) &&
 80012b0:	f418 6f00 	tst.w	r8, #2048	; 0x800
 80012b4:	d003      	beq.n	80012be <usbd_irq_handler+0x166>
F:\AT32-workspace\AT32F403ACGU7_clone_windows_desktop_virtual_com_port\Release/../usbd_drivers/usbd_int.c:82 (discriminator 1)
 80012b6:	f41b 6f00 	tst.w	fp, #2048	; 0x800
 80012ba:	f040 808c 	bne.w	80013d6 <usbd_irq_handler+0x27e>
F:\AT32-workspace\AT32F403ACGU7_clone_windows_desktop_virtual_com_port\Release/../usbd_drivers/usbd_int.c:92
  if((sts_val & USB_WK_FLAG) &&
 80012be:	f418 5f80 	tst.w	r8, #4096	; 0x1000
 80012c2:	d002      	beq.n	80012ca <usbd_irq_handler+0x172>
F:\AT32-workspace\AT32F403ACGU7_clone_windows_desktop_virtual_com_port\Release/../usbd_drivers/usbd_int.c:92 (discriminator 1)
 80012c4:	f41b 5f80 	tst.w	fp, #4096	; 0x1000
 80012c8:	d15d      	bne.n	8001386 <usbd_irq_handler+0x22e>
F:\AT32-workspace\AT32F403ACGU7_clone_windows_desktop_virtual_com_port\Release/../usbd_drivers/usbd_int.c:101
}
 80012ca:	b003      	add	sp, #12
 80012cc:	e8bd 8ff0 	ldmia.w	sp!, {r4, r5, r6, r7, r8, r9, sl, fp, pc}
usbd_eptn_handler():
F:\AT32-workspace\AT32F403ACGU7_clone_windows_desktop_virtual_com_port\Release/../usbd_drivers/usbd_int.c:142
    if(udev->conn_state == USB_CONN_STATE_ADDRESSED && udev->device_addr > 0)
 80012d0:	f895 1226 	ldrb.w	r1, [r5, #550]	; 0x226
 80012d4:	2900      	cmp	r1, #0
 80012d6:	f43f af7b 	beq.w	80011d0 <usbd_irq_handler+0x78>
F:\AT32-workspace\AT32F403ACGU7_clone_windows_desktop_virtual_com_port\Release/../usbd_drivers/usbd_int.c:144
      usb_set_address(udev->usb_reg, udev->device_addr);
 80012da:	6828      	ldr	r0, [r5, #0]
 80012dc:	f001 f964 	bl	80025a8 <usb_set_address>
F:\AT32-workspace\AT32F403ACGU7_clone_windows_desktop_virtual_com_port\Release/../usbd_drivers/usbd_int.c:145
      udev->device_addr = 0;
 80012e0:	2300      	movs	r3, #0
 80012e2:	f885 3226 	strb.w	r3, [r5, #550]	; 0x226
 80012e6:	e773      	b.n	80011d0 <usbd_irq_handler+0x78>
F:\AT32-workspace\AT32F403ACGU7_clone_windows_desktop_virtual_com_port\Release/../usbd_drivers/usbd_int.c:160
      ept_info->trans_len = USB_GET_RX_LEN(ept_num);
 80012e8:	6d33      	ldr	r3, [r6, #80]	; 0x50
 80012ea:	f8da 2000 	ldr.w	r2, [sl]
 80012ee:	3306      	adds	r3, #6
 80012f0:	eb03 03c4 	add.w	r3, r3, r4, lsl #3
F:\AT32-workspace\AT32F403ACGU7_clone_windows_desktop_virtual_com_port\Release/../usbd_drivers/usbd_int.c:163
      usb_read_packet(udev->setup_buffer, ept_info->rx_addr, ept_info->trans_len);
 80012f4:	f505 7005 	add.w	r0, r5, #532	; 0x214
F:\AT32-workspace\AT32F403ACGU7_clone_windows_desktop_virtual_com_port\Release/../usbd_drivers/usbd_int.c:160
      ept_info->trans_len = USB_GET_RX_LEN(ept_num);
 80012f8:	f852 2013 	ldr.w	r2, [r2, r3, lsl #1]
 80012fc:	eb05 1344 	add.w	r3, r5, r4, lsl #5
 8001300:	f3c2 0209 	ubfx	r2, r2, #0, #10
F:\AT32-workspace\AT32F403ACGU7_clone_windows_desktop_virtual_com_port\Release/../usbd_drivers/usbd_int.c:163
      usb_read_packet(udev->setup_buffer, ept_info->rx_addr, ept_info->trans_len);
 8001304:	f8b3 1112 	ldrh.w	r1, [r3, #274]	; 0x112
F:\AT32-workspace\AT32F403ACGU7_clone_windows_desktop_virtual_com_port\Release/../usbd_drivers/usbd_int.c:160
      ept_info->trans_len = USB_GET_RX_LEN(ept_num);
 8001308:	f8a3 211c 	strh.w	r2, [r3, #284]	; 0x11c
F:\AT32-workspace\AT32F403ACGU7_clone_windows_desktop_virtual_com_port\Release/../usbd_drivers/usbd_int.c:163
      usb_read_packet(udev->setup_buffer, ept_info->rx_addr, ept_info->trans_len);
 800130c:	f001 f938 	bl	8002580 <usb_read_packet>
F:\AT32-workspace\AT32F403ACGU7_clone_windows_desktop_virtual_com_port\Release/../usbd_drivers/usbd_int.c:166
      USB_CLEAR_RXTC(USB_EPT0);
 8001310:	6833      	ldr	r3, [r6, #0]
 8001312:	f023 0370 	bic.w	r3, r3, #112	; 0x70
 8001316:	051b      	lsls	r3, r3, #20
 8001318:	0d1b      	lsrs	r3, r3, #20
F:\AT32-workspace\AT32F403ACGU7_clone_windows_desktop_virtual_com_port\Release/../usbd_drivers/usbd_int.c:169
      usbd_core_setup_handler(udev, ept_num);
 800131a:	4621      	mov	r1, r4
F:\AT32-workspace\AT32F403ACGU7_clone_windows_desktop_virtual_com_port\Release/../usbd_drivers/usbd_int.c:166
      USB_CLEAR_RXTC(USB_EPT0);
 800131c:	6033      	str	r3, [r6, #0]
F:\AT32-workspace\AT32F403ACGU7_clone_windows_desktop_virtual_com_port\Release/../usbd_drivers/usbd_int.c:169
      usbd_core_setup_handler(udev, ept_num);
 800131e:	4628      	mov	r0, r5
 8001320:	f7ff fa06 	bl	8000730 <usbd_core_setup_handler>
 8001324:	e754      	b.n	80011d0 <usbd_irq_handler+0x78>
F:\AT32-workspace\AT32F403ACGU7_clone_windows_desktop_virtual_com_port\Release/../usbd_drivers/usbd_int.c:139
      usbd_ept_send(udev, ept_num, ept_info->trans_buf, ept_info->total_len);
 8001326:	f7ff fba9 	bl	8000a7c <usbd_ept_send>
 800132a:	e74d      	b.n	80011c8 <usbd_irq_handler+0x70>
usbd_irq_handler():
F:\AT32-workspace\AT32F403ACGU7_clone_windows_desktop_virtual_com_port\Release/../usbd_drivers/usbd_int.c:59
    usb_flag_clear(usbx, USB_RST_FLAG);
 800132c:	4638      	mov	r0, r7
 800132e:	f44f 6180 	mov.w	r1, #1024	; 0x400
 8001332:	f001 f95d 	bl	80025f0 <usb_flag_clear>
F:\AT32-workspace\AT32F403ACGU7_clone_windows_desktop_virtual_com_port\Release/../usbd_drivers/usbd_int.c:62
    usbd_reset_handler(udev);
 8001336:	4628      	mov	r0, r5
 8001338:	f7ff fee2 	bl	8001100 <usbd_reset_handler>
 800133c:	e7aa      	b.n	8001294 <usbd_irq_handler+0x13c>
usbd_eptn_handler():
F:\AT32-workspace\AT32F403ACGU7_clone_windows_desktop_virtual_com_port\Release/../usbd_drivers/usbd_int.c:193
          length = USB_DBUF1_GET_LEN(ept_num);
 800133e:	3106      	adds	r1, #6
 8001340:	f8da 2000 	ldr.w	r2, [sl]
 8001344:	eb01 01c4 	add.w	r1, r1, r4, lsl #3
 8001348:	f852 2011 	ldr.w	r2, [r2, r1, lsl #1]
F:\AT32-workspace\AT32F403ACGU7_clone_windows_desktop_virtual_com_port\Release/../usbd_drivers/usbd_int.c:194
          usb_read_packet(ept_info->trans_buf, ept_info->rx_addr, length);
 800134c:	f8b0 1112 	ldrh.w	r1, [r0, #274]	; 0x112
 8001350:	f8d0 0120 	ldr.w	r0, [r0, #288]	; 0x120
F:\AT32-workspace\AT32F403ACGU7_clone_windows_desktop_virtual_com_port\Release/../usbd_drivers/usbd_int.c:193
          length = USB_DBUF1_GET_LEN(ept_num);
 8001354:	f3c2 0809 	ubfx	r8, r2, #0, #10
F:\AT32-workspace\AT32F403ACGU7_clone_windows_desktop_virtual_com_port\Release/../usbd_drivers/usbd_int.c:194
          usb_read_packet(ept_info->trans_buf, ept_info->rx_addr, length);
 8001358:	4642      	mov	r2, r8
 800135a:	f001 f911 	bl	8002580 <usb_read_packet>
 800135e:	9b01      	ldr	r3, [sp, #4]
 8001360:	e76e      	b.n	8001240 <usbd_irq_handler+0xe8>
F:\AT32-workspace\AT32F403ACGU7_clone_windows_desktop_virtual_com_port\Release/../usbd_drivers/usbd_int.c:179
        length = USB_GET_RX_LEN(ept_num);
 8001362:	6d33      	ldr	r3, [r6, #80]	; 0x50
 8001364:	f8da 2000 	ldr.w	r2, [sl]
F:\AT32-workspace\AT32F403ACGU7_clone_windows_desktop_virtual_com_port\Release/../usbd_drivers/usbd_int.c:182
        usb_read_packet(ept_info->trans_buf, ept_info->rx_addr, length);
 8001368:	f8b0 1112 	ldrh.w	r1, [r0, #274]	; 0x112
 800136c:	f8d0 0120 	ldr.w	r0, [r0, #288]	; 0x120
F:\AT32-workspace\AT32F403ACGU7_clone_windows_desktop_virtual_com_port\Release/../usbd_drivers/usbd_int.c:179
        length = USB_GET_RX_LEN(ept_num);
 8001370:	3306      	adds	r3, #6
 8001372:	eb03 03c4 	add.w	r3, r3, r4, lsl #3
 8001376:	f852 2013 	ldr.w	r2, [r2, r3, lsl #1]
 800137a:	f3c2 0809 	ubfx	r8, r2, #0, #10
F:\AT32-workspace\AT32F403ACGU7_clone_windows_desktop_virtual_com_port\Release/../usbd_drivers/usbd_int.c:182
        usb_read_packet(ept_info->trans_buf, ept_info->rx_addr, length);
 800137e:	4642      	mov	r2, r8
 8001380:	f001 f8fe 	bl	8002580 <usb_read_packet>
 8001384:	e765      	b.n	8001252 <usbd_irq_handler+0xfa>
usbd_wakeup_handler():
F:\AT32-workspace\AT32F403ACGU7_clone_windows_desktop_virtual_com_port\Release/../usbd_drivers/usbd_int.c:311
  * @retval none
  */
void usbd_wakeup_handler(usbd_core_type *udev)
{
  /* exit suspend mode */
  usb_exit_suspend(udev->usb_reg);
 8001386:	6828      	ldr	r0, [r5, #0]
 8001388:	f001 f922 	bl	80025d0 <usb_exit_suspend>
F:\AT32-workspace\AT32F403ACGU7_clone_windows_desktop_virtual_com_port\Release/../usbd_drivers/usbd_int.c:314

  /* restore connect state */
  udev->conn_state = udev->old_conn_state;
 800138c:	f895 2225 	ldrb.w	r2, [r5, #549]	; 0x225
F:\AT32-workspace\AT32F403ACGU7_clone_windows_desktop_virtual_com_port\Release/../usbd_drivers/usbd_int.c:317

  /* user define wakeup event */
  if(udev->class_handler->event_handler)
 8001390:	686b      	ldr	r3, [r5, #4]
F:\AT32-workspace\AT32F403ACGU7_clone_windows_desktop_virtual_com_port\Release/../usbd_drivers/usbd_int.c:314
  udev->conn_state = udev->old_conn_state;
 8001392:	f885 2224 	strb.w	r2, [r5, #548]	; 0x224
F:\AT32-workspace\AT32F403ACGU7_clone_windows_desktop_virtual_com_port\Release/../usbd_drivers/usbd_int.c:317
  if(udev->class_handler->event_handler)
 8001396:	6a1b      	ldr	r3, [r3, #32]
 8001398:	b113      	cbz	r3, 80013a0 <usbd_irq_handler+0x248>
F:\AT32-workspace\AT32F403ACGU7_clone_windows_desktop_virtual_com_port\Release/../usbd_drivers/usbd_int.c:318
    udev->class_handler->event_handler(udev, USBD_WAKEUP_EVENT);
 800139a:	2103      	movs	r1, #3
 800139c:	4628      	mov	r0, r5
 800139e:	4798      	blx	r3
usbd_irq_handler():
F:\AT32-workspace\AT32F403ACGU7_clone_windows_desktop_virtual_com_port\Release/../usbd_drivers/usbd_int.c:99
    usb_flag_clear(usbx, USB_WK_FLAG);
 80013a0:	f44f 5180 	mov.w	r1, #4096	; 0x1000
 80013a4:	4638      	mov	r0, r7
F:\AT32-workspace\AT32F403ACGU7_clone_windows_desktop_virtual_com_port\Release/../usbd_drivers/usbd_int.c:101
}
 80013a6:	b003      	add	sp, #12
 80013a8:	e8bd 4ff0 	ldmia.w	sp!, {r4, r5, r6, r7, r8, r9, sl, fp, lr}
F:\AT32-workspace\AT32F403ACGU7_clone_windows_desktop_virtual_com_port\Release/../usbd_drivers/usbd_int.c:99
    usb_flag_clear(usbx, USB_WK_FLAG);
 80013ac:	f001 b920 	b.w	80025f0 <usb_flag_clear>
F:\AT32-workspace\AT32F403ACGU7_clone_windows_desktop_virtual_com_port\Release/../usbd_drivers/usbd_int.c:69
    usb_flag_clear(usbx, USB_SOF_FLAG);
 80013b0:	f44f 7100 	mov.w	r1, #512	; 0x200
 80013b4:	4638      	mov	r0, r7
 80013b6:	f001 f91b 	bl	80025f0 <usb_flag_clear>
usbd_sof_handler():
F:\AT32-workspace\AT32F403ACGU7_clone_windows_desktop_virtual_com_port\Release/../usbd_drivers/usbd_int.c:278
  if(udev->class_handler->sof_handler)
 80013ba:	686b      	ldr	r3, [r5, #4]
 80013bc:	69db      	ldr	r3, [r3, #28]
 80013be:	2b00      	cmp	r3, #0
 80013c0:	f43f af6f 	beq.w	80012a2 <usbd_irq_handler+0x14a>
F:\AT32-workspace\AT32F403ACGU7_clone_windows_desktop_virtual_com_port\Release/../usbd_drivers/usbd_int.c:279
    udev->class_handler->sof_handler(udev);
 80013c4:	4628      	mov	r0, r5
 80013c6:	4798      	blx	r3
 80013c8:	e76b      	b.n	80012a2 <usbd_irq_handler+0x14a>
usbd_irq_handler():
F:\AT32-workspace\AT32F403ACGU7_clone_windows_desktop_virtual_com_port\Release/../usbd_drivers/usbd_int.c:79
    usb_flag_clear(usbx, USB_LSOF_FLAG);
 80013ca:	f44f 7180 	mov.w	r1, #256	; 0x100
 80013ce:	4638      	mov	r0, r7
 80013d0:	f001 f90e 	bl	80025f0 <usb_flag_clear>
 80013d4:	e76c      	b.n	80012b0 <usbd_irq_handler+0x158>
F:\AT32-workspace\AT32F403ACGU7_clone_windows_desktop_virtual_com_port\Release/../usbd_drivers/usbd_int.c:86
    usb_flag_clear(usbx, USB_SP_FLAG);
 80013d6:	f44f 6100 	mov.w	r1, #2048	; 0x800
 80013da:	4638      	mov	r0, r7
 80013dc:	f001 f908 	bl	80025f0 <usb_flag_clear>
usbd_suspend_handler():
F:\AT32-workspace\AT32F403ACGU7_clone_windows_desktop_virtual_com_port\Release/../usbd_drivers/usbd_int.c:290
  udev->old_conn_state = udev->conn_state;
 80013e0:	f895 3224 	ldrb.w	r3, [r5, #548]	; 0x224
 80013e4:	f885 3225 	strb.w	r3, [r5, #549]	; 0x225
F:\AT32-workspace\AT32F403ACGU7_clone_windows_desktop_virtual_com_port\Release/../usbd_drivers/usbd_int.c:293
  udev->conn_state = USB_CONN_STATE_SUSPENDED;
 80013e8:	2304      	movs	r3, #4
 80013ea:	f885 3224 	strb.w	r3, [r5, #548]	; 0x224
F:\AT32-workspace\AT32F403ACGU7_clone_windows_desktop_virtual_com_port\Release/../usbd_drivers/usbd_int.c:296
  usbd_enter_suspend(udev);
 80013ee:	4628      	mov	r0, r5
 80013f0:	f7ff fcdc 	bl	8000dac <usbd_enter_suspend>
F:\AT32-workspace\AT32F403ACGU7_clone_windows_desktop_virtual_com_port\Release/../usbd_drivers/usbd_int.c:299
  if(udev->class_handler->event_handler)
 80013f4:	686b      	ldr	r3, [r5, #4]
 80013f6:	6a1b      	ldr	r3, [r3, #32]
 80013f8:	2b00      	cmp	r3, #0
 80013fa:	f43f af60 	beq.w	80012be <usbd_irq_handler+0x166>
F:\AT32-workspace\AT32F403ACGU7_clone_windows_desktop_virtual_com_port\Release/../usbd_drivers/usbd_int.c:300
    udev->class_handler->event_handler(udev, USBD_SUSPEND_EVENT);
 80013fe:	2102      	movs	r1, #2
 8001400:	4628      	mov	r0, r5
 8001402:	4798      	blx	r3
 8001404:	e75b      	b.n	80012be <usbd_irq_handler+0x166>
usbd_eptn_handler():
F:\AT32-workspace\AT32F403ACGU7_clone_windows_desktop_virtual_com_port\Release/../usbd_drivers/usbd_int.c:211
        usbd_ept_recv(udev, ept_num, ept_info->trans_buf, ept_info->total_len);
 8001406:	460a      	mov	r2, r1
 8001408:	4628      	mov	r0, r5
 800140a:	4621      	mov	r1, r4
 800140c:	f7ff fc4e 	bl	8000cac <usbd_ept_recv>
 8001410:	e6de      	b.n	80011d0 <usbd_irq_handler+0x78>
 8001412:	bf00      	nop
 8001414:	40005c00 	.word	0x40005c00
 8001418:	20000004 	.word	0x20000004

0800141c <usbd_setup_request_parse>:
usbd_setup_request_parse():
F:\AT32-workspace\AT32F403ACGU7_clone_windows_desktop_virtual_com_port\Release/../usbd_drivers/usbd_sdr.c:55
  * @param  buf: setup buffer
  * @retval none
  */
void usbd_setup_request_parse(usb_setup_type *setup, uint8_t *buf)
{
  setup->bmRequestType         = *(uint8_t *) buf;
 800141c:	780b      	ldrb	r3, [r1, #0]
 800141e:	7003      	strb	r3, [r0, #0]
F:\AT32-workspace\AT32F403ACGU7_clone_windows_desktop_virtual_com_port\Release/../usbd_drivers/usbd_sdr.c:56
  setup->bRequest              = *(uint8_t *) (buf + 1);
 8001420:	784b      	ldrb	r3, [r1, #1]
 8001422:	7043      	strb	r3, [r0, #1]
F:\AT32-workspace\AT32F403ACGU7_clone_windows_desktop_virtual_com_port\Release/../usbd_drivers/usbd_sdr.c:57
  setup->wValue                = SWAPBYTE(buf + 2);
 8001424:	78ca      	ldrb	r2, [r1, #3]
 8001426:	788b      	ldrb	r3, [r1, #2]
 8001428:	eb03 2302 	add.w	r3, r3, r2, lsl #8
 800142c:	8043      	strh	r3, [r0, #2]
F:\AT32-workspace\AT32F403ACGU7_clone_windows_desktop_virtual_com_port\Release/../usbd_drivers/usbd_sdr.c:58
  setup->wIndex                = SWAPBYTE(buf + 4);
 800142e:	794a      	ldrb	r2, [r1, #5]
 8001430:	790b      	ldrb	r3, [r1, #4]
 8001432:	eb03 2302 	add.w	r3, r3, r2, lsl #8
 8001436:	8083      	strh	r3, [r0, #4]
F:\AT32-workspace\AT32F403ACGU7_clone_windows_desktop_virtual_com_port\Release/../usbd_drivers/usbd_sdr.c:59
  setup->wLength               = SWAPBYTE(buf + 6);
 8001438:	79ca      	ldrb	r2, [r1, #7]
 800143a:	798b      	ldrb	r3, [r1, #6]
 800143c:	eb03 2302 	add.w	r3, r3, r2, lsl #8
 8001440:	80c3      	strh	r3, [r0, #6]
F:\AT32-workspace\AT32F403ACGU7_clone_windows_desktop_virtual_com_port\Release/../usbd_drivers/usbd_sdr.c:60
}
 8001442:	4770      	bx	lr

08001444 <usbd_device_request>:
usbd_device_request():
F:\AT32-workspace\AT32F403ACGU7_clone_windows_desktop_virtual_com_port\Release/../usbd_drivers/usbd_sdr.c:349
  * @brief  standard usb device requests
  * @param  udev: to the structure of usbd_core_type
  * @retval status of usb_sts_type
  */
usb_sts_type usbd_device_request(usbd_core_type *udev)
{
 8001444:	b538      	push	{r3, r4, r5, lr}
F:\AT32-workspace\AT32F403ACGU7_clone_windows_desktop_virtual_com_port\Release/../usbd_drivers/usbd_sdr.c:352
  usb_sts_type ret = USB_OK;
  usb_setup_type *setup = &udev->setup;
  if((setup->bmRequestType & USB_REQ_TYPE_RESERVED) != USB_REQ_TYPE_STANDARD)
 8001446:	f890 320c 	ldrb.w	r3, [r0, #524]	; 0x20c
 800144a:	f013 0f60 	tst.w	r3, #96	; 0x60
F:\AT32-workspace\AT32F403ACGU7_clone_windows_desktop_virtual_com_port\Release/../usbd_drivers/usbd_sdr.c:349
{
 800144e:	4604      	mov	r4, r0
F:\AT32-workspace\AT32F403ACGU7_clone_windows_desktop_virtual_com_port\Release/../usbd_drivers/usbd_sdr.c:352
  if((setup->bmRequestType & USB_REQ_TYPE_RESERVED) != USB_REQ_TYPE_STANDARD)
 8001450:	d11b      	bne.n	800148a <usbd_device_request+0x46>
F:\AT32-workspace\AT32F403ACGU7_clone_windows_desktop_virtual_com_port\Release/../usbd_drivers/usbd_sdr.c:357
  {
    udev->class_handler->setup_handler(udev, &udev->setup);
    return ret;
  }
  switch(udev->setup.bRequest)
 8001452:	f890 320d 	ldrb.w	r3, [r0, #525]	; 0x20d
 8001456:	2b09      	cmp	r3, #9
 8001458:	d812      	bhi.n	8001480 <usbd_device_request+0x3c>
 800145a:	e8df f003 	tbb	[pc, r3]
 800145e:	543f      	.short	0x543f
 8001460:	7e116f11 	.word	0x7e116f11
 8001464:	1d991105 	.word	0x1d991105
usbd_get_descriptor():
F:\AT32-workspace\AT32F403ACGU7_clone_windows_desktop_virtual_com_port\Release/../usbd_drivers/usbd_sdr.c:72
  uint8_t desc_type = udev->setup.wValue >> 8;
 8001468:	f8b0 320e 	ldrh.w	r3, [r0, #526]	; 0x20e
 800146c:	0a19      	lsrs	r1, r3, #8
F:\AT32-workspace\AT32F403ACGU7_clone_windows_desktop_virtual_com_port\Release/../usbd_drivers/usbd_sdr.c:73
  switch(desc_type)
 800146e:	2902      	cmp	r1, #2
 8001470:	f000 80de 	beq.w	8001630 <usbd_device_request+0x1ec>
 8001474:	2903      	cmp	r1, #3
 8001476:	f000 80bb 	beq.w	80015f0 <usbd_device_request+0x1ac>
 800147a:	2901      	cmp	r1, #1
 800147c:	f000 8099 	beq.w	80015b2 <usbd_device_request+0x16e>
usbd_set_address():
F:\AT32-workspace\AT32F403ACGU7_clone_windows_desktop_virtual_com_port\Release/../usbd_drivers/usbd_sdr.c:154
      usbd_ctrl_unsupport(udev);
 8001480:	4620      	mov	r0, r4
 8001482:	f7ff fad1 	bl	8000a28 <usbd_ctrl_unsupport>
usbd_device_request():
F:\AT32-workspace\AT32F403ACGU7_clone_windows_desktop_virtual_com_port\Release/../usbd_drivers/usbd_sdr.c:385
    default:
      usbd_ctrl_unsupport(udev);
      break;
  }
  return ret;
}
 8001486:	2000      	movs	r0, #0
 8001488:	bd38      	pop	{r3, r4, r5, pc}
F:\AT32-workspace\AT32F403ACGU7_clone_windows_desktop_virtual_com_port\Release/../usbd_drivers/usbd_sdr.c:354
    udev->class_handler->setup_handler(udev, &udev->setup);
 800148a:	6843      	ldr	r3, [r0, #4]
 800148c:	f500 7103 	add.w	r1, r0, #524	; 0x20c
 8001490:	689b      	ldr	r3, [r3, #8]
 8001492:	4798      	blx	r3
F:\AT32-workspace\AT32F403ACGU7_clone_windows_desktop_virtual_com_port\Release/../usbd_drivers/usbd_sdr.c:385
}
 8001494:	2000      	movs	r0, #0
 8001496:	bd38      	pop	{r3, r4, r5, pc}
usbd_set_configuration():
F:\AT32-workspace\AT32F403ACGU7_clone_windows_desktop_virtual_com_port\Release/../usbd_drivers/usbd_sdr.c:291
  config_value = (uint8_t)setup->wValue;
 8001498:	4d7a      	ldr	r5, [pc, #488]	; (8001684 <usbd_device_request+0x240>)
F:\AT32-workspace\AT32F403ACGU7_clone_windows_desktop_virtual_com_port\Release/../usbd_drivers/usbd_sdr.c:293
  if(setup->wIndex == 0 && setup->wLength == 0)
 800149a:	f8b0 2210 	ldrh.w	r2, [r0, #528]	; 0x210
F:\AT32-workspace\AT32F403ACGU7_clone_windows_desktop_virtual_com_port\Release/../usbd_drivers/usbd_sdr.c:291
  config_value = (uint8_t)setup->wValue;
 800149e:	f890 320e 	ldrb.w	r3, [r0, #526]	; 0x20e
 80014a2:	702b      	strb	r3, [r5, #0]
F:\AT32-workspace\AT32F403ACGU7_clone_windows_desktop_virtual_com_port\Release/../usbd_drivers/usbd_sdr.c:293
  if(setup->wIndex == 0 && setup->wLength == 0)
 80014a4:	2a00      	cmp	r2, #0
 80014a6:	d1eb      	bne.n	8001480 <usbd_device_request+0x3c>
 80014a8:	f8b0 2212 	ldrh.w	r2, [r0, #530]	; 0x212
 80014ac:	2a00      	cmp	r2, #0
 80014ae:	d1e7      	bne.n	8001480 <usbd_device_request+0x3c>
F:\AT32-workspace\AT32F403ACGU7_clone_windows_desktop_virtual_com_port\Release/../usbd_drivers/usbd_sdr.c:295
    switch(udev->conn_state)
 80014b0:	f890 2224 	ldrb.w	r2, [r0, #548]	; 0x224
 80014b4:	2a02      	cmp	r2, #2
 80014b6:	f000 80bf 	beq.w	8001638 <usbd_device_request+0x1f4>
 80014ba:	2a03      	cmp	r2, #3
 80014bc:	d1e0      	bne.n	8001480 <usbd_device_request+0x3c>
F:\AT32-workspace\AT32F403ACGU7_clone_windows_desktop_virtual_com_port\Release/../usbd_drivers/usbd_sdr.c:312
        if(config_value == 0)
 80014be:	2b00      	cmp	r3, #0
 80014c0:	f040 80c7 	bne.w	8001652 <usbd_device_request+0x20e>
F:\AT32-workspace\AT32F403ACGU7_clone_windows_desktop_virtual_com_port\Release/../usbd_drivers/usbd_sdr.c:316
          udev->class_handler->clear_handler(udev);
 80014c4:	6842      	ldr	r2, [r0, #4]
F:\AT32-workspace\AT32F403ACGU7_clone_windows_desktop_virtual_com_port\Release/../usbd_drivers/usbd_sdr.c:315
          udev->dev_config = config_value;
 80014c6:	f880 3229 	strb.w	r3, [r0, #553]	; 0x229
F:\AT32-workspace\AT32F403ACGU7_clone_windows_desktop_virtual_com_port\Release/../usbd_drivers/usbd_sdr.c:314
          udev->conn_state = USB_CONN_STATE_ADDRESSED;
 80014ca:	2102      	movs	r1, #2
 80014cc:	f880 1224 	strb.w	r1, [r0, #548]	; 0x224
F:\AT32-workspace\AT32F403ACGU7_clone_windows_desktop_virtual_com_port\Release/../usbd_drivers/usbd_sdr.c:316
          udev->class_handler->clear_handler(udev);
 80014d0:	6853      	ldr	r3, [r2, #4]
 80014d2:	4798      	blx	r3
F:\AT32-workspace\AT32F403ACGU7_clone_windows_desktop_virtual_com_port\Release/../usbd_drivers/usbd_sdr.c:317
          usbd_ctrl_send_status(udev);
 80014d4:	4620      	mov	r0, r4
 80014d6:	f7ff f9df 	bl	8000898 <usbd_ctrl_send_status>
 80014da:	e7d4      	b.n	8001486 <usbd_device_request+0x42>
usbd_get_status():
F:\AT32-workspace\AT32F403ACGU7_clone_windows_desktop_virtual_com_port\Release/../usbd_drivers/usbd_sdr.c:186
  switch(udev->conn_state)
 80014dc:	f890 3224 	ldrb.w	r3, [r0, #548]	; 0x224
 80014e0:	3b02      	subs	r3, #2
 80014e2:	2b01      	cmp	r3, #1
 80014e4:	d8cc      	bhi.n	8001480 <usbd_device_request+0x3c>
F:\AT32-workspace\AT32F403ACGU7_clone_windows_desktop_virtual_com_port\Release/../usbd_drivers/usbd_sdr.c:190
      if(udev->remote_wakup)
 80014e6:	f890 3227 	ldrb.w	r3, [r0, #551]	; 0x227
 80014ea:	b12b      	cbz	r3, 80014f8 <usbd_device_request+0xb4>
F:\AT32-workspace\AT32F403ACGU7_clone_windows_desktop_virtual_com_port\Release/../usbd_drivers/usbd_sdr.c:192
        udev->config_status |= USB_CONF_REMOTE_WAKEUP;
 80014ec:	f8b0 322a 	ldrh.w	r3, [r0, #554]	; 0x22a
 80014f0:	f043 0302 	orr.w	r3, r3, #2
 80014f4:	f8a0 322a 	strh.w	r3, [r0, #554]	; 0x22a
F:\AT32-workspace\AT32F403ACGU7_clone_windows_desktop_virtual_com_port\Release/../usbd_drivers/usbd_sdr.c:194
      usbd_ctrl_send(udev, (uint8_t *)(&udev->config_status), 2);
 80014f8:	2202      	movs	r2, #2
 80014fa:	f204 212a 	addw	r1, r4, #554	; 0x22a
 80014fe:	4620      	mov	r0, r4
 8001500:	f7ff f93e 	bl	8000780 <usbd_ctrl_send>
F:\AT32-workspace\AT32F403ACGU7_clone_windows_desktop_virtual_com_port\Release/../usbd_drivers/usbd_sdr.c:195
      break;
 8001504:	e7bf      	b.n	8001486 <usbd_device_request+0x42>
usbd_clear_feature():
F:\AT32-workspace\AT32F403ACGU7_clone_windows_desktop_virtual_com_port\Release/../usbd_drivers/usbd_sdr.c:212
  switch(udev->conn_state)
 8001506:	f890 3224 	ldrb.w	r3, [r0, #548]	; 0x224
 800150a:	3b02      	subs	r3, #2
 800150c:	2b01      	cmp	r3, #1
 800150e:	d8b7      	bhi.n	8001480 <usbd_device_request+0x3c>
F:\AT32-workspace\AT32F403ACGU7_clone_windows_desktop_virtual_com_port\Release/../usbd_drivers/usbd_sdr.c:216
      if(setup->wValue == USB_FEATURE_REMOTE_WAKEUP)
 8001510:	f8b0 320e 	ldrh.w	r3, [r0, #526]	; 0x20e
 8001514:	2b01      	cmp	r3, #1
 8001516:	d1b6      	bne.n	8001486 <usbd_device_request+0x42>
F:\AT32-workspace\AT32F403ACGU7_clone_windows_desktop_virtual_com_port\Release/../usbd_drivers/usbd_sdr.c:219
        udev->config_status &= ~USB_CONF_REMOTE_WAKEUP;
 8001518:	f8b0 322a 	ldrh.w	r3, [r0, #554]	; 0x22a
F:\AT32-workspace\AT32F403ACGU7_clone_windows_desktop_virtual_com_port\Release/../usbd_drivers/usbd_sdr.c:220
        udev->class_handler->setup_handler(udev, &udev->setup);
 800151c:	6842      	ldr	r2, [r0, #4]
F:\AT32-workspace\AT32F403ACGU7_clone_windows_desktop_virtual_com_port\Release/../usbd_drivers/usbd_sdr.c:218
        udev->remote_wakup = 0;
 800151e:	2100      	movs	r1, #0
 8001520:	f880 1227 	strb.w	r1, [r0, #551]	; 0x227
F:\AT32-workspace\AT32F403ACGU7_clone_windows_desktop_virtual_com_port\Release/../usbd_drivers/usbd_sdr.c:219
        udev->config_status &= ~USB_CONF_REMOTE_WAKEUP;
 8001524:	f023 0302 	bic.w	r3, r3, #2
F:\AT32-workspace\AT32F403ACGU7_clone_windows_desktop_virtual_com_port\Release/../usbd_drivers/usbd_sdr.c:220
        udev->class_handler->setup_handler(udev, &udev->setup);
 8001528:	6892      	ldr	r2, [r2, #8]
F:\AT32-workspace\AT32F403ACGU7_clone_windows_desktop_virtual_com_port\Release/../usbd_drivers/usbd_sdr.c:219
        udev->config_status &= ~USB_CONF_REMOTE_WAKEUP;
 800152a:	f8a0 322a 	strh.w	r3, [r0, #554]	; 0x22a
F:\AT32-workspace\AT32F403ACGU7_clone_windows_desktop_virtual_com_port\Release/../usbd_drivers/usbd_sdr.c:220
        udev->class_handler->setup_handler(udev, &udev->setup);
 800152e:	f500 7103 	add.w	r1, r0, #524	; 0x20c
 8001532:	4790      	blx	r2
F:\AT32-workspace\AT32F403ACGU7_clone_windows_desktop_virtual_com_port\Release/../usbd_drivers/usbd_sdr.c:221
        usbd_ctrl_send_status(udev);
 8001534:	4620      	mov	r0, r4
 8001536:	f7ff f9af 	bl	8000898 <usbd_ctrl_send_status>
 800153a:	e7a4      	b.n	8001486 <usbd_device_request+0x42>
usbd_set_feature():
F:\AT32-workspace\AT32F403ACGU7_clone_windows_desktop_virtual_com_port\Release/../usbd_drivers/usbd_sdr.c:240
  if(setup->wValue == USB_FEATURE_REMOTE_WAKEUP)
 800153c:	f8b0 320e 	ldrh.w	r3, [r0, #526]	; 0x20e
 8001540:	2b01      	cmp	r3, #1
 8001542:	d1a0      	bne.n	8001486 <usbd_device_request+0x42>
F:\AT32-workspace\AT32F403ACGU7_clone_windows_desktop_virtual_com_port\Release/../usbd_drivers/usbd_sdr.c:243
    udev->class_handler->setup_handler(udev, &udev->setup);
 8001544:	6842      	ldr	r2, [r0, #4]
F:\AT32-workspace\AT32F403ACGU7_clone_windows_desktop_virtual_com_port\Release/../usbd_drivers/usbd_sdr.c:242
    udev->remote_wakup = 1;
 8001546:	f880 3227 	strb.w	r3, [r0, #551]	; 0x227
F:\AT32-workspace\AT32F403ACGU7_clone_windows_desktop_virtual_com_port\Release/../usbd_drivers/usbd_sdr.c:243
    udev->class_handler->setup_handler(udev, &udev->setup);
 800154a:	6893      	ldr	r3, [r2, #8]
 800154c:	f500 7103 	add.w	r1, r0, #524	; 0x20c
 8001550:	4798      	blx	r3
F:\AT32-workspace\AT32F403ACGU7_clone_windows_desktop_virtual_com_port\Release/../usbd_drivers/usbd_sdr.c:244
    usbd_ctrl_send_status(udev);
 8001552:	4620      	mov	r0, r4
 8001554:	f7ff f9a0 	bl	8000898 <usbd_ctrl_send_status>
 8001558:	e795      	b.n	8001486 <usbd_device_request+0x42>
usbd_set_address():
F:\AT32-workspace\AT32F403ACGU7_clone_windows_desktop_virtual_com_port\Release/../usbd_drivers/usbd_sdr.c:146
  if(setup->wIndex == 0 && setup->wLength == 0)
 800155a:	f8b0 3210 	ldrh.w	r3, [r0, #528]	; 0x210
 800155e:	2b00      	cmp	r3, #0
 8001560:	d18e      	bne.n	8001480 <usbd_device_request+0x3c>
 8001562:	f8b0 3212 	ldrh.w	r3, [r0, #530]	; 0x212
 8001566:	2b00      	cmp	r3, #0
 8001568:	d18a      	bne.n	8001480 <usbd_device_request+0x3c>
F:\AT32-workspace\AT32F403ACGU7_clone_windows_desktop_virtual_com_port\Release/../usbd_drivers/usbd_sdr.c:152
    if(udev->conn_state == USB_CONN_STATE_CONFIGURED )
 800156a:	f890 2224 	ldrb.w	r2, [r0, #548]	; 0x224
F:\AT32-workspace\AT32F403ACGU7_clone_windows_desktop_virtual_com_port\Release/../usbd_drivers/usbd_sdr.c:148
    dev_addr = (uint8_t)(setup->wValue) & 0x7f;
 800156e:	f8b0 320e 	ldrh.w	r3, [r0, #526]	; 0x20e
F:\AT32-workspace\AT32F403ACGU7_clone_windows_desktop_virtual_com_port\Release/../usbd_drivers/usbd_sdr.c:152
    if(udev->conn_state == USB_CONN_STATE_CONFIGURED )
 8001572:	2a03      	cmp	r2, #3
F:\AT32-workspace\AT32F403ACGU7_clone_windows_desktop_virtual_com_port\Release/../usbd_drivers/usbd_sdr.c:148
    dev_addr = (uint8_t)(setup->wValue) & 0x7f;
 8001574:	f003 037f 	and.w	r3, r3, #127	; 0x7f
F:\AT32-workspace\AT32F403ACGU7_clone_windows_desktop_virtual_com_port\Release/../usbd_drivers/usbd_sdr.c:152
    if(udev->conn_state == USB_CONN_STATE_CONFIGURED )
 8001578:	d082      	beq.n	8001480 <usbd_device_request+0x3c>
F:\AT32-workspace\AT32F403ACGU7_clone_windows_desktop_virtual_com_port\Release/../usbd_drivers/usbd_sdr.c:166
        udev->conn_state = USB_CONN_STATE_DEFAULT;
 800157a:	2b00      	cmp	r3, #0
 800157c:	bf14      	ite	ne
 800157e:	2202      	movne	r2, #2
 8001580:	2201      	moveq	r2, #1
F:\AT32-workspace\AT32F403ACGU7_clone_windows_desktop_virtual_com_port\Release/../usbd_drivers/usbd_sdr.c:158
      udev->device_addr = dev_addr;
 8001582:	f880 3226 	strb.w	r3, [r0, #550]	; 0x226
F:\AT32-workspace\AT32F403ACGU7_clone_windows_desktop_virtual_com_port\Release/../usbd_drivers/usbd_sdr.c:160
      if(dev_addr != 0)
 8001586:	f880 2224 	strb.w	r2, [r0, #548]	; 0x224
F:\AT32-workspace\AT32F403ACGU7_clone_windows_desktop_virtual_com_port\Release/../usbd_drivers/usbd_sdr.c:168
      usbd_ctrl_send_status(udev);
 800158a:	f7ff f985 	bl	8000898 <usbd_ctrl_send_status>
 800158e:	e77a      	b.n	8001486 <usbd_device_request+0x42>
usbd_get_configuration():
F:\AT32-workspace\AT32F403ACGU7_clone_windows_desktop_virtual_com_port\Release/../usbd_drivers/usbd_sdr.c:258
  if(setup->wLength != 1)
 8001590:	f8b0 2212 	ldrh.w	r2, [r0, #530]	; 0x212
 8001594:	2a01      	cmp	r2, #1
 8001596:	f47f af73 	bne.w	8001480 <usbd_device_request+0x3c>
F:\AT32-workspace\AT32F403ACGU7_clone_windows_desktop_virtual_com_port\Release/../usbd_drivers/usbd_sdr.c:264
    switch(udev->conn_state)
 800159a:	f890 3224 	ldrb.w	r3, [r0, #548]	; 0x224
 800159e:	2b02      	cmp	r3, #2
 80015a0:	d01e      	beq.n	80015e0 <usbd_device_request+0x19c>
 80015a2:	2b03      	cmp	r3, #3
 80015a4:	f47f af6c 	bne.w	8001480 <usbd_device_request+0x3c>
F:\AT32-workspace\AT32F403ACGU7_clone_windows_desktop_virtual_com_port\Release/../usbd_drivers/usbd_sdr.c:271
        usbd_ctrl_send(udev, (uint8_t *)(&udev->dev_config), 1);
 80015a8:	f200 2129 	addw	r1, r0, #553	; 0x229
 80015ac:	f7ff f8e8 	bl	8000780 <usbd_ctrl_send>
F:\AT32-workspace\AT32F403ACGU7_clone_windows_desktop_virtual_com_port\Release/../usbd_drivers/usbd_sdr.c:272
        break;
 80015b0:	e769      	b.n	8001486 <usbd_device_request+0x42>
usbd_get_descriptor():
F:\AT32-workspace\AT32F403ACGU7_clone_windows_desktop_virtual_com_port\Release/../usbd_drivers/usbd_sdr.c:76
      desc = udev->desc_handler->get_device_descriptor();
 80015b2:	6883      	ldr	r3, [r0, #8]
 80015b4:	681b      	ldr	r3, [r3, #0]
 80015b6:	4798      	blx	r3
F:\AT32-workspace\AT32F403ACGU7_clone_windows_desktop_virtual_com_port\Release/../usbd_drivers/usbd_sdr.c:121
  if(desc != NULL)
 80015b8:	2800      	cmp	r0, #0
 80015ba:	f43f af64 	beq.w	8001486 <usbd_device_request+0x42>
F:\AT32-workspace\AT32F403ACGU7_clone_windows_desktop_virtual_com_port\Release/../usbd_drivers/usbd_sdr.c:123
    if((desc->length != 0) && (udev->setup.wLength != 0))
 80015be:	8803      	ldrh	r3, [r0, #0]
 80015c0:	2b00      	cmp	r3, #0
 80015c2:	f43f af60 	beq.w	8001486 <usbd_device_request+0x42>
 80015c6:	f8b4 2212 	ldrh.w	r2, [r4, #530]	; 0x212
 80015ca:	2a00      	cmp	r2, #0
 80015cc:	f43f af5b 	beq.w	8001486 <usbd_device_request+0x42>
F:\AT32-workspace\AT32F403ACGU7_clone_windows_desktop_virtual_com_port\Release/../usbd_drivers/usbd_sdr.c:126
      usbd_ctrl_send(udev, desc->descriptor, len);
 80015d0:	429a      	cmp	r2, r3
 80015d2:	6841      	ldr	r1, [r0, #4]
 80015d4:	bf28      	it	cs
 80015d6:	461a      	movcs	r2, r3
 80015d8:	4620      	mov	r0, r4
 80015da:	f7ff f8d1 	bl	8000780 <usbd_ctrl_send>
 80015de:	e752      	b.n	8001486 <usbd_device_request+0x42>
usbd_get_configuration():
F:\AT32-workspace\AT32F403ACGU7_clone_windows_desktop_virtual_com_port\Release/../usbd_drivers/usbd_sdr.c:267
        udev->default_config = 0;
 80015e0:	2300      	movs	r3, #0
 80015e2:	f880 3228 	strb.w	r3, [r0, #552]	; 0x228
F:\AT32-workspace\AT32F403ACGU7_clone_windows_desktop_virtual_com_port\Release/../usbd_drivers/usbd_sdr.c:268
        usbd_ctrl_send(udev, (uint8_t *)(&udev->default_config), 1);
 80015e6:	f500 710a 	add.w	r1, r0, #552	; 0x228
 80015ea:	f7ff f8c9 	bl	8000780 <usbd_ctrl_send>
F:\AT32-workspace\AT32F403ACGU7_clone_windows_desktop_virtual_com_port\Release/../usbd_drivers/usbd_sdr.c:269
        break;
 80015ee:	e74a      	b.n	8001486 <usbd_device_request+0x42>
usbd_get_descriptor():
F:\AT32-workspace\AT32F403ACGU7_clone_windows_desktop_virtual_com_port\Release/../usbd_drivers/usbd_sdr.c:84
      switch(str_desc)
 80015f0:	b2db      	uxtb	r3, r3
 80015f2:	2b05      	cmp	r3, #5
 80015f4:	d83f      	bhi.n	8001676 <usbd_device_request+0x232>
 80015f6:	e8df f003 	tbb	[pc, r3]
 80015fa:	1317      	.short	0x1317
 80015fc:	03070b0f 	.word	0x03070b0f
F:\AT32-workspace\AT32F403ACGU7_clone_windows_desktop_virtual_com_port\Release/../usbd_drivers/usbd_sdr.c:102
          desc = udev->desc_handler->get_device_interface_string();
 8001600:	6883      	ldr	r3, [r0, #8]
 8001602:	6a1b      	ldr	r3, [r3, #32]
 8001604:	4798      	blx	r3
F:\AT32-workspace\AT32F403ACGU7_clone_windows_desktop_virtual_com_port\Release/../usbd_drivers/usbd_sdr.c:103
          break;
 8001606:	e7d7      	b.n	80015b8 <usbd_device_request+0x174>
F:\AT32-workspace\AT32F403ACGU7_clone_windows_desktop_virtual_com_port\Release/../usbd_drivers/usbd_sdr.c:99
          desc = udev->desc_handler->get_device_config_string();
 8001608:	6883      	ldr	r3, [r0, #8]
 800160a:	6a5b      	ldr	r3, [r3, #36]	; 0x24
 800160c:	4798      	blx	r3
F:\AT32-workspace\AT32F403ACGU7_clone_windows_desktop_virtual_com_port\Release/../usbd_drivers/usbd_sdr.c:100
          break;
 800160e:	e7d3      	b.n	80015b8 <usbd_device_request+0x174>
F:\AT32-workspace\AT32F403ACGU7_clone_windows_desktop_virtual_com_port\Release/../usbd_drivers/usbd_sdr.c:96
          desc = udev->desc_handler->get_device_serial_string();
 8001610:	6883      	ldr	r3, [r0, #8]
 8001612:	69db      	ldr	r3, [r3, #28]
 8001614:	4798      	blx	r3
F:\AT32-workspace\AT32F403ACGU7_clone_windows_desktop_virtual_com_port\Release/../usbd_drivers/usbd_sdr.c:97
          break;
 8001616:	e7cf      	b.n	80015b8 <usbd_device_request+0x174>
F:\AT32-workspace\AT32F403ACGU7_clone_windows_desktop_virtual_com_port\Release/../usbd_drivers/usbd_sdr.c:93
          desc = udev->desc_handler->get_device_product_string();
 8001618:	6883      	ldr	r3, [r0, #8]
 800161a:	699b      	ldr	r3, [r3, #24]
 800161c:	4798      	blx	r3
F:\AT32-workspace\AT32F403ACGU7_clone_windows_desktop_virtual_com_port\Release/../usbd_drivers/usbd_sdr.c:94
          break;
 800161e:	e7cb      	b.n	80015b8 <usbd_device_request+0x174>
F:\AT32-workspace\AT32F403ACGU7_clone_windows_desktop_virtual_com_port\Release/../usbd_drivers/usbd_sdr.c:90
          desc = udev->desc_handler->get_device_manufacturer_string();
 8001620:	6883      	ldr	r3, [r0, #8]
 8001622:	695b      	ldr	r3, [r3, #20]
 8001624:	4798      	blx	r3
F:\AT32-workspace\AT32F403ACGU7_clone_windows_desktop_virtual_com_port\Release/../usbd_drivers/usbd_sdr.c:91
          break;
 8001626:	e7c7      	b.n	80015b8 <usbd_device_request+0x174>
F:\AT32-workspace\AT32F403ACGU7_clone_windows_desktop_virtual_com_port\Release/../usbd_drivers/usbd_sdr.c:87
          desc = udev->desc_handler->get_device_lang_id();
 8001628:	6883      	ldr	r3, [r0, #8]
 800162a:	691b      	ldr	r3, [r3, #16]
 800162c:	4798      	blx	r3
F:\AT32-workspace\AT32F403ACGU7_clone_windows_desktop_virtual_com_port\Release/../usbd_drivers/usbd_sdr.c:88
          break;
 800162e:	e7c3      	b.n	80015b8 <usbd_device_request+0x174>
F:\AT32-workspace\AT32F403ACGU7_clone_windows_desktop_virtual_com_port\Release/../usbd_drivers/usbd_sdr.c:79
      desc = udev->desc_handler->get_device_configuration();
 8001630:	6883      	ldr	r3, [r0, #8]
 8001632:	689b      	ldr	r3, [r3, #8]
 8001634:	4798      	blx	r3
F:\AT32-workspace\AT32F403ACGU7_clone_windows_desktop_virtual_com_port\Release/../usbd_drivers/usbd_sdr.c:80
      break;
 8001636:	e7bf      	b.n	80015b8 <usbd_device_request+0x174>
usbd_set_configuration():
F:\AT32-workspace\AT32F403ACGU7_clone_windows_desktop_virtual_com_port\Release/../usbd_drivers/usbd_sdr.c:298
        if(config_value)
 8001638:	b1cb      	cbz	r3, 800166e <usbd_device_request+0x22a>
F:\AT32-workspace\AT32F403ACGU7_clone_windows_desktop_virtual_com_port\Release/../usbd_drivers/usbd_sdr.c:302
          udev->class_handler->init_handler(udev);
 800163a:	6842      	ldr	r2, [r0, #4]
F:\AT32-workspace\AT32F403ACGU7_clone_windows_desktop_virtual_com_port\Release/../usbd_drivers/usbd_sdr.c:300
          udev->dev_config = config_value;
 800163c:	f880 3229 	strb.w	r3, [r0, #553]	; 0x229
F:\AT32-workspace\AT32F403ACGU7_clone_windows_desktop_virtual_com_port\Release/../usbd_drivers/usbd_sdr.c:301
          udev->conn_state = USB_CONN_STATE_CONFIGURED;
 8001640:	2103      	movs	r1, #3
 8001642:	f880 1224 	strb.w	r1, [r0, #548]	; 0x224
F:\AT32-workspace\AT32F403ACGU7_clone_windows_desktop_virtual_com_port\Release/../usbd_drivers/usbd_sdr.c:302
          udev->class_handler->init_handler(udev);
 8001646:	6813      	ldr	r3, [r2, #0]
 8001648:	4798      	blx	r3
F:\AT32-workspace\AT32F403ACGU7_clone_windows_desktop_virtual_com_port\Release/../usbd_drivers/usbd_sdr.c:303
          usbd_ctrl_send_status(udev);
 800164a:	4620      	mov	r0, r4
 800164c:	f7ff f924 	bl	8000898 <usbd_ctrl_send_status>
 8001650:	e719      	b.n	8001486 <usbd_device_request+0x42>
F:\AT32-workspace\AT32F403ACGU7_clone_windows_desktop_virtual_com_port\Release/../usbd_drivers/usbd_sdr.c:319
        else if(config_value == udev->dev_config)
 8001652:	f890 2229 	ldrb.w	r2, [r0, #553]	; 0x229
 8001656:	429a      	cmp	r2, r3
 8001658:	d109      	bne.n	800166e <usbd_device_request+0x22a>
F:\AT32-workspace\AT32F403ACGU7_clone_windows_desktop_virtual_com_port\Release/../usbd_drivers/usbd_sdr.c:321
          udev->class_handler->clear_handler(udev);
 800165a:	6843      	ldr	r3, [r0, #4]
 800165c:	685b      	ldr	r3, [r3, #4]
 800165e:	4798      	blx	r3
F:\AT32-workspace\AT32F403ACGU7_clone_windows_desktop_virtual_com_port\Release/../usbd_drivers/usbd_sdr.c:322
          udev->dev_config = config_value;
 8001660:	782a      	ldrb	r2, [r5, #0]
F:\AT32-workspace\AT32F403ACGU7_clone_windows_desktop_virtual_com_port\Release/../usbd_drivers/usbd_sdr.c:323
          udev->class_handler->init_handler(udev);
 8001662:	6863      	ldr	r3, [r4, #4]
F:\AT32-workspace\AT32F403ACGU7_clone_windows_desktop_virtual_com_port\Release/../usbd_drivers/usbd_sdr.c:322
          udev->dev_config = config_value;
 8001664:	f884 2229 	strb.w	r2, [r4, #553]	; 0x229
F:\AT32-workspace\AT32F403ACGU7_clone_windows_desktop_virtual_com_port\Release/../usbd_drivers/usbd_sdr.c:323
          udev->class_handler->init_handler(udev);
 8001668:	681b      	ldr	r3, [r3, #0]
 800166a:	4620      	mov	r0, r4
 800166c:	4798      	blx	r3
F:\AT32-workspace\AT32F403ACGU7_clone_windows_desktop_virtual_com_port\Release/../usbd_drivers/usbd_sdr.c:324
          usbd_ctrl_send_status(udev);
 800166e:	4620      	mov	r0, r4
 8001670:	f7ff f912 	bl	8000898 <usbd_ctrl_send_status>
 8001674:	e707      	b.n	8001486 <usbd_device_request+0x42>
usbd_get_descriptor():
F:\AT32-workspace\AT32F403ACGU7_clone_windows_desktop_virtual_com_port\Release/../usbd_drivers/usbd_sdr.c:105
          udev->class_handler->setup_handler(udev, &udev->setup);
 8001676:	6843      	ldr	r3, [r0, #4]
 8001678:	f500 7103 	add.w	r1, r0, #524	; 0x20c
 800167c:	689b      	ldr	r3, [r3, #8]
 800167e:	4798      	blx	r3
F:\AT32-workspace\AT32F403ACGU7_clone_windows_desktop_virtual_com_port\Release/../usbd_drivers/usbd_sdr.c:106
          return ret;
 8001680:	e701      	b.n	8001486 <usbd_device_request+0x42>
 8001682:	bf00      	nop
 8001684:	200061dc 	.word	0x200061dc

08001688 <usbd_interface_request>:
usbd_interface_request():
F:\AT32-workspace\AT32F403ACGU7_clone_windows_desktop_virtual_com_port\Release/../usbd_drivers/usbd_sdr.c:393
  * @brief  standard usb interface requests
  * @param  udev: to the structure of usbd_core_type
  * @retval status of usb_sts_type
  */
usb_sts_type usbd_interface_request(usbd_core_type *udev)
{
 8001688:	b538      	push	{r3, r4, r5, lr}
F:\AT32-workspace\AT32F403ACGU7_clone_windows_desktop_virtual_com_port\Release/../usbd_drivers/usbd_sdr.c:396
  usb_sts_type ret = USB_OK;
  usb_setup_type *setup = &udev->setup;
  switch(udev->conn_state)
 800168a:	f890 3224 	ldrb.w	r3, [r0, #548]	; 0x224
 800168e:	3b01      	subs	r3, #1
 8001690:	2b02      	cmp	r3, #2
 8001692:	d80c      	bhi.n	80016ae <usbd_interface_request+0x26>
F:\AT32-workspace\AT32F403ACGU7_clone_windows_desktop_virtual_com_port\Release/../usbd_drivers/usbd_sdr.c:401
  {
    case USB_CONN_STATE_DEFAULT:
    case USB_CONN_STATE_ADDRESSED:
    case USB_CONN_STATE_CONFIGURED:
      ret = udev->class_handler->setup_handler(udev, &udev->setup);
 8001694:	6843      	ldr	r3, [r0, #4]
 8001696:	4604      	mov	r4, r0
 8001698:	689b      	ldr	r3, [r3, #8]
 800169a:	f500 7103 	add.w	r1, r0, #524	; 0x20c
 800169e:	4798      	blx	r3
F:\AT32-workspace\AT32F403ACGU7_clone_windows_desktop_virtual_com_port\Release/../usbd_drivers/usbd_sdr.c:402
      if(setup->wLength == 0 && ret == USB_OK)
 80016a0:	f8b4 3212 	ldrh.w	r3, [r4, #530]	; 0x212
F:\AT32-workspace\AT32F403ACGU7_clone_windows_desktop_virtual_com_port\Release/../usbd_drivers/usbd_sdr.c:401
      ret = udev->class_handler->setup_handler(udev, &udev->setup);
 80016a4:	4605      	mov	r5, r0
F:\AT32-workspace\AT32F403ACGU7_clone_windows_desktop_virtual_com_port\Release/../usbd_drivers/usbd_sdr.c:402
      if(setup->wLength == 0 && ret == USB_OK)
 80016a6:	b903      	cbnz	r3, 80016aa <usbd_interface_request+0x22>
F:\AT32-workspace\AT32F403ACGU7_clone_windows_desktop_virtual_com_port\Release/../usbd_drivers/usbd_sdr.c:402 (discriminator 1)
 80016a8:	b130      	cbz	r0, 80016b8 <usbd_interface_request+0x30>
F:\AT32-workspace\AT32F403ACGU7_clone_windows_desktop_virtual_com_port\Release/../usbd_drivers/usbd_sdr.c:412
    default:
      usbd_ctrl_unsupport(udev);
      break;
  }
  return ret;
}
 80016aa:	4628      	mov	r0, r5
 80016ac:	bd38      	pop	{r3, r4, r5, pc}
F:\AT32-workspace\AT32F403ACGU7_clone_windows_desktop_virtual_com_port\Release/../usbd_drivers/usbd_sdr.c:394
  usb_sts_type ret = USB_OK;
 80016ae:	2500      	movs	r5, #0
F:\AT32-workspace\AT32F403ACGU7_clone_windows_desktop_virtual_com_port\Release/../usbd_drivers/usbd_sdr.c:408
      usbd_ctrl_unsupport(udev);
 80016b0:	f7ff f9ba 	bl	8000a28 <usbd_ctrl_unsupport>
F:\AT32-workspace\AT32F403ACGU7_clone_windows_desktop_virtual_com_port\Release/../usbd_drivers/usbd_sdr.c:412
}
 80016b4:	4628      	mov	r0, r5
 80016b6:	bd38      	pop	{r3, r4, r5, pc}
F:\AT32-workspace\AT32F403ACGU7_clone_windows_desktop_virtual_com_port\Release/../usbd_drivers/usbd_sdr.c:404
        usbd_ctrl_send_status(udev);
 80016b8:	4620      	mov	r0, r4
 80016ba:	f7ff f8ed 	bl	8000898 <usbd_ctrl_send_status>
F:\AT32-workspace\AT32F403ACGU7_clone_windows_desktop_virtual_com_port\Release/../usbd_drivers/usbd_sdr.c:412
}
 80016be:	4628      	mov	r0, r5
 80016c0:	bd38      	pop	{r3, r4, r5, pc}
 80016c2:	bf00      	nop

080016c4 <usbd_endpoint_request>:
usbd_endpoint_request():
F:\AT32-workspace\AT32F403ACGU7_clone_windows_desktop_virtual_com_port\Release/../usbd_drivers/usbd_sdr.c:420
  * @brief  standard usb endpoint requests
  * @param  udev: to the structure of usbd_core_type
  * @retval status of usb_sts_type
  */
usb_sts_type usbd_endpoint_request(usbd_core_type *udev)
{
 80016c4:	b570      	push	{r4, r5, r6, lr}
F:\AT32-workspace\AT32F403ACGU7_clone_windows_desktop_virtual_com_port\Release/../usbd_drivers/usbd_sdr.c:426
  usb_sts_type ret = USB_OK;
  usb_setup_type *setup = &udev->setup;
  uint8_t ept_addr = LBYTE(setup->wIndex);
  usb_ept_info *ept_info;

  if((setup->bmRequestType & USB_REQ_TYPE_RESERVED) != USB_REQ_TYPE_STANDARD)
 80016c6:	f890 320c 	ldrb.w	r3, [r0, #524]	; 0x20c
 80016ca:	f013 0f60 	tst.w	r3, #96	; 0x60
F:\AT32-workspace\AT32F403ACGU7_clone_windows_desktop_virtual_com_port\Release/../usbd_drivers/usbd_sdr.c:420
{
 80016ce:	4604      	mov	r4, r0
F:\AT32-workspace\AT32F403ACGU7_clone_windows_desktop_virtual_com_port\Release/../usbd_drivers/usbd_sdr.c:426
  if((setup->bmRequestType & USB_REQ_TYPE_RESERVED) != USB_REQ_TYPE_STANDARD)
 80016d0:	d10e      	bne.n	80016f0 <usbd_endpoint_request+0x2c>
F:\AT32-workspace\AT32F403ACGU7_clone_windows_desktop_virtual_com_port\Release/../usbd_drivers/usbd_sdr.c:431
  {
    udev->class_handler->setup_handler(udev, &udev->setup);
    return ret;
  }
  switch(setup->bRequest)
 80016d2:	f890 320d 	ldrb.w	r3, [r0, #525]	; 0x20d
F:\AT32-workspace\AT32F403ACGU7_clone_windows_desktop_virtual_com_port\Release/../usbd_drivers/usbd_sdr.c:423
  uint8_t ept_addr = LBYTE(setup->wIndex);
 80016d6:	f8b0 5210 	ldrh.w	r5, [r0, #528]	; 0x210
F:\AT32-workspace\AT32F403ACGU7_clone_windows_desktop_virtual_com_port\Release/../usbd_drivers/usbd_sdr.c:431
  switch(setup->bRequest)
 80016da:	2b01      	cmp	r3, #1
F:\AT32-workspace\AT32F403ACGU7_clone_windows_desktop_virtual_com_port\Release/../usbd_drivers/usbd_sdr.c:423
  uint8_t ept_addr = LBYTE(setup->wIndex);
 80016dc:	b2e9      	uxtb	r1, r5
F:\AT32-workspace\AT32F403ACGU7_clone_windows_desktop_virtual_com_port\Release/../usbd_drivers/usbd_sdr.c:431
  switch(setup->bRequest)
 80016de:	d040      	beq.n	8001762 <usbd_endpoint_request+0x9e>
 80016e0:	2b03      	cmp	r3, #3
 80016e2:	d00c      	beq.n	80016fe <usbd_endpoint_request+0x3a>
 80016e4:	b313      	cbz	r3, 800172c <usbd_endpoint_request+0x68>
F:\AT32-workspace\AT32F403ACGU7_clone_windows_desktop_virtual_com_port\Release/../usbd_drivers/usbd_sdr.c:475
          }
          usbd_ctrl_send(udev, (uint8_t *)(&ept_info->status), 2);
        }
          break;
        default:
          usbd_ctrl_unsupport(udev);
 80016e6:	4620      	mov	r0, r4
 80016e8:	f7ff f99e 	bl	8000a28 <usbd_ctrl_unsupport>
F:\AT32-workspace\AT32F403ACGU7_clone_windows_desktop_virtual_com_port\Release/../usbd_drivers/usbd_sdr.c:534
    default:
      usbd_ctrl_unsupport(udev);
      break;
  }
  return ret;
}
 80016ec:	2000      	movs	r0, #0
 80016ee:	bd70      	pop	{r4, r5, r6, pc}
F:\AT32-workspace\AT32F403ACGU7_clone_windows_desktop_virtual_com_port\Release/../usbd_drivers/usbd_sdr.c:428
    udev->class_handler->setup_handler(udev, &udev->setup);
 80016f0:	6843      	ldr	r3, [r0, #4]
 80016f2:	f500 7103 	add.w	r1, r0, #524	; 0x20c
 80016f6:	689b      	ldr	r3, [r3, #8]
 80016f8:	4798      	blx	r3
F:\AT32-workspace\AT32F403ACGU7_clone_windows_desktop_virtual_com_port\Release/../usbd_drivers/usbd_sdr.c:534
}
 80016fa:	2000      	movs	r0, #0
 80016fc:	bd70      	pop	{r4, r5, r6, pc}
F:\AT32-workspace\AT32F403ACGU7_clone_windows_desktop_virtual_com_port\Release/../usbd_drivers/usbd_sdr.c:505
      switch(udev->conn_state)
 80016fe:	f890 3224 	ldrb.w	r3, [r0, #548]	; 0x224
 8001702:	2b02      	cmp	r3, #2
 8001704:	d03c      	beq.n	8001780 <usbd_endpoint_request+0xbc>
 8001706:	2b03      	cmp	r3, #3
 8001708:	d1ed      	bne.n	80016e6 <usbd_endpoint_request+0x22>
F:\AT32-workspace\AT32F403ACGU7_clone_windows_desktop_virtual_com_port\Release/../usbd_drivers/usbd_sdr.c:514
          if(setup->wValue == USB_FEATURE_EPT_HALT)
 800170a:	f8b0 320e 	ldrh.w	r3, [r0, #526]	; 0x20e
 800170e:	b91b      	cbnz	r3, 8001718 <usbd_endpoint_request+0x54>
F:\AT32-workspace\AT32F403ACGU7_clone_windows_desktop_virtual_com_port\Release/../usbd_drivers/usbd_sdr.c:516
            if((ept_addr != 0x00) && (ept_addr != 0x80))
 8001710:	064b      	lsls	r3, r1, #25
 8001712:	d001      	beq.n	8001718 <usbd_endpoint_request+0x54>
F:\AT32-workspace\AT32F403ACGU7_clone_windows_desktop_virtual_com_port\Release/../usbd_drivers/usbd_sdr.c:518
              usbd_set_stall(udev, ept_addr);
 8001714:	f7ff f94e 	bl	80009b4 <usbd_set_stall>
F:\AT32-workspace\AT32F403ACGU7_clone_windows_desktop_virtual_com_port\Release/../usbd_drivers/usbd_sdr.c:521
          udev->class_handler->setup_handler(udev, &udev->setup);
 8001718:	6863      	ldr	r3, [r4, #4]
 800171a:	f504 7103 	add.w	r1, r4, #524	; 0x20c
 800171e:	689b      	ldr	r3, [r3, #8]
 8001720:	4620      	mov	r0, r4
 8001722:	4798      	blx	r3
F:\AT32-workspace\AT32F403ACGU7_clone_windows_desktop_virtual_com_port\Release/../usbd_drivers/usbd_sdr.c:522
          usbd_ctrl_send_status(udev);
 8001724:	4620      	mov	r0, r4
 8001726:	f7ff f8b7 	bl	8000898 <usbd_ctrl_send_status>
F:\AT32-workspace\AT32F403ACGU7_clone_windows_desktop_virtual_com_port\Release/../usbd_drivers/usbd_sdr.c:523
          break;
 800172a:	e7df      	b.n	80016ec <usbd_endpoint_request+0x28>
F:\AT32-workspace\AT32F403ACGU7_clone_windows_desktop_virtual_com_port\Release/../usbd_drivers/usbd_sdr.c:434
      switch(udev->conn_state)
 800172c:	f890 3224 	ldrb.w	r3, [r0, #548]	; 0x224
 8001730:	2b02      	cmp	r3, #2
 8001732:	d02a      	beq.n	800178a <usbd_endpoint_request+0xc6>
 8001734:	2b03      	cmp	r3, #3
 8001736:	d1d6      	bne.n	80016e6 <usbd_endpoint_request+0x22>
F:\AT32-workspace\AT32F403ACGU7_clone_windows_desktop_virtual_com_port\Release/../usbd_drivers/usbd_sdr.c:457
           ept_info = &udev->ept_in[ept_addr & 0x7F];
 8001738:	f001 017f 	and.w	r1, r1, #127	; 0x7f
 800173c:	eb00 1141 	add.w	r1, r0, r1, lsl #5
F:\AT32-workspace\AT32F403ACGU7_clone_windows_desktop_virtual_com_port\Release/../usbd_drivers/usbd_sdr.c:455
          if((ept_addr & 0x80) != 0)
 8001740:	062e      	lsls	r6, r5, #24
F:\AT32-workspace\AT32F403ACGU7_clone_windows_desktop_virtual_com_port\Release/../usbd_drivers/usbd_sdr.c:457
           ept_info = &udev->ept_in[ept_addr & 0x7F];
 8001742:	bf4c      	ite	mi
 8001744:	310c      	addmi	r1, #12
F:\AT32-workspace\AT32F403ACGU7_clone_windows_desktop_virtual_com_port\Release/../usbd_drivers/usbd_sdr.c:461
            ept_info = &udev->ept_out[ept_addr & 0x7F];
 8001746:	f501 7186 	addpl.w	r1, r1, #268	; 0x10c
F:\AT32-workspace\AT32F403ACGU7_clone_windows_desktop_virtual_com_port\Release/../usbd_drivers/usbd_sdr.c:471
          usbd_ctrl_send(udev, (uint8_t *)(&ept_info->status), 2);
 800174a:	2202      	movs	r2, #2
F:\AT32-workspace\AT32F403ACGU7_clone_windows_desktop_virtual_com_port\Release/../usbd_drivers/usbd_sdr.c:463
          if(ept_info->stall == 1)
 800174c:	7acb      	ldrb	r3, [r1, #11]
 800174e:	f1a3 0301 	sub.w	r3, r3, #1
 8001752:	fab3 f383 	clz	r3, r3
 8001756:	095b      	lsrs	r3, r3, #5
 8001758:	f821 3f0c 	strh.w	r3, [r1, #12]!
F:\AT32-workspace\AT32F403ACGU7_clone_windows_desktop_virtual_com_port\Release/../usbd_drivers/usbd_sdr.c:471
          usbd_ctrl_send(udev, (uint8_t *)(&ept_info->status), 2);
 800175c:	f7ff f810 	bl	8000780 <usbd_ctrl_send>
F:\AT32-workspace\AT32F403ACGU7_clone_windows_desktop_virtual_com_port\Release/../usbd_drivers/usbd_sdr.c:473
          break;
 8001760:	e7c4      	b.n	80016ec <usbd_endpoint_request+0x28>
F:\AT32-workspace\AT32F403ACGU7_clone_windows_desktop_virtual_com_port\Release/../usbd_drivers/usbd_sdr.c:480
      switch(udev->conn_state)
 8001762:	f890 3224 	ldrb.w	r3, [r0, #548]	; 0x224
 8001766:	2b02      	cmp	r3, #2
 8001768:	d00a      	beq.n	8001780 <usbd_endpoint_request+0xbc>
 800176a:	2b03      	cmp	r3, #3
 800176c:	d1bb      	bne.n	80016e6 <usbd_endpoint_request+0x22>
F:\AT32-workspace\AT32F403ACGU7_clone_windows_desktop_virtual_com_port\Release/../usbd_drivers/usbd_sdr.c:489
          if(setup->wValue == USB_FEATURE_EPT_HALT)
 800176e:	f8b0 320e 	ldrh.w	r3, [r0, #526]	; 0x20e
 8001772:	2b00      	cmp	r3, #0
 8001774:	d1ba      	bne.n	80016ec <usbd_endpoint_request+0x28>
F:\AT32-workspace\AT32F403ACGU7_clone_windows_desktop_virtual_com_port\Release/../usbd_drivers/usbd_sdr.c:491
            if((ept_addr & 0x7F) != 0x00 )
 8001776:	064d      	lsls	r5, r1, #25
 8001778:	d0d4      	beq.n	8001724 <usbd_endpoint_request+0x60>
F:\AT32-workspace\AT32F403ACGU7_clone_windows_desktop_virtual_com_port\Release/../usbd_drivers/usbd_sdr.c:493
              usbd_clear_stall(udev, ept_addr);
 800177a:	f7ff f8e1 	bl	8000940 <usbd_clear_stall>
F:\AT32-workspace\AT32F403ACGU7_clone_windows_desktop_virtual_com_port\Release/../usbd_drivers/usbd_sdr.c:494
              udev->class_handler->setup_handler(udev, &udev->setup);
 800177e:	e7cb      	b.n	8001718 <usbd_endpoint_request+0x54>
F:\AT32-workspace\AT32F403ACGU7_clone_windows_desktop_virtual_com_port\Release/../usbd_drivers/usbd_sdr.c:508
          if((ept_addr != 0x00) && (ept_addr != 0x80))
 8001780:	064a      	lsls	r2, r1, #25
 8001782:	d0b3      	beq.n	80016ec <usbd_endpoint_request+0x28>
F:\AT32-workspace\AT32F403ACGU7_clone_windows_desktop_virtual_com_port\Release/../usbd_drivers/usbd_sdr.c:510
            usbd_set_stall(udev, ept_addr);
 8001784:	f7ff f916 	bl	80009b4 <usbd_set_stall>
 8001788:	e7b0      	b.n	80016ec <usbd_endpoint_request+0x28>
F:\AT32-workspace\AT32F403ACGU7_clone_windows_desktop_virtual_com_port\Release/../usbd_drivers/usbd_sdr.c:437
          if((ept_addr & 0x7F) != 0)
 800178a:	f011 067f 	ands.w	r6, r1, #127	; 0x7f
 800178e:	d10e      	bne.n	80017ae <usbd_endpoint_request+0xea>
F:\AT32-workspace\AT32F403ACGU7_clone_windows_desktop_virtual_com_port\Release/../usbd_drivers/usbd_sdr.c:443
           ept_info = &udev->ept_in[ept_addr & 0x7F];
 8001790:	eb04 1146 	add.w	r1, r4, r6, lsl #5
F:\AT32-workspace\AT32F403ACGU7_clone_windows_desktop_virtual_com_port\Release/../usbd_drivers/usbd_sdr.c:441
          if((ept_addr & 0x80) != 0)
 8001794:	062b      	lsls	r3, r5, #24
F:\AT32-workspace\AT32F403ACGU7_clone_windows_desktop_virtual_com_port\Release/../usbd_drivers/usbd_sdr.c:443
           ept_info = &udev->ept_in[ept_addr & 0x7F];
 8001796:	bf4c      	ite	mi
 8001798:	310c      	addmi	r1, #12
F:\AT32-workspace\AT32F403ACGU7_clone_windows_desktop_virtual_com_port\Release/../usbd_drivers/usbd_sdr.c:447
            ept_info = &udev->ept_out[ept_addr & 0x7F];
 800179a:	f501 7186 	addpl.w	r1, r1, #268	; 0x10c
F:\AT32-workspace\AT32F403ACGU7_clone_windows_desktop_virtual_com_port\Release/../usbd_drivers/usbd_sdr.c:449
          ept_info->status = 0x0000;
 800179e:	2300      	movs	r3, #0
 80017a0:	f821 3f0c 	strh.w	r3, [r1, #12]!
F:\AT32-workspace\AT32F403ACGU7_clone_windows_desktop_virtual_com_port\Release/../usbd_drivers/usbd_sdr.c:450
          usbd_ctrl_send(udev, (uint8_t *)(&ept_info->status), 2);
 80017a4:	2202      	movs	r2, #2
 80017a6:	4620      	mov	r0, r4
 80017a8:	f7fe ffea 	bl	8000780 <usbd_ctrl_send>
F:\AT32-workspace\AT32F403ACGU7_clone_windows_desktop_virtual_com_port\Release/../usbd_drivers/usbd_sdr.c:452
          break;
 80017ac:	e79e      	b.n	80016ec <usbd_endpoint_request+0x28>
F:\AT32-workspace\AT32F403ACGU7_clone_windows_desktop_virtual_com_port\Release/../usbd_drivers/usbd_sdr.c:439
            usbd_set_stall(udev, ept_addr);
 80017ae:	f7ff f901 	bl	80009b4 <usbd_set_stall>
 80017b2:	e7ed      	b.n	8001790 <usbd_endpoint_request+0xcc>

080017b4 <acc_calibration_mode_enable>:
acc_calibration_mode_enable():
F:\AT32-workspace\AT32F403ACGU7_clone_windows_desktop_virtual_com_port\Release/../firmware/at32f403a_407_acc.c:53
  * @param  new_state: specifies the acc calibration to be enabled or disabled.(TRUE or FALSE)
  * @retval none
  */
void acc_calibration_mode_enable(uint16_t acc_trim, confirm_state new_state)
{
  if(acc_trim == ACC_CAL_HICKCAL)
 80017b4:	b950      	cbnz	r0, 80017cc <acc_calibration_mode_enable+0x18>
F:\AT32-workspace\AT32F403ACGU7_clone_windows_desktop_virtual_com_port\Release/../firmware/at32f403a_407_acc.c:55
  {
    ACC->ctrl1_bit.entrim = FALSE;
 80017b6:	4b08      	ldr	r3, [pc, #32]	; (80017d8 <acc_calibration_mode_enable+0x24>)
 80017b8:	685a      	ldr	r2, [r3, #4]
 80017ba:	f360 0241 	bfi	r2, r0, #1, #1
 80017be:	605a      	str	r2, [r3, #4]
F:\AT32-workspace\AT32F403ACGU7_clone_windows_desktop_virtual_com_port\Release/../firmware/at32f403a_407_acc.c:61
  }
  else
  {
    ACC->ctrl1_bit.entrim = TRUE;
  }
  ACC->ctrl1_bit.calon = new_state;
 80017c0:	4b05      	ldr	r3, [pc, #20]	; (80017d8 <acc_calibration_mode_enable+0x24>)
 80017c2:	685a      	ldr	r2, [r3, #4]
 80017c4:	f361 0200 	bfi	r2, r1, #0, #1
 80017c8:	605a      	str	r2, [r3, #4]
F:\AT32-workspace\AT32F403ACGU7_clone_windows_desktop_virtual_com_port\Release/../firmware/at32f403a_407_acc.c:62
}
 80017ca:	4770      	bx	lr
F:\AT32-workspace\AT32F403ACGU7_clone_windows_desktop_virtual_com_port\Release/../firmware/at32f403a_407_acc.c:59
    ACC->ctrl1_bit.entrim = TRUE;
 80017cc:	4a02      	ldr	r2, [pc, #8]	; (80017d8 <acc_calibration_mode_enable+0x24>)
 80017ce:	6853      	ldr	r3, [r2, #4]
 80017d0:	f043 0302 	orr.w	r3, r3, #2
 80017d4:	6053      	str	r3, [r2, #4]
 80017d6:	e7f3      	b.n	80017c0 <acc_calibration_mode_enable+0xc>
 80017d8:	40015800 	.word	0x40015800

080017dc <acc_write_c1>:
acc_write_c1():
F:\AT32-workspace\AT32F403ACGU7_clone_windows_desktop_virtual_com_port\Release/../firmware/at32f403a_407_acc.c:122
  * @param  acc_c1_value
  * @retval none.
  */
void acc_write_c1(uint16_t acc_c1_value)
{
  ACC->c1 = acc_c1_value;
 80017dc:	4b01      	ldr	r3, [pc, #4]	; (80017e4 <acc_write_c1+0x8>)
 80017de:	60d8      	str	r0, [r3, #12]
F:\AT32-workspace\AT32F403ACGU7_clone_windows_desktop_virtual_com_port\Release/../firmware/at32f403a_407_acc.c:123
}
 80017e0:	4770      	bx	lr
 80017e2:	bf00      	nop
 80017e4:	40015800 	.word	0x40015800

080017e8 <acc_write_c2>:
acc_write_c2():
F:\AT32-workspace\AT32F403ACGU7_clone_windows_desktop_virtual_com_port\Release/../firmware/at32f403a_407_acc.c:132
  * @param  acc_c2_value
  * @retval none.
  */
void acc_write_c2(uint16_t acc_c2_value)
{
  ACC->c2 = acc_c2_value;
 80017e8:	4b01      	ldr	r3, [pc, #4]	; (80017f0 <acc_write_c2+0x8>)
 80017ea:	6118      	str	r0, [r3, #16]
F:\AT32-workspace\AT32F403ACGU7_clone_windows_desktop_virtual_com_port\Release/../firmware/at32f403a_407_acc.c:133
}
 80017ec:	4770      	bx	lr
 80017ee:	bf00      	nop
 80017f0:	40015800 	.word	0x40015800

080017f4 <acc_write_c3>:
acc_write_c3():
F:\AT32-workspace\AT32F403ACGU7_clone_windows_desktop_virtual_com_port\Release/../firmware/at32f403a_407_acc.c:142
  * @param  acc_c3_value
  * @retval none.
  */
void acc_write_c3(uint16_t acc_c3_value)
{
  ACC->c3 = acc_c3_value;
 80017f4:	4b01      	ldr	r3, [pc, #4]	; (80017fc <acc_write_c3+0x8>)
 80017f6:	6158      	str	r0, [r3, #20]
F:\AT32-workspace\AT32F403ACGU7_clone_windows_desktop_virtual_com_port\Release/../firmware/at32f403a_407_acc.c:143
}
 80017f8:	4770      	bx	lr
 80017fa:	bf00      	nop
 80017fc:	40015800 	.word	0x40015800

08001800 <crm_reset>:
crm_reset():
F:\AT32-workspace\AT32F403ACGU7_clone_windows_desktop_virtual_com_port\Release/../firmware/at32f403a_407_crm.c:51
  */
void crm_reset(void)
{
  /* reset the crm clock configuration to the default reset state(for debug purpose) */
  /* set hicken bit */
  CRM->ctrl_bit.hicken = TRUE;
 8001800:	490f      	ldr	r1, [pc, #60]	; (8001840 <crm_reset+0x40>)
 8001802:	680b      	ldr	r3, [r1, #0]
 8001804:	f043 0301 	orr.w	r3, r3, #1
 8001808:	600b      	str	r3, [r1, #0]
F:\AT32-workspace\AT32F403ACGU7_clone_windows_desktop_virtual_com_port\Release/../firmware/at32f403a_407_crm.c:54 (discriminator 1)

  /* wait hick stable */
  while(CRM->ctrl_bit.hickstbl != SET);
 800180a:	680b      	ldr	r3, [r1, #0]
 800180c:	079b      	lsls	r3, r3, #30
 800180e:	d5fc      	bpl.n	800180a <crm_reset+0xa>
F:\AT32-workspace\AT32F403ACGU7_clone_windows_desktop_virtual_com_port\Release/../firmware/at32f403a_407_crm.c:57

  /* hick used as system clock */
  CRM->cfg_bit.sclksel = CRM_SCLK_HICK;
 8001810:	684b      	ldr	r3, [r1, #4]
F:\AT32-workspace\AT32F403ACGU7_clone_windows_desktop_virtual_com_port\Release/../firmware/at32f403a_407_crm.c:60

  /* wait sclk switch status */
  while(CRM->cfg_bit.sclksts != CRM_SCLK_HICK);
 8001812:	4a0b      	ldr	r2, [pc, #44]	; (8001840 <crm_reset+0x40>)
F:\AT32-workspace\AT32F403ACGU7_clone_windows_desktop_virtual_com_port\Release/../firmware/at32f403a_407_crm.c:57
  CRM->cfg_bit.sclksel = CRM_SCLK_HICK;
 8001814:	f36f 0301 	bfc	r3, #0, #2
 8001818:	604b      	str	r3, [r1, #4]
F:\AT32-workspace\AT32F403ACGU7_clone_windows_desktop_virtual_com_port\Release/../firmware/at32f403a_407_crm.c:60 (discriminator 1)
  while(CRM->cfg_bit.sclksts != CRM_SCLK_HICK);
 800181a:	6853      	ldr	r3, [r2, #4]
 800181c:	f013 0f0c 	tst.w	r3, #12
 8001820:	f3c3 0181 	ubfx	r1, r3, #2, #2
 8001824:	d1f9      	bne.n	800181a <crm_reset+0x1a>
F:\AT32-workspace\AT32F403ACGU7_clone_windows_desktop_virtual_com_port\Release/../firmware/at32f403a_407_crm.c:63

  /* reset hexten, hextbyps, cfden and pllen bits */
  CRM->ctrl &= ~(0x010D0000U);
 8001826:	6813      	ldr	r3, [r2, #0]
 8001828:	f023 7386 	bic.w	r3, r3, #17563648	; 0x10c0000
F:\AT32-workspace\AT32F403ACGU7_clone_windows_desktop_virtual_com_port\Release/../firmware/at32f403a_407_crm.c:73

  /* reset clkout[3], usbbufs, hickdiv, clkoutdiv */
  CRM->misc1 = 0;

  /* disable all interrupts enable and clear pending bits  */
  CRM->clkint = 0x009F0000;
 800182c:	f44f 001f 	mov.w	r0, #10420224	; 0x9f0000
F:\AT32-workspace\AT32F403ACGU7_clone_windows_desktop_virtual_com_port\Release/../firmware/at32f403a_407_crm.c:63
  CRM->ctrl &= ~(0x010D0000U);
 8001830:	f423 3380 	bic.w	r3, r3, #65536	; 0x10000
 8001834:	6013      	str	r3, [r2, #0]
F:\AT32-workspace\AT32F403ACGU7_clone_windows_desktop_virtual_com_port\Release/../firmware/at32f403a_407_crm.c:67
  CRM->cfg = 0;
 8001836:	6051      	str	r1, [r2, #4]
F:\AT32-workspace\AT32F403ACGU7_clone_windows_desktop_virtual_com_port\Release/../firmware/at32f403a_407_crm.c:70
  CRM->misc1 = 0;
 8001838:	6311      	str	r1, [r2, #48]	; 0x30
F:\AT32-workspace\AT32F403ACGU7_clone_windows_desktop_virtual_com_port\Release/../firmware/at32f403a_407_crm.c:73
  CRM->clkint = 0x009F0000;
 800183a:	6090      	str	r0, [r2, #8]
F:\AT32-workspace\AT32F403ACGU7_clone_windows_desktop_virtual_com_port\Release/../firmware/at32f403a_407_crm.c:74
}
 800183c:	4770      	bx	lr
 800183e:	bf00      	nop
 8001840:	40021000 	.word	0x40021000

08001844 <crm_flag_get>:
crm_flag_get():
F:\AT32-workspace\AT32F403ACGU7_clone_windows_desktop_virtual_com_port\Release/../firmware/at32f403a_407_crm.c:123
  * @retval flag_status (SET or RESET)
  */
flag_status crm_flag_get(uint32_t flag)
{
  flag_status status = RESET;
  if((CRM_REG(flag) & CRM_REG_BIT(flag)) != CRM_REG_BIT(flag))
 8001844:	0c03      	lsrs	r3, r0, #16
 8001846:	f103 4380 	add.w	r3, r3, #1073741824	; 0x40000000
 800184a:	f503 3304 	add.w	r3, r3, #135168	; 0x21000
 800184e:	f000 001f 	and.w	r0, r0, #31
 8001852:	681a      	ldr	r2, [r3, #0]
 8001854:	2301      	movs	r3, #1
 8001856:	fa03 f000 	lsl.w	r0, r3, r0
 800185a:	ea30 0302 	bics.w	r3, r0, r2
F:\AT32-workspace\AT32F403ACGU7_clone_windows_desktop_virtual_com_port\Release/../firmware/at32f403a_407_crm.c:132
  else
  {
    status = SET;
  }
  return status;
}
 800185e:	bf0c      	ite	eq
 8001860:	2001      	moveq	r0, #1
 8001862:	2000      	movne	r0, #0
 8001864:	4770      	bx	lr
 8001866:	bf00      	nop

08001868 <crm_hext_stable_wait>:
F:\AT32-workspace\AT32F403ACGU7_clone_windows_desktop_virtual_com_port\Release/../firmware/at32f403a_407_crm.c:123
  if((CRM_REG(flag) & CRM_REG_BIT(flag)) != CRM_REG_BIT(flag))
 8001868:	4a07      	ldr	r2, [pc, #28]	; (8001888 <crm_hext_stable_wait+0x20>)
 800186a:	6813      	ldr	r3, [r2, #0]
 800186c:	0398      	lsls	r0, r3, #14
 800186e:	d406      	bmi.n	800187e <crm_hext_stable_wait+0x16>
 8001870:	f44f 5340 	mov.w	r3, #12288	; 0x3000
 8001874:	6811      	ldr	r1, [r2, #0]
 8001876:	0389      	lsls	r1, r1, #14
 8001878:	d401      	bmi.n	800187e <crm_hext_stable_wait+0x16>
crm_hext_stable_wait():
F:\AT32-workspace\AT32F403ACGU7_clone_windows_desktop_virtual_com_port\Release/../firmware/at32f403a_407_crm.c:144
error_status crm_hext_stable_wait(void)
{
  uint32_t stable_cnt = 0;
  error_status status = ERROR;

  while((crm_flag_get(CRM_HEXT_STABLE_FLAG) != SET) && (stable_cnt < HEXT_STARTUP_TIMEOUT))
 800187a:	3b01      	subs	r3, #1
 800187c:	d1fa      	bne.n	8001874 <crm_hext_stable_wait+0xc>
crm_flag_get():
F:\AT32-workspace\AT32F403ACGU7_clone_windows_desktop_virtual_com_port\Release/../firmware/at32f403a_407_crm.c:123
  if((CRM_REG(flag) & CRM_REG_BIT(flag)) != CRM_REG_BIT(flag))
 800187e:	4b02      	ldr	r3, [pc, #8]	; (8001888 <crm_hext_stable_wait+0x20>)
 8001880:	6818      	ldr	r0, [r3, #0]
crm_hext_stable_wait():
F:\AT32-workspace\AT32F403ACGU7_clone_windows_desktop_virtual_com_port\Release/../firmware/at32f403a_407_crm.c:159
  {
    status = SUCCESS;
  }

  return status;
}
 8001882:	f3c0 4040 	ubfx	r0, r0, #17, #1
 8001886:	4770      	bx	lr
 8001888:	40021000 	.word	0x40021000

0800188c <crm_periph_clock_enable>:
crm_periph_clock_enable():
F:\AT32-workspace\AT32F403ACGU7_clone_windows_desktop_virtual_com_port\Release/../firmware/at32f403a_407_crm.c:214
void crm_periph_clock_enable(crm_periph_clock_type value, confirm_state new_state)
{
  /* enable periph clock */
  if(TRUE == new_state)
  {
    CRM_REG(value) |= CRM_REG_BIT(value);
 800188c:	0c03      	lsrs	r3, r0, #16
 800188e:	f103 4380 	add.w	r3, r3, #1073741824	; 0x40000000
 8001892:	f503 3304 	add.w	r3, r3, #135168	; 0x21000
F:\AT32-workspace\AT32F403ACGU7_clone_windows_desktop_virtual_com_port\Release/../firmware/at32f403a_407_crm.c:212
  if(TRUE == new_state)
 8001896:	2901      	cmp	r1, #1
F:\AT32-workspace\AT32F403ACGU7_clone_windows_desktop_virtual_com_port\Release/../firmware/at32f403a_407_crm.c:214
    CRM_REG(value) |= CRM_REG_BIT(value);
 8001898:	681a      	ldr	r2, [r3, #0]
 800189a:	f000 001f 	and.w	r0, r0, #31
F:\AT32-workspace\AT32F403ACGU7_clone_windows_desktop_virtual_com_port\Release/../firmware/at32f403a_407_crm.c:212
  if(TRUE == new_state)
 800189e:	d006      	beq.n	80018ae <crm_periph_clock_enable+0x22>
F:\AT32-workspace\AT32F403ACGU7_clone_windows_desktop_virtual_com_port\Release/../firmware/at32f403a_407_crm.c:219
  }
  /* disable periph clock */
  else
  {
    CRM_REG(value) &= ~(CRM_REG_BIT(value));
 80018a0:	2101      	movs	r1, #1
 80018a2:	fa01 f000 	lsl.w	r0, r1, r0
 80018a6:	ea22 0000 	bic.w	r0, r2, r0
 80018aa:	6018      	str	r0, [r3, #0]
F:\AT32-workspace\AT32F403ACGU7_clone_windows_desktop_virtual_com_port\Release/../firmware/at32f403a_407_crm.c:221
  }
}
 80018ac:	4770      	bx	lr
F:\AT32-workspace\AT32F403ACGU7_clone_windows_desktop_virtual_com_port\Release/../firmware/at32f403a_407_crm.c:214
    CRM_REG(value) |= CRM_REG_BIT(value);
 80018ae:	fa01 f000 	lsl.w	r0, r1, r0
 80018b2:	4310      	orrs	r0, r2
 80018b4:	6018      	str	r0, [r3, #0]
 80018b6:	4770      	bx	lr

080018b8 <crm_clock_source_enable>:
crm_clock_source_enable():
F:\AT32-workspace\AT32F403ACGU7_clone_windows_desktop_virtual_com_port\Release/../firmware/at32f403a_407_crm.c:294
  * @param  new_state (TRUE or FALSE)
  * @retval none
  */
void crm_clock_source_enable(crm_clock_source_type source, confirm_state new_state)
{
  switch(source)
 80018b8:	2804      	cmp	r0, #4
 80018ba:	d809      	bhi.n	80018d0 <crm_clock_source_enable+0x18>
 80018bc:	e8df f000 	tbb	[pc, r0]
 80018c0:	1b150f09 	.word	0x1b150f09
 80018c4:	03          	.byte	0x03
 80018c5:	00          	.byte	0x00
F:\AT32-workspace\AT32F403ACGU7_clone_windows_desktop_virtual_com_port\Release/../firmware/at32f403a_407_crm.c:309
      break;
    case CRM_CLOCK_SOURCE_LEXT:
      CRM->bpdc_bit.lexten = new_state;
      break;
    case CRM_CLOCK_SOURCE_LICK:
      CRM->ctrlsts_bit.licken = new_state;
 80018c6:	4b0f      	ldr	r3, [pc, #60]	; (8001904 <crm_clock_source_enable+0x4c>)
 80018c8:	6a5a      	ldr	r2, [r3, #36]	; 0x24
 80018ca:	f361 0200 	bfi	r2, r1, #0, #1
 80018ce:	625a      	str	r2, [r3, #36]	; 0x24
F:\AT32-workspace\AT32F403ACGU7_clone_windows_desktop_virtual_com_port\Release/../firmware/at32f403a_407_crm.c:314
      break;
    default:
      break;
  }
}
 80018d0:	4770      	bx	lr
F:\AT32-workspace\AT32F403ACGU7_clone_windows_desktop_virtual_com_port\Release/../firmware/at32f403a_407_crm.c:297
      CRM->ctrl_bit.hicken = new_state;
 80018d2:	4b0c      	ldr	r3, [pc, #48]	; (8001904 <crm_clock_source_enable+0x4c>)
 80018d4:	681a      	ldr	r2, [r3, #0]
 80018d6:	f361 0200 	bfi	r2, r1, #0, #1
 80018da:	601a      	str	r2, [r3, #0]
F:\AT32-workspace\AT32F403ACGU7_clone_windows_desktop_virtual_com_port\Release/../firmware/at32f403a_407_crm.c:298
      break;
 80018dc:	4770      	bx	lr
F:\AT32-workspace\AT32F403ACGU7_clone_windows_desktop_virtual_com_port\Release/../firmware/at32f403a_407_crm.c:300
      CRM->ctrl_bit.hexten = new_state;
 80018de:	4b09      	ldr	r3, [pc, #36]	; (8001904 <crm_clock_source_enable+0x4c>)
 80018e0:	681a      	ldr	r2, [r3, #0]
 80018e2:	f361 4210 	bfi	r2, r1, #16, #1
 80018e6:	601a      	str	r2, [r3, #0]
F:\AT32-workspace\AT32F403ACGU7_clone_windows_desktop_virtual_com_port\Release/../firmware/at32f403a_407_crm.c:301
      break;
 80018e8:	4770      	bx	lr
F:\AT32-workspace\AT32F403ACGU7_clone_windows_desktop_virtual_com_port\Release/../firmware/at32f403a_407_crm.c:303
      CRM->ctrl_bit.pllen = new_state;
 80018ea:	4b06      	ldr	r3, [pc, #24]	; (8001904 <crm_clock_source_enable+0x4c>)
 80018ec:	681a      	ldr	r2, [r3, #0]
 80018ee:	f361 6218 	bfi	r2, r1, #24, #1
 80018f2:	601a      	str	r2, [r3, #0]
F:\AT32-workspace\AT32F403ACGU7_clone_windows_desktop_virtual_com_port\Release/../firmware/at32f403a_407_crm.c:304
      break;
 80018f4:	4770      	bx	lr
F:\AT32-workspace\AT32F403ACGU7_clone_windows_desktop_virtual_com_port\Release/../firmware/at32f403a_407_crm.c:306
      CRM->bpdc_bit.lexten = new_state;
 80018f6:	4b03      	ldr	r3, [pc, #12]	; (8001904 <crm_clock_source_enable+0x4c>)
 80018f8:	6a1a      	ldr	r2, [r3, #32]
 80018fa:	f361 0200 	bfi	r2, r1, #0, #1
 80018fe:	621a      	str	r2, [r3, #32]
F:\AT32-workspace\AT32F403ACGU7_clone_windows_desktop_virtual_com_port\Release/../firmware/at32f403a_407_crm.c:307
      break;
 8001900:	4770      	bx	lr
 8001902:	bf00      	nop
 8001904:	40021000 	.word	0x40021000

08001908 <crm_ahb_div_set>:
crm_ahb_div_set():
F:\AT32-workspace\AT32F403ACGU7_clone_windows_desktop_virtual_com_port\Release/../firmware/at32f403a_407_crm.c:415
  *         - CRM_AHB_DIV_512
  * @retval none
  */
void crm_ahb_div_set(crm_ahb_div_type value)
{
  CRM->cfg_bit.ahbdiv = value;
 8001908:	4b02      	ldr	r3, [pc, #8]	; (8001914 <crm_ahb_div_set+0xc>)
 800190a:	685a      	ldr	r2, [r3, #4]
 800190c:	f360 1207 	bfi	r2, r0, #4, #4
 8001910:	605a      	str	r2, [r3, #4]
F:\AT32-workspace\AT32F403ACGU7_clone_windows_desktop_virtual_com_port\Release/../firmware/at32f403a_407_crm.c:416
}
 8001912:	4770      	bx	lr
 8001914:	40021000 	.word	0x40021000

08001918 <crm_apb1_div_set>:
crm_apb1_div_set():
F:\AT32-workspace\AT32F403ACGU7_clone_windows_desktop_virtual_com_port\Release/../firmware/at32f403a_407_crm.c:432
  *         - CRM_APB1_DIV_16
  * @retval none
  */
void crm_apb1_div_set(crm_apb1_div_type value)
{
  CRM->cfg_bit.apb1div = value;
 8001918:	4b02      	ldr	r3, [pc, #8]	; (8001924 <crm_apb1_div_set+0xc>)
 800191a:	685a      	ldr	r2, [r3, #4]
 800191c:	f360 220a 	bfi	r2, r0, #8, #3
 8001920:	605a      	str	r2, [r3, #4]
F:\AT32-workspace\AT32F403ACGU7_clone_windows_desktop_virtual_com_port\Release/../firmware/at32f403a_407_crm.c:433
}
 8001922:	4770      	bx	lr
 8001924:	40021000 	.word	0x40021000

08001928 <crm_apb2_div_set>:
crm_apb2_div_set():
F:\AT32-workspace\AT32F403ACGU7_clone_windows_desktop_virtual_com_port\Release/../firmware/at32f403a_407_crm.c:449
  *         - CRM_APB2_DIV_16
  * @retval none
  */
void crm_apb2_div_set(crm_apb2_div_type value)
{
  CRM->cfg_bit.apb2div = value;
 8001928:	4b02      	ldr	r3, [pc, #8]	; (8001934 <crm_apb2_div_set+0xc>)
 800192a:	685a      	ldr	r2, [r3, #4]
 800192c:	f360 22cd 	bfi	r2, r0, #11, #3
 8001930:	605a      	str	r2, [r3, #4]
F:\AT32-workspace\AT32F403ACGU7_clone_windows_desktop_virtual_com_port\Release/../firmware/at32f403a_407_crm.c:450
}
 8001932:	4770      	bx	lr
 8001934:	40021000 	.word	0x40021000

08001938 <crm_pll_config>:
crm_pll_config():
F:\AT32-workspace\AT32F403ACGU7_clone_windows_desktop_virtual_com_port\Release/../firmware/at32f403a_407_crm.c:524
  *         - CRM_PLL_OUTPUT_RANGE_LE72MHZ
  *         - CRM_PLL_OUTPUT_RANGE_GT72MHZ
  * @retval none
  */
void crm_pll_config(crm_pll_clock_source_type clock_source, crm_pll_mult_type mult_value, crm_pll_output_range_type pll_range)
{
 8001938:	b410      	push	{r4}
F:\AT32-workspace\AT32F403ACGU7_clone_windows_desktop_virtual_com_port\Release/../firmware/at32f403a_407_crm.c:528
  /* config pll clock source */
  if(clock_source == CRM_PLL_SOURCE_HICK)
  {
    CRM->cfg_bit.pllrcs = FALSE;
 800193a:	4b14      	ldr	r3, [pc, #80]	; (800198c <crm_pll_config+0x54>)
 800193c:	685c      	ldr	r4, [r3, #4]
F:\AT32-workspace\AT32F403ACGU7_clone_windows_desktop_virtual_com_port\Release/../firmware/at32f403a_407_crm.c:526
  if(clock_source == CRM_PLL_SOURCE_HICK)
 800193e:	b9c0      	cbnz	r0, 8001972 <crm_pll_config+0x3a>
F:\AT32-workspace\AT32F403ACGU7_clone_windows_desktop_virtual_com_port\Release/../firmware/at32f403a_407_crm.c:528
    CRM->cfg_bit.pllrcs = FALSE;
 8001940:	f360 4410 	bfi	r4, r0, #16, #1
 8001944:	605c      	str	r4, [r3, #4]
F:\AT32-workspace\AT32F403ACGU7_clone_windows_desktop_virtual_com_port\Release/../firmware/at32f403a_407_crm.c:529
    CRM->misc1_bit.hickdiv = CRM_HICK48_NODIV;
 8001946:	6b18      	ldr	r0, [r3, #48]	; 0x30
 8001948:	f040 7000 	orr.w	r0, r0, #33554432	; 0x2000000
 800194c:	6318      	str	r0, [r3, #48]	; 0x30
F:\AT32-workspace\AT32F403ACGU7_clone_windows_desktop_virtual_com_port\Release/../firmware/at32f403a_407_crm.c:545
      CRM->cfg_bit.pllhextdiv = TRUE;
    }
  }

  /* config pll multiplication factor */
  CRM->cfg_bit.pllmult_l = (mult_value & 0x0F);
 800194e:	4b0f      	ldr	r3, [pc, #60]	; (800198c <crm_pll_config+0x54>)
 8001950:	6858      	ldr	r0, [r3, #4]
 8001952:	f361 4095 	bfi	r0, r1, #18, #4
 8001956:	6058      	str	r0, [r3, #4]
F:\AT32-workspace\AT32F403ACGU7_clone_windows_desktop_virtual_com_port\Release/../firmware/at32f403a_407_crm.c:546
  CRM->cfg_bit.pllmult_h = ((mult_value & 0x30) >> 4);
 8001958:	f3c1 1c01 	ubfx	ip, r1, #4, #2
 800195c:	6859      	ldr	r1, [r3, #4]
 800195e:	f36c 715e 	bfi	r1, ip, #29, #2
 8001962:	6059      	str	r1, [r3, #4]
F:\AT32-workspace\AT32F403ACGU7_clone_windows_desktop_virtual_com_port\Release/../firmware/at32f403a_407_crm.c:549

  /* config pll output range */
  CRM->cfg_bit.pllrange = pll_range;
 8001964:	6859      	ldr	r1, [r3, #4]
 8001966:	f362 71df 	bfi	r1, r2, #31, #1
 800196a:	6059      	str	r1, [r3, #4]
F:\AT32-workspace\AT32F403ACGU7_clone_windows_desktop_virtual_com_port\Release/../firmware/at32f403a_407_crm.c:550
}
 800196c:	f85d 4b04 	ldr.w	r4, [sp], #4
 8001970:	4770      	bx	lr
F:\AT32-workspace\AT32F403ACGU7_clone_windows_desktop_virtual_com_port\Release/../firmware/at32f403a_407_crm.c:533
    CRM->cfg_bit.pllrcs = TRUE;
 8001972:	f444 3480 	orr.w	r4, r4, #65536	; 0x10000
 8001976:	605c      	str	r4, [r3, #4]
F:\AT32-workspace\AT32F403ACGU7_clone_windows_desktop_virtual_com_port\Release/../firmware/at32f403a_407_crm.c:534
    if(CRM_PLL_SOURCE_HEXT == clock_source)
 8001978:	2801      	cmp	r0, #1
F:\AT32-workspace\AT32F403ACGU7_clone_windows_desktop_virtual_com_port\Release/../firmware/at32f403a_407_crm.c:536
      CRM->cfg_bit.pllhextdiv = FALSE;
 800197a:	6858      	ldr	r0, [r3, #4]
 800197c:	bf0c      	ite	eq
 800197e:	f36f 4051 	bfceq	r0, #17, #1
F:\AT32-workspace\AT32F403ACGU7_clone_windows_desktop_virtual_com_port\Release/../firmware/at32f403a_407_crm.c:540
      CRM->cfg_bit.pllhextdiv = TRUE;
 8001982:	f440 3000 	orrne.w	r0, r0, #131072	; 0x20000
 8001986:	6058      	str	r0, [r3, #4]
 8001988:	e7e1      	b.n	800194e <crm_pll_config+0x16>
 800198a:	bf00      	nop
 800198c:	40021000 	.word	0x40021000

08001990 <crm_sysclk_switch>:
crm_sysclk_switch():
F:\AT32-workspace\AT32F403ACGU7_clone_windows_desktop_virtual_com_port\Release/../firmware/at32f403a_407_crm.c:563
  *         - CRM_SCLK_PLL
  * @retval none
  */
void crm_sysclk_switch(crm_sclk_type value)
{
  CRM->cfg_bit.sclksel = value;
 8001990:	4b02      	ldr	r3, [pc, #8]	; (800199c <crm_sysclk_switch+0xc>)
 8001992:	685a      	ldr	r2, [r3, #4]
 8001994:	f360 0201 	bfi	r2, r0, #0, #2
 8001998:	605a      	str	r2, [r3, #4]
F:\AT32-workspace\AT32F403ACGU7_clone_windows_desktop_virtual_com_port\Release/../firmware/at32f403a_407_crm.c:564
}
 800199a:	4770      	bx	lr
 800199c:	40021000 	.word	0x40021000

080019a0 <crm_sysclk_switch_status_get>:
crm_sysclk_switch_status_get():
F:\AT32-workspace\AT32F403ACGU7_clone_windows_desktop_virtual_com_port\Release/../firmware/at32f403a_407_crm.c:577
  *         - CRM_SCLK_HEXT
  *         - CRM_SCLK_PLL
  */
crm_sclk_type crm_sysclk_switch_status_get(void)
{
  return (crm_sclk_type)CRM->cfg_bit.sclksts;
 80019a0:	4b02      	ldr	r3, [pc, #8]	; (80019ac <crm_sysclk_switch_status_get+0xc>)
 80019a2:	6858      	ldr	r0, [r3, #4]
F:\AT32-workspace\AT32F403ACGU7_clone_windows_desktop_virtual_com_port\Release/../firmware/at32f403a_407_crm.c:578
}
 80019a4:	f3c0 0081 	ubfx	r0, r0, #2, #2
 80019a8:	4770      	bx	lr
 80019aa:	bf00      	nop
 80019ac:	40021000 	.word	0x40021000

080019b0 <crm_clocks_freq_get>:
crm_clocks_freq_get():
F:\AT32-workspace\AT32F403ACGU7_clone_windows_desktop_virtual_com_port\Release/../firmware/at32f403a_407_crm.c:587
  * @param  clocks
  *         - pointer to the crm_clocks_freq structure
  * @retval none
  */
void crm_clocks_freq_get(crm_clocks_freq_type *clocks_struct)
{
 80019b0:	b410      	push	{r4}
crm_sysclk_switch_status_get():
F:\AT32-workspace\AT32F403ACGU7_clone_windows_desktop_virtual_com_port\Release/../firmware/at32f403a_407_crm.c:577
  return (crm_sclk_type)CRM->cfg_bit.sclksts;
 80019b2:	4a34      	ldr	r2, [pc, #208]	; (8001a84 <crm_clocks_freq_get+0xd4>)
 80019b4:	6853      	ldr	r3, [r2, #4]
crm_clocks_freq_get():
F:\AT32-workspace\AT32F403ACGU7_clone_windows_desktop_virtual_com_port\Release/../firmware/at32f403a_407_crm.c:599
  static const uint8_t adc_div_table[8] = {2, 4, 6, 8, 2, 12, 8, 16};

  /* get sclk source */
  sclk_source = crm_sysclk_switch_status_get();

  switch(sclk_source)
 80019b6:	f013 0f0c 	tst.w	r3, #12
crm_sysclk_switch_status_get():
F:\AT32-workspace\AT32F403ACGU7_clone_windows_desktop_virtual_com_port\Release/../firmware/at32f403a_407_crm.c:577
  return (crm_sclk_type)CRM->cfg_bit.sclksts;
 80019ba:	f3c3 0181 	ubfx	r1, r3, #2, #2
crm_clocks_freq_get():
F:\AT32-workspace\AT32F403ACGU7_clone_windows_desktop_virtual_com_port\Release/../firmware/at32f403a_407_crm.c:599
  switch(sclk_source)
 80019be:	d02a      	beq.n	8001a16 <crm_clocks_freq_get+0x66>
 80019c0:	2902      	cmp	r1, #2
 80019c2:	d031      	beq.n	8001a28 <crm_clocks_freq_get+0x78>
F:\AT32-workspace\AT32F403ACGU7_clone_windows_desktop_virtual_com_port\Release/../firmware/at32f403a_407_crm.c:608
        clocks_struct->sclk_freq = HICK_VALUE * 6;
      else
        clocks_struct->sclk_freq = HICK_VALUE;
      break;
    case CRM_SCLK_HEXT:
      clocks_struct->sclk_freq = HEXT_VALUE;
 80019c4:	4b30      	ldr	r3, [pc, #192]	; (8001a88 <crm_clocks_freq_get+0xd8>)
 80019c6:	6003      	str	r3, [r0, #0]
F:\AT32-workspace\AT32F403ACGU7_clone_windows_desktop_virtual_com_port\Release/../firmware/at32f403a_407_crm.c:653
      break;
  }

  /* compute sclk, ahbclk, abp1clk apb2clk and adcclk frequencies */
  /* get ahb division */
  temp = CRM->cfg_bit.ahbdiv;
 80019c8:	492e      	ldr	r1, [pc, #184]	; (8001a84 <crm_clocks_freq_get+0xd4>)
F:\AT32-workspace\AT32F403ACGU7_clone_windows_desktop_virtual_com_port\Release/../firmware/at32f403a_407_crm.c:654
  div_value = sclk_ahb_div_table[temp];
 80019ca:	4c30      	ldr	r4, [pc, #192]	; (8001a8c <crm_clocks_freq_get+0xdc>)
F:\AT32-workspace\AT32F403ACGU7_clone_windows_desktop_virtual_com_port\Release/../firmware/at32f403a_407_crm.c:653
  temp = CRM->cfg_bit.ahbdiv;
 80019cc:	684a      	ldr	r2, [r1, #4]
 80019ce:	f3c2 1203 	ubfx	r2, r2, #4, #4
F:\AT32-workspace\AT32F403ACGU7_clone_windows_desktop_virtual_com_port\Release/../firmware/at32f403a_407_crm.c:654
  div_value = sclk_ahb_div_table[temp];
 80019d2:	5ca2      	ldrb	r2, [r4, r2]
F:\AT32-workspace\AT32F403ACGU7_clone_windows_desktop_virtual_com_port\Release/../firmware/at32f403a_407_crm.c:660
  /* ahbclk frequency */
  clocks_struct->ahb_freq = clocks_struct->sclk_freq >> div_value;

  /* get apb1 division */
  temp = CRM->cfg_bit.apb1div;
  div_value = ahb_apb1_div_table[temp];
 80019d4:	4c2e      	ldr	r4, [pc, #184]	; (8001a90 <crm_clocks_freq_get+0xe0>)
F:\AT32-workspace\AT32F403ACGU7_clone_windows_desktop_virtual_com_port\Release/../firmware/at32f403a_407_crm.c:656
  clocks_struct->ahb_freq = clocks_struct->sclk_freq >> div_value;
 80019d6:	40d3      	lsrs	r3, r2
 80019d8:	6043      	str	r3, [r0, #4]
F:\AT32-workspace\AT32F403ACGU7_clone_windows_desktop_virtual_com_port\Release/../firmware/at32f403a_407_crm.c:659
  temp = CRM->cfg_bit.apb1div;
 80019da:	684a      	ldr	r2, [r1, #4]
 80019dc:	f3c2 2202 	ubfx	r2, r2, #8, #3
F:\AT32-workspace\AT32F403ACGU7_clone_windows_desktop_virtual_com_port\Release/../firmware/at32f403a_407_crm.c:660
  div_value = ahb_apb1_div_table[temp];
 80019e0:	5ca2      	ldrb	r2, [r4, r2]
F:\AT32-workspace\AT32F403ACGU7_clone_windows_desktop_virtual_com_port\Release/../firmware/at32f403a_407_crm.c:666
  /* apb1clk frequency */
  clocks_struct->apb1_freq = clocks_struct->ahb_freq >> div_value;

  /* get apb2 division */
  temp = CRM->cfg_bit.apb2div;
  div_value = ahb_apb2_div_table[temp];
 80019e2:	4c2c      	ldr	r4, [pc, #176]	; (8001a94 <crm_clocks_freq_get+0xe4>)
F:\AT32-workspace\AT32F403ACGU7_clone_windows_desktop_virtual_com_port\Release/../firmware/at32f403a_407_crm.c:662
  clocks_struct->apb1_freq = clocks_struct->ahb_freq >> div_value;
 80019e4:	fa23 f202 	lsr.w	r2, r3, r2
 80019e8:	60c2      	str	r2, [r0, #12]
F:\AT32-workspace\AT32F403ACGU7_clone_windows_desktop_virtual_com_port\Release/../firmware/at32f403a_407_crm.c:665
  temp = CRM->cfg_bit.apb2div;
 80019ea:	684a      	ldr	r2, [r1, #4]
 80019ec:	f3c2 22c2 	ubfx	r2, r2, #11, #3
F:\AT32-workspace\AT32F403ACGU7_clone_windows_desktop_virtual_com_port\Release/../firmware/at32f403a_407_crm.c:666
  div_value = ahb_apb2_div_table[temp];
 80019f0:	5ca2      	ldrb	r2, [r4, r2]
F:\AT32-workspace\AT32F403ACGU7_clone_windows_desktop_virtual_com_port\Release/../firmware/at32f403a_407_crm.c:668
  /* apb2clk frequency */
  clocks_struct->apb2_freq = clocks_struct->ahb_freq >> div_value;
 80019f2:	40d3      	lsrs	r3, r2
 80019f4:	6083      	str	r3, [r0, #8]
F:\AT32-workspace\AT32F403ACGU7_clone_windows_desktop_virtual_com_port\Release/../firmware/at32f403a_407_crm.c:671

  /* get adc division */
  temp = CRM->cfg_bit.adcdiv_h;
 80019f6:	684c      	ldr	r4, [r1, #4]
F:\AT32-workspace\AT32F403ACGU7_clone_windows_desktop_virtual_com_port\Release/../firmware/at32f403a_407_crm.c:672
  temp = ((temp << 2) | (CRM->cfg_bit.adcdiv_l));
 80019f8:	684a      	ldr	r2, [r1, #4]
F:\AT32-workspace\AT32F403ACGU7_clone_windows_desktop_virtual_com_port\Release/../firmware/at32f403a_407_crm.c:671
  temp = CRM->cfg_bit.adcdiv_h;
 80019fa:	f3c4 7100 	ubfx	r1, r4, #28, #1
F:\AT32-workspace\AT32F403ACGU7_clone_windows_desktop_virtual_com_port\Release/../firmware/at32f403a_407_crm.c:672
  temp = ((temp << 2) | (CRM->cfg_bit.adcdiv_l));
 80019fe:	f3c2 3281 	ubfx	r2, r2, #14, #2
 8001a02:	ea42 0281 	orr.w	r2, r2, r1, lsl #2
F:\AT32-workspace\AT32F403ACGU7_clone_windows_desktop_virtual_com_port\Release/../firmware/at32f403a_407_crm.c:673
  div_value = adc_div_table[temp];
 8001a06:	4924      	ldr	r1, [pc, #144]	; (8001a98 <crm_clocks_freq_get+0xe8>)
F:\AT32-workspace\AT32F403ACGU7_clone_windows_desktop_virtual_com_port\Release/../firmware/at32f403a_407_crm.c:676
  /* adcclk clock frequency */
  clocks_struct->adc_freq = clocks_struct->apb2_freq / div_value;
}
 8001a08:	f85d 4b04 	ldr.w	r4, [sp], #4
F:\AT32-workspace\AT32F403ACGU7_clone_windows_desktop_virtual_com_port\Release/../firmware/at32f403a_407_crm.c:673
  div_value = adc_div_table[temp];
 8001a0c:	5c8a      	ldrb	r2, [r1, r2]
F:\AT32-workspace\AT32F403ACGU7_clone_windows_desktop_virtual_com_port\Release/../firmware/at32f403a_407_crm.c:675
  clocks_struct->adc_freq = clocks_struct->apb2_freq / div_value;
 8001a0e:	fbb3 f3f2 	udiv	r3, r3, r2
 8001a12:	6103      	str	r3, [r0, #16]
F:\AT32-workspace\AT32F403ACGU7_clone_windows_desktop_virtual_com_port\Release/../firmware/at32f403a_407_crm.c:676
}
 8001a14:	4770      	bx	lr
F:\AT32-workspace\AT32F403ACGU7_clone_windows_desktop_virtual_com_port\Release/../firmware/at32f403a_407_crm.c:602
      if(((CRM->misc3_bit.hick_to_sclk) != RESET) && ((CRM->misc1_bit.hickdiv) != RESET))
 8001a16:	6d53      	ldr	r3, [r2, #84]	; 0x54
 8001a18:	059b      	lsls	r3, r3, #22
 8001a1a:	d5d3      	bpl.n	80019c4 <crm_clocks_freq_get+0x14>
F:\AT32-workspace\AT32F403ACGU7_clone_windows_desktop_virtual_com_port\Release/../firmware/at32f403a_407_crm.c:602 (discriminator 1)
 8001a1c:	6b13      	ldr	r3, [r2, #48]	; 0x30
 8001a1e:	019c      	lsls	r4, r3, #6
 8001a20:	d5d0      	bpl.n	80019c4 <crm_clocks_freq_get+0x14>
F:\AT32-workspace\AT32F403ACGU7_clone_windows_desktop_virtual_com_port\Release/../firmware/at32f403a_407_crm.c:603
        clocks_struct->sclk_freq = HICK_VALUE * 6;
 8001a22:	4b1e      	ldr	r3, [pc, #120]	; (8001a9c <crm_clocks_freq_get+0xec>)
 8001a24:	6003      	str	r3, [r0, #0]
 8001a26:	e7cf      	b.n	80019c8 <crm_clocks_freq_get+0x18>
F:\AT32-workspace\AT32F403ACGU7_clone_windows_desktop_virtual_com_port\Release/../firmware/at32f403a_407_crm.c:611
      pll_clock_source = CRM->cfg_bit.pllrcs;
 8001a28:	6851      	ldr	r1, [r2, #4]
F:\AT32-workspace\AT32F403ACGU7_clone_windows_desktop_virtual_com_port\Release/../firmware/at32f403a_407_crm.c:613
      pll_mult = CRM->cfg_bit.pllmult_l;
 8001a2a:	6853      	ldr	r3, [r2, #4]
F:\AT32-workspace\AT32F403ACGU7_clone_windows_desktop_virtual_com_port\Release/../firmware/at32f403a_407_crm.c:614
      pll_mult_h = CRM->cfg_bit.pllmult_h;
 8001a2c:	6854      	ldr	r4, [r2, #4]
F:\AT32-workspace\AT32F403ACGU7_clone_windows_desktop_virtual_com_port\Release/../firmware/at32f403a_407_crm.c:617
      if((pll_mult_h != 0U) || (pll_mult == 15U))
 8001a2e:	f014 4fc0 	tst.w	r4, #1610612736	; 0x60000000
F:\AT32-workspace\AT32F403ACGU7_clone_windows_desktop_virtual_com_port\Release/../firmware/at32f403a_407_crm.c:611
      pll_clock_source = CRM->cfg_bit.pllrcs;
 8001a32:	f3c1 4200 	ubfx	r2, r1, #16, #1
F:\AT32-workspace\AT32F403ACGU7_clone_windows_desktop_virtual_com_port\Release/../firmware/at32f403a_407_crm.c:613
      pll_mult = CRM->cfg_bit.pllmult_l;
 8001a36:	f3c3 4383 	ubfx	r3, r3, #18, #4
F:\AT32-workspace\AT32F403ACGU7_clone_windows_desktop_virtual_com_port\Release/../firmware/at32f403a_407_crm.c:614
      pll_mult_h = CRM->cfg_bit.pllmult_h;
 8001a3a:	f3c4 7141 	ubfx	r1, r4, #29, #2
F:\AT32-workspace\AT32F403ACGU7_clone_windows_desktop_virtual_com_port\Release/../firmware/at32f403a_407_crm.c:617
      if((pll_mult_h != 0U) || (pll_mult == 15U))
 8001a3e:	d108      	bne.n	8001a52 <crm_clocks_freq_get+0xa2>
F:\AT32-workspace\AT32F403ACGU7_clone_windows_desktop_virtual_com_port\Release/../firmware/at32f403a_407_crm.c:617 (discriminator 1)
 8001a40:	2b0f      	cmp	r3, #15
 8001a42:	d006      	beq.n	8001a52 <crm_clocks_freq_get+0xa2>
F:\AT32-workspace\AT32F403ACGU7_clone_windows_desktop_virtual_com_port\Release/../firmware/at32f403a_407_crm.c:623
          pll_mult += 2U;
 8001a44:	3302      	adds	r3, #2
F:\AT32-workspace\AT32F403ACGU7_clone_windows_desktop_virtual_com_port\Release/../firmware/at32f403a_407_crm.c:626
      if (pll_clock_source == 0x00)
 8001a46:	b94a      	cbnz	r2, 8001a5c <crm_clocks_freq_get+0xac>
F:\AT32-workspace\AT32F403ACGU7_clone_windows_desktop_virtual_com_port\Release/../firmware/at32f403a_407_crm.c:629
        clocks_struct->sclk_freq = (HICK_VALUE >> 1) * pll_mult;
 8001a48:	4a15      	ldr	r2, [pc, #84]	; (8001aa0 <crm_clocks_freq_get+0xf0>)
 8001a4a:	fb02 f303 	mul.w	r3, r2, r3
 8001a4e:	6003      	str	r3, [r0, #0]
 8001a50:	e7ba      	b.n	80019c8 <crm_clocks_freq_get+0x18>
F:\AT32-workspace\AT32F403ACGU7_clone_windows_desktop_virtual_com_port\Release/../firmware/at32f403a_407_crm.c:619
          pll_mult += ((16U * pll_mult_h) + 1U);
 8001a52:	3301      	adds	r3, #1
 8001a54:	eb03 1301 	add.w	r3, r3, r1, lsl #4
F:\AT32-workspace\AT32F403ACGU7_clone_windows_desktop_virtual_com_port\Release/../firmware/at32f403a_407_crm.c:626
      if (pll_clock_source == 0x00)
 8001a58:	2a00      	cmp	r2, #0
 8001a5a:	d0f5      	beq.n	8001a48 <crm_clocks_freq_get+0x98>
F:\AT32-workspace\AT32F403ACGU7_clone_windows_desktop_virtual_com_port\Release/../firmware/at32f403a_407_crm.c:634
        if (CRM->cfg_bit.pllhextdiv != RESET)
 8001a5c:	4a09      	ldr	r2, [pc, #36]	; (8001a84 <crm_clocks_freq_get+0xd4>)
 8001a5e:	6851      	ldr	r1, [r2, #4]
 8001a60:	0389      	lsls	r1, r1, #14
 8001a62:	d50a      	bpl.n	8001a7a <crm_clocks_freq_get+0xca>
F:\AT32-workspace\AT32F403ACGU7_clone_windows_desktop_virtual_com_port\Release/../firmware/at32f403a_407_crm.c:636
          hext_prediv = CRM->misc3_bit.hextdiv;
 8001a64:	6d52      	ldr	r2, [r2, #84]	; 0x54
F:\AT32-workspace\AT32F403ACGU7_clone_windows_desktop_virtual_com_port\Release/../firmware/at32f403a_407_crm.c:638
          clocks_struct->sclk_freq = (HEXT_VALUE / (hext_prediv + 2)) * pll_mult;
 8001a66:	4908      	ldr	r1, [pc, #32]	; (8001a88 <crm_clocks_freq_get+0xd8>)
F:\AT32-workspace\AT32F403ACGU7_clone_windows_desktop_virtual_com_port\Release/../firmware/at32f403a_407_crm.c:636
          hext_prediv = CRM->misc3_bit.hextdiv;
 8001a68:	f3c2 3201 	ubfx	r2, r2, #12, #2
F:\AT32-workspace\AT32F403ACGU7_clone_windows_desktop_virtual_com_port\Release/../firmware/at32f403a_407_crm.c:638
          clocks_struct->sclk_freq = (HEXT_VALUE / (hext_prediv + 2)) * pll_mult;
 8001a6c:	3202      	adds	r2, #2
 8001a6e:	fbb1 f2f2 	udiv	r2, r1, r2
 8001a72:	fb02 f303 	mul.w	r3, r2, r3
 8001a76:	6003      	str	r3, [r0, #0]
 8001a78:	e7a6      	b.n	80019c8 <crm_clocks_freq_get+0x18>
F:\AT32-workspace\AT32F403ACGU7_clone_windows_desktop_virtual_com_port\Release/../firmware/at32f403a_407_crm.c:642
          clocks_struct->sclk_freq = HEXT_VALUE * pll_mult;
 8001a7a:	4a03      	ldr	r2, [pc, #12]	; (8001a88 <crm_clocks_freq_get+0xd8>)
 8001a7c:	fb02 f303 	mul.w	r3, r2, r3
 8001a80:	6003      	str	r3, [r0, #0]
 8001a82:	e7a1      	b.n	80019c8 <crm_clocks_freq_get+0x18>
 8001a84:	40021000 	.word	0x40021000
 8001a88:	007a1200 	.word	0x007a1200
 8001a8c:	080051e4 	.word	0x080051e4
 8001a90:	080051dc 	.word	0x080051dc
 8001a94:	080051dc 	.word	0x080051dc
 8001a98:	080051d4 	.word	0x080051d4
 8001a9c:	02dc6c00 	.word	0x02dc6c00
 8001aa0:	003d0900 	.word	0x003d0900

08001aa4 <crm_auto_step_mode_enable>:
crm_auto_step_mode_enable():
F:\AT32-workspace\AT32F403ACGU7_clone_windows_desktop_virtual_com_port\Release/../firmware/at32f403a_407_crm.c:727
  * @param  new_state (TRUE or FALSE)
  * @retval none
  */
void crm_auto_step_mode_enable(confirm_state new_state)
{
  if(new_state == TRUE)
 8001aa4:	2801      	cmp	r0, #1
 8001aa6:	d005      	beq.n	8001ab4 <crm_auto_step_mode_enable+0x10>
F:\AT32-workspace\AT32F403ACGU7_clone_windows_desktop_virtual_com_port\Release/../firmware/at32f403a_407_crm.c:730
    CRM->misc3_bit.auto_step_en = CRM_AUTO_STEP_MODE_ENABLE;
  else
    CRM->misc3_bit.auto_step_en = CRM_AUTO_STEP_MODE_DISABLE;
 8001aa8:	4b05      	ldr	r3, [pc, #20]	; (8001ac0 <crm_auto_step_mode_enable+0x1c>)
 8001aaa:	6d5a      	ldr	r2, [r3, #84]	; 0x54
 8001aac:	f36f 1205 	bfc	r2, #4, #2
 8001ab0:	655a      	str	r2, [r3, #84]	; 0x54
F:\AT32-workspace\AT32F403ACGU7_clone_windows_desktop_virtual_com_port\Release/../firmware/at32f403a_407_crm.c:731
}
 8001ab2:	4770      	bx	lr
F:\AT32-workspace\AT32F403ACGU7_clone_windows_desktop_virtual_com_port\Release/../firmware/at32f403a_407_crm.c:728
    CRM->misc3_bit.auto_step_en = CRM_AUTO_STEP_MODE_ENABLE;
 8001ab4:	4a02      	ldr	r2, [pc, #8]	; (8001ac0 <crm_auto_step_mode_enable+0x1c>)
 8001ab6:	6d53      	ldr	r3, [r2, #84]	; 0x54
 8001ab8:	f043 0330 	orr.w	r3, r3, #48	; 0x30
 8001abc:	6553      	str	r3, [r2, #84]	; 0x54
 8001abe:	4770      	bx	lr
 8001ac0:	40021000 	.word	0x40021000

08001ac4 <crm_usb_clock_source_select>:
crm_usb_clock_source_select():
F:\AT32-workspace\AT32F403ACGU7_clone_windows_desktop_virtual_com_port\Release/../firmware/at32f403a_407_crm.c:783
  *         - CRM_USB_CLOCK_SOURCE_HICK
  * @retval none
  */
void crm_usb_clock_source_select(crm_usb_clock_source_type value)
{
  if(value == CRM_USB_CLOCK_SOURCE_HICK)
 8001ac4:	2801      	cmp	r0, #1
 8001ac6:	d108      	bne.n	8001ada <crm_usb_clock_source_select+0x16>
crm_hick_divider_select():
F:\AT32-workspace\AT32F403ACGU7_clone_windows_desktop_virtual_com_port\Release/../firmware/at32f403a_407_crm.c:756
  CRM->misc1_bit.hickdiv = value;
 8001ac8:	4b07      	ldr	r3, [pc, #28]	; (8001ae8 <crm_usb_clock_source_select+0x24>)
 8001aca:	6b1a      	ldr	r2, [r3, #48]	; 0x30
 8001acc:	f042 7200 	orr.w	r2, r2, #33554432	; 0x2000000
 8001ad0:	631a      	str	r2, [r3, #48]	; 0x30
crm_hick_sclk_frequency_select():
F:\AT32-workspace\AT32F403ACGU7_clone_windows_desktop_virtual_com_port\Release/../firmware/at32f403a_407_crm.c:770
  CRM->misc3_bit.hick_to_sclk = value;
 8001ad2:	6d5a      	ldr	r2, [r3, #84]	; 0x54
 8001ad4:	f442 7200 	orr.w	r2, r2, #512	; 0x200
 8001ad8:	655a      	str	r2, [r3, #84]	; 0x54
crm_usb_clock_source_select():
F:\AT32-workspace\AT32F403ACGU7_clone_windows_desktop_virtual_com_port\Release/../firmware/at32f403a_407_crm.c:787
  {
    crm_hick_sclk_frequency_select(CRM_HICK_SCLK_48MHZ);
  }
  CRM->misc3_bit.hick_to_usb = value;
 8001ada:	4b03      	ldr	r3, [pc, #12]	; (8001ae8 <crm_usb_clock_source_select+0x24>)
 8001adc:	6d5a      	ldr	r2, [r3, #84]	; 0x54
 8001ade:	f360 2208 	bfi	r2, r0, #8, #1
 8001ae2:	655a      	str	r2, [r3, #84]	; 0x54
F:\AT32-workspace\AT32F403ACGU7_clone_windows_desktop_virtual_com_port\Release/../firmware/at32f403a_407_crm.c:788
}
 8001ae4:	4770      	bx	lr
 8001ae6:	bf00      	nop
 8001ae8:	40021000 	.word	0x40021000

08001aec <dma_reset>:
dma_reset():
F:\AT32-workspace\AT32F403ACGU7_clone_windows_desktop_virtual_com_port\Release/../firmware/at32f403a_407_dma.c:65
  * @retval none
  */
void dma_reset(dma_channel_type* dmax_channely)
{
  uint32_t temp = 0;
  dmax_channely->ctrl_bit.chen = FALSE;
 8001aec:	6801      	ldr	r1, [r0, #0]
F:\AT32-workspace\AT32F403ACGU7_clone_windows_desktop_virtual_com_port\Release/../firmware/at32f403a_407_dma.c:73
  dmax_channely->paddr = 0;
  dmax_channely->maddr = 0;

  temp = (uint32_t)dmax_channely;

  if((temp & 0x4ff) < 0x408)
 8001aee:	f240 42ff 	movw	r2, #1279	; 0x4ff
 8001af2:	4002      	ands	r2, r0
F:\AT32-workspace\AT32F403ACGU7_clone_windows_desktop_virtual_com_port\Release/../firmware/at32f403a_407_dma.c:66
  dmax_channely->ctrl = 0;
 8001af4:	2300      	movs	r3, #0
F:\AT32-workspace\AT32F403ACGU7_clone_windows_desktop_virtual_com_port\Release/../firmware/at32f403a_407_dma.c:65
  dmax_channely->ctrl_bit.chen = FALSE;
 8001af6:	f36f 0100 	bfc	r1, #0, #1
F:\AT32-workspace\AT32F403ACGU7_clone_windows_desktop_virtual_com_port\Release/../firmware/at32f403a_407_dma.c:73
  if((temp & 0x4ff) < 0x408)
 8001afa:	f5b2 6f81 	cmp.w	r2, #1032	; 0x408
F:\AT32-workspace\AT32F403ACGU7_clone_windows_desktop_virtual_com_port\Release/../firmware/at32f403a_407_dma.c:65
  dmax_channely->ctrl_bit.chen = FALSE;
 8001afe:	6001      	str	r1, [r0, #0]
F:\AT32-workspace\AT32F403ACGU7_clone_windows_desktop_virtual_com_port\Release/../firmware/at32f403a_407_dma.c:66
  dmax_channely->ctrl = 0;
 8001b00:	6003      	str	r3, [r0, #0]
F:\AT32-workspace\AT32F403ACGU7_clone_windows_desktop_virtual_com_port\Release/../firmware/at32f403a_407_dma.c:67
  dmax_channely->dtcnt = 0;
 8001b02:	6043      	str	r3, [r0, #4]
F:\AT32-workspace\AT32F403ACGU7_clone_windows_desktop_virtual_com_port\Release/../firmware/at32f403a_407_dma.c:68
  dmax_channely->paddr = 0;
 8001b04:	6083      	str	r3, [r0, #8]
F:\AT32-workspace\AT32F403ACGU7_clone_windows_desktop_virtual_com_port\Release/../firmware/at32f403a_407_dma.c:69
  dmax_channely->maddr = 0;
 8001b06:	60c3      	str	r3, [r0, #12]
F:\AT32-workspace\AT32F403ACGU7_clone_windows_desktop_virtual_com_port\Release/../firmware/at32f403a_407_dma.c:73
  if((temp & 0x4ff) < 0x408)
 8001b08:	d20e      	bcs.n	8001b28 <dma_reset+0x3c>
F:\AT32-workspace\AT32F403ACGU7_clone_windows_desktop_virtual_com_port\Release/../firmware/at32f403a_407_dma.c:76
  {
    /* dma1 channel */
    DMA1->clr |= (uint32_t)(0x0f << ((((temp & 0xff) - 0x08) / 0x14) * 4));
 8001b0a:	b2c3      	uxtb	r3, r0
 8001b0c:	4a0a      	ldr	r2, [pc, #40]	; (8001b38 <dma_reset+0x4c>)
 8001b0e:	490b      	ldr	r1, [pc, #44]	; (8001b3c <dma_reset+0x50>)
 8001b10:	3b08      	subs	r3, #8
F:\AT32-workspace\AT32F403ACGU7_clone_windows_desktop_virtual_com_port\Release/../firmware/at32f403a_407_dma.c:81
  }
  else if((temp & 0x4ff) < 0x488)
  {
    /* dma2 channel */
    DMA2->clr |= (uint32_t)(0x0f << ((((temp & 0xff) - 0x08) / 0x14) * 4));
 8001b12:	fba2 2303 	umull	r2, r3, r2, r3
 8001b16:	091b      	lsrs	r3, r3, #4
 8001b18:	6848      	ldr	r0, [r1, #4]
 8001b1a:	009b      	lsls	r3, r3, #2
 8001b1c:	220f      	movs	r2, #15
 8001b1e:	fa02 f303 	lsl.w	r3, r2, r3
 8001b22:	4303      	orrs	r3, r0
 8001b24:	604b      	str	r3, [r1, #4]
F:\AT32-workspace\AT32F403ACGU7_clone_windows_desktop_virtual_com_port\Release/../firmware/at32f403a_407_dma.c:83
  }
}
 8001b26:	4770      	bx	lr
F:\AT32-workspace\AT32F403ACGU7_clone_windows_desktop_virtual_com_port\Release/../firmware/at32f403a_407_dma.c:78
  else if((temp & 0x4ff) < 0x488)
 8001b28:	f5b2 6f91 	cmp.w	r2, #1160	; 0x488
 8001b2c:	d2fb      	bcs.n	8001b26 <dma_reset+0x3a>
F:\AT32-workspace\AT32F403ACGU7_clone_windows_desktop_virtual_com_port\Release/../firmware/at32f403a_407_dma.c:81
    DMA2->clr |= (uint32_t)(0x0f << ((((temp & 0xff) - 0x08) / 0x14) * 4));
 8001b2e:	b2c3      	uxtb	r3, r0
 8001b30:	4a01      	ldr	r2, [pc, #4]	; (8001b38 <dma_reset+0x4c>)
 8001b32:	4903      	ldr	r1, [pc, #12]	; (8001b40 <dma_reset+0x54>)
 8001b34:	3b08      	subs	r3, #8
 8001b36:	e7ec      	b.n	8001b12 <dma_reset+0x26>
 8001b38:	cccccccd 	.word	0xcccccccd
 8001b3c:	40020000 	.word	0x40020000
 8001b40:	40020400 	.word	0x40020400

08001b44 <dma_flexible_config>:
dma_flexible_config():
F:\AT32-workspace\AT32F403ACGU7_clone_windows_desktop_virtual_com_port\Release/../firmware/at32f403a_407_dma.c:243
  * @retval none
  */

void dma_flexible_config(dma_type* dma_x, uint8_t flex_channelx, dma_flexible_request_type flexible_request)
{
  if(dma_x->src_sel1_bit.dma_flex_en == RESET)
 8001b44:	f8d0 30a4 	ldr.w	r3, [r0, #164]	; 0xa4
 8001b48:	01db      	lsls	r3, r3, #7
 8001b4a:	d405      	bmi.n	8001b58 <dma_flexible_config+0x14>
F:\AT32-workspace\AT32F403ACGU7_clone_windows_desktop_virtual_com_port\Release/../firmware/at32f403a_407_dma.c:245
  {
    dma_x->src_sel1_bit.dma_flex_en = TRUE;
 8001b4c:	f8d0 30a4 	ldr.w	r3, [r0, #164]	; 0xa4
 8001b50:	f043 7380 	orr.w	r3, r3, #16777216	; 0x1000000
 8001b54:	f8c0 30a4 	str.w	r3, [r0, #164]	; 0xa4
F:\AT32-workspace\AT32F403ACGU7_clone_windows_desktop_virtual_com_port\Release/../firmware/at32f403a_407_dma.c:248
  }

  if(flex_channelx == FLEX_CHANNEL1)
 8001b58:	2901      	cmp	r1, #1
 8001b5a:	d019      	beq.n	8001b90 <dma_flexible_config+0x4c>
F:\AT32-workspace\AT32F403ACGU7_clone_windows_desktop_virtual_com_port\Release/../firmware/at32f403a_407_dma.c:252
  {
    dma_x->src_sel0_bit.ch1_src = flexible_request;
  }
  else if(flex_channelx == FLEX_CHANNEL2)
 8001b5c:	2902      	cmp	r1, #2
 8001b5e:	d010      	beq.n	8001b82 <dma_flexible_config+0x3e>
F:\AT32-workspace\AT32F403ACGU7_clone_windows_desktop_virtual_com_port\Release/../firmware/at32f403a_407_dma.c:256
  {
    dma_x->src_sel0_bit.ch2_src = flexible_request;
  }
  else if(flex_channelx == FLEX_CHANNEL3)
 8001b60:	2903      	cmp	r1, #3
 8001b62:	d023      	beq.n	8001bac <dma_flexible_config+0x68>
F:\AT32-workspace\AT32F403ACGU7_clone_windows_desktop_virtual_com_port\Release/../firmware/at32f403a_407_dma.c:260
  {
    dma_x->src_sel0_bit.ch3_src = flexible_request;
  }
  else if(flex_channelx == FLEX_CHANNEL4)
 8001b64:	2904      	cmp	r1, #4
 8001b66:	d01a      	beq.n	8001b9e <dma_flexible_config+0x5a>
F:\AT32-workspace\AT32F403ACGU7_clone_windows_desktop_virtual_com_port\Release/../firmware/at32f403a_407_dma.c:264
  {
    dma_x->src_sel0_bit.ch4_src = flexible_request;
  }
  else if(flex_channelx == FLEX_CHANNEL5)
 8001b68:	2905      	cmp	r1, #5
 8001b6a:	d026      	beq.n	8001bba <dma_flexible_config+0x76>
F:\AT32-workspace\AT32F403ACGU7_clone_windows_desktop_virtual_com_port\Release/../firmware/at32f403a_407_dma.c:268
  {
    dma_x->src_sel1_bit.ch5_src = flexible_request;
  }
  else if(flex_channelx == FLEX_CHANNEL6)
 8001b6c:	2906      	cmp	r1, #6
 8001b6e:	d02b      	beq.n	8001bc8 <dma_flexible_config+0x84>
F:\AT32-workspace\AT32F403ACGU7_clone_windows_desktop_virtual_com_port\Release/../firmware/at32f403a_407_dma.c:274
  {
    dma_x->src_sel1_bit.ch6_src = flexible_request;
  }
  else
  {
    if(flex_channelx == FLEX_CHANNEL7)
 8001b70:	2907      	cmp	r1, #7
 8001b72:	d105      	bne.n	8001b80 <dma_flexible_config+0x3c>
F:\AT32-workspace\AT32F403ACGU7_clone_windows_desktop_virtual_com_port\Release/../firmware/at32f403a_407_dma.c:276
    {
      dma_x->src_sel1_bit.ch7_src = flexible_request;
 8001b74:	f8d0 30a4 	ldr.w	r3, [r0, #164]	; 0xa4
 8001b78:	f362 4317 	bfi	r3, r2, #16, #8
 8001b7c:	f8c0 30a4 	str.w	r3, [r0, #164]	; 0xa4
F:\AT32-workspace\AT32F403ACGU7_clone_windows_desktop_virtual_com_port\Release/../firmware/at32f403a_407_dma.c:279
    }
  }
}
 8001b80:	4770      	bx	lr
F:\AT32-workspace\AT32F403ACGU7_clone_windows_desktop_virtual_com_port\Release/../firmware/at32f403a_407_dma.c:254
    dma_x->src_sel0_bit.ch2_src = flexible_request;
 8001b82:	f8d0 30a0 	ldr.w	r3, [r0, #160]	; 0xa0
 8001b86:	f362 230f 	bfi	r3, r2, #8, #8
 8001b8a:	f8c0 30a0 	str.w	r3, [r0, #160]	; 0xa0
 8001b8e:	4770      	bx	lr
F:\AT32-workspace\AT32F403ACGU7_clone_windows_desktop_virtual_com_port\Release/../firmware/at32f403a_407_dma.c:250
    dma_x->src_sel0_bit.ch1_src = flexible_request;
 8001b90:	f8d0 30a0 	ldr.w	r3, [r0, #160]	; 0xa0
 8001b94:	f362 0307 	bfi	r3, r2, #0, #8
 8001b98:	f8c0 30a0 	str.w	r3, [r0, #160]	; 0xa0
 8001b9c:	4770      	bx	lr
F:\AT32-workspace\AT32F403ACGU7_clone_windows_desktop_virtual_com_port\Release/../firmware/at32f403a_407_dma.c:262
    dma_x->src_sel0_bit.ch4_src = flexible_request;
 8001b9e:	f8d0 30a0 	ldr.w	r3, [r0, #160]	; 0xa0
 8001ba2:	f362 631f 	bfi	r3, r2, #24, #8
 8001ba6:	f8c0 30a0 	str.w	r3, [r0, #160]	; 0xa0
 8001baa:	4770      	bx	lr
F:\AT32-workspace\AT32F403ACGU7_clone_windows_desktop_virtual_com_port\Release/../firmware/at32f403a_407_dma.c:258
    dma_x->src_sel0_bit.ch3_src = flexible_request;
 8001bac:	f8d0 30a0 	ldr.w	r3, [r0, #160]	; 0xa0
 8001bb0:	f362 4317 	bfi	r3, r2, #16, #8
 8001bb4:	f8c0 30a0 	str.w	r3, [r0, #160]	; 0xa0
 8001bb8:	4770      	bx	lr
F:\AT32-workspace\AT32F403ACGU7_clone_windows_desktop_virtual_com_port\Release/../firmware/at32f403a_407_dma.c:266
    dma_x->src_sel1_bit.ch5_src = flexible_request;
 8001bba:	f8d0 30a4 	ldr.w	r3, [r0, #164]	; 0xa4
 8001bbe:	f362 0307 	bfi	r3, r2, #0, #8
 8001bc2:	f8c0 30a4 	str.w	r3, [r0, #164]	; 0xa4
 8001bc6:	4770      	bx	lr
F:\AT32-workspace\AT32F403ACGU7_clone_windows_desktop_virtual_com_port\Release/../firmware/at32f403a_407_dma.c:270
    dma_x->src_sel1_bit.ch6_src = flexible_request;
 8001bc8:	f8d0 30a4 	ldr.w	r3, [r0, #164]	; 0xa4
 8001bcc:	f362 230f 	bfi	r3, r2, #8, #8
 8001bd0:	f8c0 30a4 	str.w	r3, [r0, #164]	; 0xa4
 8001bd4:	4770      	bx	lr
 8001bd6:	bf00      	nop

08001bd8 <dma_default_para_init>:
dma_default_para_init():
F:\AT32-workspace\AT32F403ACGU7_clone_windows_desktop_virtual_com_port\Release/../firmware/at32f403a_407_dma.c:367
  *         be initialized.
  * @retval none
  */
void dma_default_para_init(dma_init_type* dma_init_struct)
{
  dma_init_struct->peripheral_base_addr = 0x0;
 8001bd8:	2300      	movs	r3, #0
 8001bda:	e9c0 3300 	strd	r3, r3, [r0]
F:\AT32-workspace\AT32F403ACGU7_clone_windows_desktop_virtual_com_port\Release/../firmware/at32f403a_407_dma.c:371
  dma_init_struct->memory_base_addr = 0x0;
  dma_init_struct->direction = DMA_DIR_PERIPHERAL_TO_MEMORY;
  dma_init_struct->buffer_size = 0x0;
  dma_init_struct->peripheral_inc_enable = FALSE;
 8001bde:	e9c0 3302 	strd	r3, r3, [r0, #8]
F:\AT32-workspace\AT32F403ACGU7_clone_windows_desktop_virtual_com_port\Release/../firmware/at32f403a_407_dma.c:375
  dma_init_struct->memory_inc_enable = FALSE;
  dma_init_struct->peripheral_data_width = DMA_PERIPHERAL_DATA_WIDTH_BYTE;
  dma_init_struct->memory_data_width = DMA_MEMORY_DATA_WIDTH_BYTE;
  dma_init_struct->loop_mode_enable = FALSE;
 8001be2:	8203      	strh	r3, [r0, #16]
F:\AT32-workspace\AT32F403ACGU7_clone_windows_desktop_virtual_com_port\Release/../firmware/at32f403a_407_dma.c:377
  dma_init_struct->priority = DMA_PRIORITY_LOW;
}
 8001be4:	4770      	bx	lr
 8001be6:	bf00      	nop

08001be8 <dma_init>:
dma_init():
F:\AT32-workspace\AT32F403ACGU7_clone_windows_desktop_virtual_com_port\Release/../firmware/at32f403a_407_dma.c:403
  * @retval none
  */
void dma_init(dma_channel_type* dmax_channely, dma_init_type* dma_init_struct)
{
  /* clear ctrl register dtd bit and m2m bit */
  dmax_channely->ctrl &= 0xbfef;
 8001be8:	6803      	ldr	r3, [r0, #0]
 8001bea:	f64b 72ef 	movw	r2, #49135	; 0xbfef
 8001bee:	4013      	ands	r3, r2
 8001bf0:	6003      	str	r3, [r0, #0]
F:\AT32-workspace\AT32F403ACGU7_clone_windows_desktop_virtual_com_port\Release/../firmware/at32f403a_407_dma.c:404
  dmax_channely->ctrl |= dma_init_struct->direction;
 8001bf2:	6802      	ldr	r2, [r0, #0]
 8001bf4:	890b      	ldrh	r3, [r1, #8]
 8001bf6:	4313      	orrs	r3, r2
 8001bf8:	6003      	str	r3, [r0, #0]
F:\AT32-workspace\AT32F403ACGU7_clone_windows_desktop_virtual_com_port\Release/../firmware/at32f403a_407_dma.c:406

  dmax_channely->ctrl_bit.chpl =  dma_init_struct->priority;
 8001bfa:	6803      	ldr	r3, [r0, #0]
 8001bfc:	7c4a      	ldrb	r2, [r1, #17]
 8001bfe:	f362 330d 	bfi	r3, r2, #12, #2
 8001c02:	6003      	str	r3, [r0, #0]
F:\AT32-workspace\AT32F403ACGU7_clone_windows_desktop_virtual_com_port\Release/../firmware/at32f403a_407_dma.c:407
  dmax_channely->ctrl_bit.mwidth = dma_init_struct->memory_data_width;
 8001c04:	6803      	ldr	r3, [r0, #0]
 8001c06:	7bca      	ldrb	r2, [r1, #15]
 8001c08:	f362 238b 	bfi	r3, r2, #10, #2
 8001c0c:	6003      	str	r3, [r0, #0]
F:\AT32-workspace\AT32F403ACGU7_clone_windows_desktop_virtual_com_port\Release/../firmware/at32f403a_407_dma.c:408
  dmax_channely->ctrl_bit.pwidth = dma_init_struct->peripheral_data_width;
 8001c0e:	6803      	ldr	r3, [r0, #0]
 8001c10:	7b8a      	ldrb	r2, [r1, #14]
 8001c12:	f362 2309 	bfi	r3, r2, #8, #2
 8001c16:	6003      	str	r3, [r0, #0]
F:\AT32-workspace\AT32F403ACGU7_clone_windows_desktop_virtual_com_port\Release/../firmware/at32f403a_407_dma.c:409
  dmax_channely->ctrl_bit.mincm = dma_init_struct->memory_inc_enable;
 8001c18:	6803      	ldr	r3, [r0, #0]
 8001c1a:	7b4a      	ldrb	r2, [r1, #13]
 8001c1c:	f362 13c7 	bfi	r3, r2, #7, #1
 8001c20:	6003      	str	r3, [r0, #0]
F:\AT32-workspace\AT32F403ACGU7_clone_windows_desktop_virtual_com_port\Release/../firmware/at32f403a_407_dma.c:410
  dmax_channely->ctrl_bit.pincm = dma_init_struct->peripheral_inc_enable;
 8001c22:	6803      	ldr	r3, [r0, #0]
 8001c24:	7b0a      	ldrb	r2, [r1, #12]
 8001c26:	f362 1386 	bfi	r3, r2, #6, #1
 8001c2a:	6003      	str	r3, [r0, #0]
F:\AT32-workspace\AT32F403ACGU7_clone_windows_desktop_virtual_com_port\Release/../firmware/at32f403a_407_dma.c:411
  dmax_channely->ctrl_bit.lm = dma_init_struct->loop_mode_enable;
 8001c2c:	7c0a      	ldrb	r2, [r1, #16]
 8001c2e:	6803      	ldr	r3, [r0, #0]
 8001c30:	f362 1345 	bfi	r3, r2, #5, #1
 8001c34:	6003      	str	r3, [r0, #0]
F:\AT32-workspace\AT32F403ACGU7_clone_windows_desktop_virtual_com_port\Release/../firmware/at32f403a_407_dma.c:414
  dmax_channely->dtcnt = dma_init_struct->buffer_size;
  dmax_channely->paddr = dma_init_struct->peripheral_base_addr;
  dmax_channely->maddr = dma_init_struct->memory_base_addr;
 8001c36:	e9d1 2300 	ldrd	r2, r3, [r1]
F:\AT32-workspace\AT32F403ACGU7_clone_windows_desktop_virtual_com_port\Release/../firmware/at32f403a_407_dma.c:401
{
 8001c3a:	b410      	push	{r4}
F:\AT32-workspace\AT32F403ACGU7_clone_windows_desktop_virtual_com_port\Release/../firmware/at32f403a_407_dma.c:412
  dmax_channely->dtcnt = dma_init_struct->buffer_size;
 8001c3c:	894c      	ldrh	r4, [r1, #10]
 8001c3e:	6044      	str	r4, [r0, #4]
F:\AT32-workspace\AT32F403ACGU7_clone_windows_desktop_virtual_com_port\Release/../firmware/at32f403a_407_dma.c:413
  dmax_channely->paddr = dma_init_struct->peripheral_base_addr;
 8001c40:	6082      	str	r2, [r0, #8]
F:\AT32-workspace\AT32F403ACGU7_clone_windows_desktop_virtual_com_port\Release/../firmware/at32f403a_407_dma.c:415
}
 8001c42:	f85d 4b04 	ldr.w	r4, [sp], #4
F:\AT32-workspace\AT32F403ACGU7_clone_windows_desktop_virtual_com_port\Release/../firmware/at32f403a_407_dma.c:414
  dmax_channely->maddr = dma_init_struct->memory_base_addr;
 8001c46:	60c3      	str	r3, [r0, #12]
F:\AT32-workspace\AT32F403ACGU7_clone_windows_desktop_virtual_com_port\Release/../firmware/at32f403a_407_dma.c:415
}
 8001c48:	4770      	bx	lr
 8001c4a:	bf00      	nop

08001c4c <gpio_init>:
gpio_init():
F:\AT32-workspace\AT32F403ACGU7_clone_windows_desktop_virtual_com_port\Release/../firmware/at32f403a_407_gpio.c:99
  *         GPIOA, GPIOB, GPIOC, GPIOD, GPIOE.
  * @param  gpio_init_struct: pointer to gpio init structure.
  * @retval none
  */
void gpio_init(gpio_type *gpio_x, gpio_init_type *gpio_init_struct)
{
 8001c4c:	b510      	push	{r4, lr}
F:\AT32-workspace\AT32F403ACGU7_clone_windows_desktop_virtual_com_port\Release/../firmware/at32f403a_407_gpio.c:108
  pin_index = (uint16_t)gpio_init_struct->gpio_pins;

  /* pinx_value indecate pin grounp bit[3:0] from modey[1:0] confy[1:0] */

  /* pin input analog config */
  if(gpio_init_struct->gpio_mode == GPIO_MODE_ANALOG)
 8001c4e:	798b      	ldrb	r3, [r1, #6]
F:\AT32-workspace\AT32F403ACGU7_clone_windows_desktop_virtual_com_port\Release/../firmware/at32f403a_407_gpio.c:103
  pin_index = (uint16_t)gpio_init_struct->gpio_pins;
 8001c50:	680a      	ldr	r2, [r1, #0]
F:\AT32-workspace\AT32F403ACGU7_clone_windows_desktop_virtual_com_port\Release/../firmware/at32f403a_407_gpio.c:108
  if(gpio_init_struct->gpio_mode == GPIO_MODE_ANALOG)
 8001c52:	2b03      	cmp	r3, #3
F:\AT32-workspace\AT32F403ACGU7_clone_windows_desktop_virtual_com_port\Release/../firmware/at32f403a_407_gpio.c:103
  pin_index = (uint16_t)gpio_init_struct->gpio_pins;
 8001c54:	fa1f fe82 	uxth.w	lr, r2
F:\AT32-workspace\AT32F403ACGU7_clone_windows_desktop_virtual_com_port\Release/../firmware/at32f403a_407_gpio.c:108
  if(gpio_init_struct->gpio_mode == GPIO_MODE_ANALOG)
 8001c58:	f000 80c1 	beq.w	8001dde <gpio_init+0x192>
F:\AT32-workspace\AT32F403ACGU7_clone_windows_desktop_virtual_com_port\Release/../firmware/at32f403a_407_gpio.c:113
  {
    pinx_value = 0x00;
  }
  /* pin input config */
  else if(gpio_init_struct->gpio_mode == GPIO_MODE_INPUT)
 8001c5c:	2b00      	cmp	r3, #0
 8001c5e:	f000 80b4 	beq.w	8001dca <gpio_init+0x17e>
F:\AT32-workspace\AT32F403ACGU7_clone_windows_desktop_virtual_com_port\Release/../firmware/at32f403a_407_gpio.c:128
      gpio_x->clr = pin_index;
    }
  }
  else
  {
    pinx_value = (gpio_init_struct->gpio_mode & 0x08) | (gpio_init_struct->gpio_out_type & 0x04) | \
 8001c62:	f891 c004 	ldrb.w	ip, [r1, #4]
 8001c66:	79cc      	ldrb	r4, [r1, #7]
 8001c68:	f003 0308 	and.w	r3, r3, #8
 8001c6c:	f00c 0104 	and.w	r1, ip, #4
 8001c70:	430b      	orrs	r3, r1
 8001c72:	f004 0103 	and.w	r1, r4, #3
 8001c76:	430b      	orrs	r3, r1
 8001c78:	b291      	uxth	r1, r2
F:\AT32-workspace\AT32F403ACGU7_clone_windows_desktop_virtual_com_port\Release/../firmware/at32f403a_407_gpio.c:133
                 (gpio_init_struct->gpio_drive_strength & 0x03);
  }

  /* pin 0~7 config */
  if(((uint32_t)pin_index & ((uint32_t)0x00FF)) != 0x00)
 8001c7a:	b2d2      	uxtb	r2, r2
 8001c7c:	2a00      	cmp	r2, #0
 8001c7e:	d04e      	beq.n	8001d1e <gpio_init+0xd2>
F:\AT32-workspace\AT32F403ACGU7_clone_windows_desktop_virtual_com_port\Release/../firmware/at32f403a_407_gpio.c:137
  {
    for(temp = 0; temp < 0x08; temp++)
    {
      if((1 << temp) & pin_index)
 8001c80:	07cc      	lsls	r4, r1, #31
 8001c82:	d506      	bpl.n	8001c92 <gpio_init+0x46>
F:\AT32-workspace\AT32F403ACGU7_clone_windows_desktop_virtual_com_port\Release/../firmware/at32f403a_407_gpio.c:139
      {
        gpio_x->cfglr &= (uint32_t)~(0x0F << (temp * 4));
 8001c84:	6802      	ldr	r2, [r0, #0]
 8001c86:	f022 020f 	bic.w	r2, r2, #15
 8001c8a:	6002      	str	r2, [r0, #0]
F:\AT32-workspace\AT32F403ACGU7_clone_windows_desktop_virtual_com_port\Release/../firmware/at32f403a_407_gpio.c:140
        gpio_x->cfglr |= (uint32_t)(pinx_value << (temp * 4));
 8001c8c:	6802      	ldr	r2, [r0, #0]
 8001c8e:	431a      	orrs	r2, r3
 8001c90:	6002      	str	r2, [r0, #0]
F:\AT32-workspace\AT32F403ACGU7_clone_windows_desktop_virtual_com_port\Release/../firmware/at32f403a_407_gpio.c:137
      if((1 << temp) & pin_index)
 8001c92:	078a      	lsls	r2, r1, #30
 8001c94:	d507      	bpl.n	8001ca6 <gpio_init+0x5a>
F:\AT32-workspace\AT32F403ACGU7_clone_windows_desktop_virtual_com_port\Release/../firmware/at32f403a_407_gpio.c:139
        gpio_x->cfglr &= (uint32_t)~(0x0F << (temp * 4));
 8001c96:	6802      	ldr	r2, [r0, #0]
 8001c98:	f022 02f0 	bic.w	r2, r2, #240	; 0xf0
 8001c9c:	6002      	str	r2, [r0, #0]
F:\AT32-workspace\AT32F403ACGU7_clone_windows_desktop_virtual_com_port\Release/../firmware/at32f403a_407_gpio.c:140
        gpio_x->cfglr |= (uint32_t)(pinx_value << (temp * 4));
 8001c9e:	6802      	ldr	r2, [r0, #0]
 8001ca0:	ea42 1203 	orr.w	r2, r2, r3, lsl #4
 8001ca4:	6002      	str	r2, [r0, #0]
F:\AT32-workspace\AT32F403ACGU7_clone_windows_desktop_virtual_com_port\Release/../firmware/at32f403a_407_gpio.c:137
      if((1 << temp) & pin_index)
 8001ca6:	074c      	lsls	r4, r1, #29
 8001ca8:	d507      	bpl.n	8001cba <gpio_init+0x6e>
F:\AT32-workspace\AT32F403ACGU7_clone_windows_desktop_virtual_com_port\Release/../firmware/at32f403a_407_gpio.c:139
        gpio_x->cfglr &= (uint32_t)~(0x0F << (temp * 4));
 8001caa:	6802      	ldr	r2, [r0, #0]
 8001cac:	f422 6270 	bic.w	r2, r2, #3840	; 0xf00
 8001cb0:	6002      	str	r2, [r0, #0]
F:\AT32-workspace\AT32F403ACGU7_clone_windows_desktop_virtual_com_port\Release/../firmware/at32f403a_407_gpio.c:140
        gpio_x->cfglr |= (uint32_t)(pinx_value << (temp * 4));
 8001cb2:	6802      	ldr	r2, [r0, #0]
 8001cb4:	ea42 2203 	orr.w	r2, r2, r3, lsl #8
 8001cb8:	6002      	str	r2, [r0, #0]
F:\AT32-workspace\AT32F403ACGU7_clone_windows_desktop_virtual_com_port\Release/../firmware/at32f403a_407_gpio.c:137
      if((1 << temp) & pin_index)
 8001cba:	070a      	lsls	r2, r1, #28
 8001cbc:	d507      	bpl.n	8001cce <gpio_init+0x82>
F:\AT32-workspace\AT32F403ACGU7_clone_windows_desktop_virtual_com_port\Release/../firmware/at32f403a_407_gpio.c:139
        gpio_x->cfglr &= (uint32_t)~(0x0F << (temp * 4));
 8001cbe:	6802      	ldr	r2, [r0, #0]
 8001cc0:	f422 4270 	bic.w	r2, r2, #61440	; 0xf000
 8001cc4:	6002      	str	r2, [r0, #0]
F:\AT32-workspace\AT32F403ACGU7_clone_windows_desktop_virtual_com_port\Release/../firmware/at32f403a_407_gpio.c:140
        gpio_x->cfglr |= (uint32_t)(pinx_value << (temp * 4));
 8001cc6:	6802      	ldr	r2, [r0, #0]
 8001cc8:	ea42 3203 	orr.w	r2, r2, r3, lsl #12
 8001ccc:	6002      	str	r2, [r0, #0]
F:\AT32-workspace\AT32F403ACGU7_clone_windows_desktop_virtual_com_port\Release/../firmware/at32f403a_407_gpio.c:137
      if((1 << temp) & pin_index)
 8001cce:	06cc      	lsls	r4, r1, #27
 8001cd0:	d507      	bpl.n	8001ce2 <gpio_init+0x96>
F:\AT32-workspace\AT32F403ACGU7_clone_windows_desktop_virtual_com_port\Release/../firmware/at32f403a_407_gpio.c:139
        gpio_x->cfglr &= (uint32_t)~(0x0F << (temp * 4));
 8001cd2:	6802      	ldr	r2, [r0, #0]
 8001cd4:	f422 2270 	bic.w	r2, r2, #983040	; 0xf0000
 8001cd8:	6002      	str	r2, [r0, #0]
F:\AT32-workspace\AT32F403ACGU7_clone_windows_desktop_virtual_com_port\Release/../firmware/at32f403a_407_gpio.c:140
        gpio_x->cfglr |= (uint32_t)(pinx_value << (temp * 4));
 8001cda:	6802      	ldr	r2, [r0, #0]
 8001cdc:	ea42 4203 	orr.w	r2, r2, r3, lsl #16
 8001ce0:	6002      	str	r2, [r0, #0]
F:\AT32-workspace\AT32F403ACGU7_clone_windows_desktop_virtual_com_port\Release/../firmware/at32f403a_407_gpio.c:137
      if((1 << temp) & pin_index)
 8001ce2:	068a      	lsls	r2, r1, #26
 8001ce4:	d507      	bpl.n	8001cf6 <gpio_init+0xaa>
F:\AT32-workspace\AT32F403ACGU7_clone_windows_desktop_virtual_com_port\Release/../firmware/at32f403a_407_gpio.c:139
        gpio_x->cfglr &= (uint32_t)~(0x0F << (temp * 4));
 8001ce6:	6802      	ldr	r2, [r0, #0]
 8001ce8:	f422 0270 	bic.w	r2, r2, #15728640	; 0xf00000
 8001cec:	6002      	str	r2, [r0, #0]
F:\AT32-workspace\AT32F403ACGU7_clone_windows_desktop_virtual_com_port\Release/../firmware/at32f403a_407_gpio.c:140
        gpio_x->cfglr |= (uint32_t)(pinx_value << (temp * 4));
 8001cee:	6802      	ldr	r2, [r0, #0]
 8001cf0:	ea42 5203 	orr.w	r2, r2, r3, lsl #20
 8001cf4:	6002      	str	r2, [r0, #0]
F:\AT32-workspace\AT32F403ACGU7_clone_windows_desktop_virtual_com_port\Release/../firmware/at32f403a_407_gpio.c:137
      if((1 << temp) & pin_index)
 8001cf6:	064c      	lsls	r4, r1, #25
 8001cf8:	d507      	bpl.n	8001d0a <gpio_init+0xbe>
F:\AT32-workspace\AT32F403ACGU7_clone_windows_desktop_virtual_com_port\Release/../firmware/at32f403a_407_gpio.c:139
        gpio_x->cfglr &= (uint32_t)~(0x0F << (temp * 4));
 8001cfa:	6802      	ldr	r2, [r0, #0]
 8001cfc:	f022 6270 	bic.w	r2, r2, #251658240	; 0xf000000
 8001d00:	6002      	str	r2, [r0, #0]
F:\AT32-workspace\AT32F403ACGU7_clone_windows_desktop_virtual_com_port\Release/../firmware/at32f403a_407_gpio.c:140
        gpio_x->cfglr |= (uint32_t)(pinx_value << (temp * 4));
 8001d02:	6802      	ldr	r2, [r0, #0]
 8001d04:	ea42 6203 	orr.w	r2, r2, r3, lsl #24
 8001d08:	6002      	str	r2, [r0, #0]
F:\AT32-workspace\AT32F403ACGU7_clone_windows_desktop_virtual_com_port\Release/../firmware/at32f403a_407_gpio.c:137
      if((1 << temp) & pin_index)
 8001d0a:	060a      	lsls	r2, r1, #24
 8001d0c:	d507      	bpl.n	8001d1e <gpio_init+0xd2>
F:\AT32-workspace\AT32F403ACGU7_clone_windows_desktop_virtual_com_port\Release/../firmware/at32f403a_407_gpio.c:139
        gpio_x->cfglr &= (uint32_t)~(0x0F << (temp * 4));
 8001d0e:	6802      	ldr	r2, [r0, #0]
 8001d10:	f022 4270 	bic.w	r2, r2, #4026531840	; 0xf0000000
 8001d14:	6002      	str	r2, [r0, #0]
F:\AT32-workspace\AT32F403ACGU7_clone_windows_desktop_virtual_com_port\Release/../firmware/at32f403a_407_gpio.c:140
        gpio_x->cfglr |= (uint32_t)(pinx_value << (temp * 4));
 8001d16:	6802      	ldr	r2, [r0, #0]
 8001d18:	ea42 7203 	orr.w	r2, r2, r3, lsl #28
 8001d1c:	6002      	str	r2, [r0, #0]
F:\AT32-workspace\AT32F403ACGU7_clone_windows_desktop_virtual_com_port\Release/../firmware/at32f403a_407_gpio.c:146
      }
    }
  }

  /* pin 8~15 config */
  if(pin_index > 0x00ff)
 8001d1e:	f1be 0fff 	cmp.w	lr, #255	; 0xff
 8001d22:	d951      	bls.n	8001dc8 <gpio_init+0x17c>
F:\AT32-workspace\AT32F403ACGU7_clone_windows_desktop_virtual_com_port\Release/../firmware/at32f403a_407_gpio.c:152
  {
    pin_index = pin_index >> 8;

    for(temp = 0; temp < 0x8; temp++)
    {
      if((1 << temp) & pin_index)
 8001d24:	f41e 7f80 	tst.w	lr, #256	; 0x100
F:\AT32-workspace\AT32F403ACGU7_clone_windows_desktop_virtual_com_port\Release/../firmware/at32f403a_407_gpio.c:148
    pin_index = pin_index >> 8;
 8001d28:	ea4f 221e 	mov.w	r2, lr, lsr #8
F:\AT32-workspace\AT32F403ACGU7_clone_windows_desktop_virtual_com_port\Release/../firmware/at32f403a_407_gpio.c:152
      if((1 << temp) & pin_index)
 8001d2c:	d006      	beq.n	8001d3c <gpio_init+0xf0>
F:\AT32-workspace\AT32F403ACGU7_clone_windows_desktop_virtual_com_port\Release/../firmware/at32f403a_407_gpio.c:154
      {
        gpio_x->cfghr &= (uint32_t)~(0xf << (temp * 4));
 8001d2e:	6841      	ldr	r1, [r0, #4]
 8001d30:	f021 010f 	bic.w	r1, r1, #15
 8001d34:	6041      	str	r1, [r0, #4]
F:\AT32-workspace\AT32F403ACGU7_clone_windows_desktop_virtual_com_port\Release/../firmware/at32f403a_407_gpio.c:155
        gpio_x->cfghr |= (uint32_t)(pinx_value << (temp * 4));
 8001d36:	6841      	ldr	r1, [r0, #4]
 8001d38:	4319      	orrs	r1, r3
 8001d3a:	6041      	str	r1, [r0, #4]
F:\AT32-workspace\AT32F403ACGU7_clone_windows_desktop_virtual_com_port\Release/../firmware/at32f403a_407_gpio.c:152
      if((1 << temp) & pin_index)
 8001d3c:	0794      	lsls	r4, r2, #30
 8001d3e:	d507      	bpl.n	8001d50 <gpio_init+0x104>
F:\AT32-workspace\AT32F403ACGU7_clone_windows_desktop_virtual_com_port\Release/../firmware/at32f403a_407_gpio.c:154
        gpio_x->cfghr &= (uint32_t)~(0xf << (temp * 4));
 8001d40:	6841      	ldr	r1, [r0, #4]
 8001d42:	f021 01f0 	bic.w	r1, r1, #240	; 0xf0
 8001d46:	6041      	str	r1, [r0, #4]
F:\AT32-workspace\AT32F403ACGU7_clone_windows_desktop_virtual_com_port\Release/../firmware/at32f403a_407_gpio.c:155
        gpio_x->cfghr |= (uint32_t)(pinx_value << (temp * 4));
 8001d48:	6841      	ldr	r1, [r0, #4]
 8001d4a:	ea41 1103 	orr.w	r1, r1, r3, lsl #4
 8001d4e:	6041      	str	r1, [r0, #4]
F:\AT32-workspace\AT32F403ACGU7_clone_windows_desktop_virtual_com_port\Release/../firmware/at32f403a_407_gpio.c:152
      if((1 << temp) & pin_index)
 8001d50:	0751      	lsls	r1, r2, #29
 8001d52:	d507      	bpl.n	8001d64 <gpio_init+0x118>
F:\AT32-workspace\AT32F403ACGU7_clone_windows_desktop_virtual_com_port\Release/../firmware/at32f403a_407_gpio.c:154
        gpio_x->cfghr &= (uint32_t)~(0xf << (temp * 4));
 8001d54:	6841      	ldr	r1, [r0, #4]
 8001d56:	f421 6170 	bic.w	r1, r1, #3840	; 0xf00
 8001d5a:	6041      	str	r1, [r0, #4]
F:\AT32-workspace\AT32F403ACGU7_clone_windows_desktop_virtual_com_port\Release/../firmware/at32f403a_407_gpio.c:155
        gpio_x->cfghr |= (uint32_t)(pinx_value << (temp * 4));
 8001d5c:	6841      	ldr	r1, [r0, #4]
 8001d5e:	ea41 2103 	orr.w	r1, r1, r3, lsl #8
 8001d62:	6041      	str	r1, [r0, #4]
F:\AT32-workspace\AT32F403ACGU7_clone_windows_desktop_virtual_com_port\Release/../firmware/at32f403a_407_gpio.c:152
      if((1 << temp) & pin_index)
 8001d64:	0714      	lsls	r4, r2, #28
 8001d66:	d507      	bpl.n	8001d78 <gpio_init+0x12c>
F:\AT32-workspace\AT32F403ACGU7_clone_windows_desktop_virtual_com_port\Release/../firmware/at32f403a_407_gpio.c:154
        gpio_x->cfghr &= (uint32_t)~(0xf << (temp * 4));
 8001d68:	6841      	ldr	r1, [r0, #4]
 8001d6a:	f421 4170 	bic.w	r1, r1, #61440	; 0xf000
 8001d6e:	6041      	str	r1, [r0, #4]
F:\AT32-workspace\AT32F403ACGU7_clone_windows_desktop_virtual_com_port\Release/../firmware/at32f403a_407_gpio.c:155
        gpio_x->cfghr |= (uint32_t)(pinx_value << (temp * 4));
 8001d70:	6841      	ldr	r1, [r0, #4]
 8001d72:	ea41 3103 	orr.w	r1, r1, r3, lsl #12
 8001d76:	6041      	str	r1, [r0, #4]
F:\AT32-workspace\AT32F403ACGU7_clone_windows_desktop_virtual_com_port\Release/../firmware/at32f403a_407_gpio.c:152
      if((1 << temp) & pin_index)
 8001d78:	06d1      	lsls	r1, r2, #27
 8001d7a:	d507      	bpl.n	8001d8c <gpio_init+0x140>
F:\AT32-workspace\AT32F403ACGU7_clone_windows_desktop_virtual_com_port\Release/../firmware/at32f403a_407_gpio.c:154
        gpio_x->cfghr &= (uint32_t)~(0xf << (temp * 4));
 8001d7c:	6841      	ldr	r1, [r0, #4]
 8001d7e:	f421 2170 	bic.w	r1, r1, #983040	; 0xf0000
 8001d82:	6041      	str	r1, [r0, #4]
F:\AT32-workspace\AT32F403ACGU7_clone_windows_desktop_virtual_com_port\Release/../firmware/at32f403a_407_gpio.c:155
        gpio_x->cfghr |= (uint32_t)(pinx_value << (temp * 4));
 8001d84:	6841      	ldr	r1, [r0, #4]
 8001d86:	ea41 4103 	orr.w	r1, r1, r3, lsl #16
 8001d8a:	6041      	str	r1, [r0, #4]
F:\AT32-workspace\AT32F403ACGU7_clone_windows_desktop_virtual_com_port\Release/../firmware/at32f403a_407_gpio.c:152
      if((1 << temp) & pin_index)
 8001d8c:	0694      	lsls	r4, r2, #26
 8001d8e:	d507      	bpl.n	8001da0 <gpio_init+0x154>
F:\AT32-workspace\AT32F403ACGU7_clone_windows_desktop_virtual_com_port\Release/../firmware/at32f403a_407_gpio.c:154
        gpio_x->cfghr &= (uint32_t)~(0xf << (temp * 4));
 8001d90:	6841      	ldr	r1, [r0, #4]
 8001d92:	f421 0170 	bic.w	r1, r1, #15728640	; 0xf00000
 8001d96:	6041      	str	r1, [r0, #4]
F:\AT32-workspace\AT32F403ACGU7_clone_windows_desktop_virtual_com_port\Release/../firmware/at32f403a_407_gpio.c:155
        gpio_x->cfghr |= (uint32_t)(pinx_value << (temp * 4));
 8001d98:	6841      	ldr	r1, [r0, #4]
 8001d9a:	ea41 5103 	orr.w	r1, r1, r3, lsl #20
 8001d9e:	6041      	str	r1, [r0, #4]
F:\AT32-workspace\AT32F403ACGU7_clone_windows_desktop_virtual_com_port\Release/../firmware/at32f403a_407_gpio.c:152
      if((1 << temp) & pin_index)
 8001da0:	0651      	lsls	r1, r2, #25
 8001da2:	d507      	bpl.n	8001db4 <gpio_init+0x168>
F:\AT32-workspace\AT32F403ACGU7_clone_windows_desktop_virtual_com_port\Release/../firmware/at32f403a_407_gpio.c:154
        gpio_x->cfghr &= (uint32_t)~(0xf << (temp * 4));
 8001da4:	6841      	ldr	r1, [r0, #4]
 8001da6:	f021 6170 	bic.w	r1, r1, #251658240	; 0xf000000
 8001daa:	6041      	str	r1, [r0, #4]
F:\AT32-workspace\AT32F403ACGU7_clone_windows_desktop_virtual_com_port\Release/../firmware/at32f403a_407_gpio.c:155
        gpio_x->cfghr |= (uint32_t)(pinx_value << (temp * 4));
 8001dac:	6841      	ldr	r1, [r0, #4]
 8001dae:	ea41 6103 	orr.w	r1, r1, r3, lsl #24
 8001db2:	6041      	str	r1, [r0, #4]
F:\AT32-workspace\AT32F403ACGU7_clone_windows_desktop_virtual_com_port\Release/../firmware/at32f403a_407_gpio.c:152
      if((1 << temp) & pin_index)
 8001db4:	09d2      	lsrs	r2, r2, #7
 8001db6:	d007      	beq.n	8001dc8 <gpio_init+0x17c>
F:\AT32-workspace\AT32F403ACGU7_clone_windows_desktop_virtual_com_port\Release/../firmware/at32f403a_407_gpio.c:154
        gpio_x->cfghr &= (uint32_t)~(0xf << (temp * 4));
 8001db8:	6842      	ldr	r2, [r0, #4]
 8001dba:	f022 4270 	bic.w	r2, r2, #4026531840	; 0xf0000000
 8001dbe:	6042      	str	r2, [r0, #4]
F:\AT32-workspace\AT32F403ACGU7_clone_windows_desktop_virtual_com_port\Release/../firmware/at32f403a_407_gpio.c:155
        gpio_x->cfghr |= (uint32_t)(pinx_value << (temp * 4));
 8001dc0:	6842      	ldr	r2, [r0, #4]
 8001dc2:	ea42 7303 	orr.w	r3, r2, r3, lsl #28
 8001dc6:	6043      	str	r3, [r0, #4]
F:\AT32-workspace\AT32F403ACGU7_clone_windows_desktop_virtual_com_port\Release/../firmware/at32f403a_407_gpio.c:159
      }
    }
  }
}
 8001dc8:	bd10      	pop	{r4, pc}
F:\AT32-workspace\AT32F403ACGU7_clone_windows_desktop_virtual_com_port\Release/../firmware/at32f403a_407_gpio.c:115
    pinx_value = gpio_init_struct->gpio_pull & 0x0F;
 8001dca:	7949      	ldrb	r1, [r1, #5]
F:\AT32-workspace\AT32F403ACGU7_clone_windows_desktop_virtual_com_port\Release/../firmware/at32f403a_407_gpio.c:117
    if(gpio_init_struct->gpio_pull == GPIO_PULL_UP)
 8001dcc:	2918      	cmp	r1, #24
F:\AT32-workspace\AT32F403ACGU7_clone_windows_desktop_virtual_com_port\Release/../firmware/at32f403a_407_gpio.c:115
    pinx_value = gpio_init_struct->gpio_pull & 0x0F;
 8001dce:	f001 030f 	and.w	r3, r1, #15
F:\AT32-workspace\AT32F403ACGU7_clone_windows_desktop_virtual_com_port\Release/../firmware/at32f403a_407_gpio.c:117
    if(gpio_init_struct->gpio_pull == GPIO_PULL_UP)
 8001dd2:	d007      	beq.n	8001de4 <gpio_init+0x198>
F:\AT32-workspace\AT32F403ACGU7_clone_windows_desktop_virtual_com_port\Release/../firmware/at32f403a_407_gpio.c:121
    else if(gpio_init_struct->gpio_pull == GPIO_PULL_DOWN)
 8001dd4:	2928      	cmp	r1, #40	; 0x28
 8001dd6:	b291      	uxth	r1, r2
F:\AT32-workspace\AT32F403ACGU7_clone_windows_desktop_virtual_com_port\Release/../firmware/at32f403a_407_gpio.c:123
      gpio_x->clr = pin_index;
 8001dd8:	bf08      	it	eq
 8001dda:	6141      	streq	r1, [r0, #20]
 8001ddc:	e74d      	b.n	8001c7a <gpio_init+0x2e>
 8001dde:	4671      	mov	r1, lr
F:\AT32-workspace\AT32F403ACGU7_clone_windows_desktop_virtual_com_port\Release/../firmware/at32f403a_407_gpio.c:110
    pinx_value = 0x00;
 8001de0:	2300      	movs	r3, #0
 8001de2:	e74a      	b.n	8001c7a <gpio_init+0x2e>
F:\AT32-workspace\AT32F403ACGU7_clone_windows_desktop_virtual_com_port\Release/../firmware/at32f403a_407_gpio.c:119
      gpio_x->scr = pin_index;
 8001de4:	b291      	uxth	r1, r2
 8001de6:	6101      	str	r1, [r0, #16]
 8001de8:	e747      	b.n	8001c7a <gpio_init+0x2e>
 8001dea:	bf00      	nop

08001dec <gpio_default_para_init>:
gpio_default_para_init():
F:\AT32-workspace\AT32F403ACGU7_clone_windows_desktop_virtual_com_port\Release/../firmware/at32f403a_407_gpio.c:171
void gpio_default_para_init(gpio_init_type *gpio_init_struct)
{
  /* reset gpio init structure parameters values */
  gpio_init_struct->gpio_pins  = GPIO_PINS_ALL;
  gpio_init_struct->gpio_mode = GPIO_MODE_INPUT;
  gpio_init_struct->gpio_out_type = GPIO_OUTPUT_PUSH_PULL;
 8001dec:	4b02      	ldr	r3, [pc, #8]	; (8001df8 <gpio_default_para_init+0xc>)
F:\AT32-workspace\AT32F403ACGU7_clone_windows_desktop_virtual_com_port\Release/../firmware/at32f403a_407_gpio.c:169
  gpio_init_struct->gpio_pins  = GPIO_PINS_ALL;
 8001dee:	f64f 72ff 	movw	r2, #65535	; 0xffff
F:\AT32-workspace\AT32F403ACGU7_clone_windows_desktop_virtual_com_port\Release/../firmware/at32f403a_407_gpio.c:171
  gpio_init_struct->gpio_out_type = GPIO_OUTPUT_PUSH_PULL;
 8001df2:	e9c0 2300 	strd	r2, r3, [r0]
F:\AT32-workspace\AT32F403ACGU7_clone_windows_desktop_virtual_com_port\Release/../firmware/at32f403a_407_gpio.c:174
  gpio_init_struct->gpio_pull = GPIO_PULL_NONE;
  gpio_init_struct->gpio_drive_strength = GPIO_DRIVE_STRENGTH_STRONGER;
}
 8001df6:	4770      	bx	lr
 8001df8:	01000400 	.word	0x01000400

08001dfc <nvic_irq_enable>:
__NVIC_GetPriorityGrouping():
F:\AT32-workspace\AT32F403ACGU7_clone_windows_desktop_virtual_com_port\Release/../include/libraries/cmsis/cm4/core_support/core_cm4.h:1674
  return ((uint32_t)((SCB->AIRCR & SCB_AIRCR_PRIGROUP_Msk) >> SCB_AIRCR_PRIGROUP_Pos));
 8001dfc:	4b1f      	ldr	r3, [pc, #124]	; (8001e7c <nvic_irq_enable+0x80>)
 8001dfe:	68db      	ldr	r3, [r3, #12]
 8001e00:	f3c3 2302 	ubfx	r3, r3, #8, #3
nvic_irq_enable():
F:\AT32-workspace\AT32F403ACGU7_clone_windows_desktop_virtual_com_port\Release/../firmware/at32f403a_407_misc.c:63
  * @param  preempt_priority: preemptive priority value (starting from 0)
  * @param  sub_priority: subpriority value (starting from 0)
  * @retval none
  */
void nvic_irq_enable(IRQn_Type irqn, uint32_t preempt_priority, uint32_t sub_priority)
{
 8001e04:	b500      	push	{lr}
NVIC_EncodePriority():
F:\AT32-workspace\AT32F403ACGU7_clone_windows_desktop_virtual_com_port\Release/../include/libraries/cmsis/cm4/core_support/core_cm4.h:1867
  PreemptPriorityBits = ((7UL - PriorityGroupTmp) > (uint32_t)(__NVIC_PRIO_BITS)) ? (uint32_t)(__NVIC_PRIO_BITS) : (uint32_t)(7UL - PriorityGroupTmp);
 8001e06:	f1c3 0e07 	rsb	lr, r3, #7
 8001e0a:	f1be 0f04 	cmp.w	lr, #4
F:\AT32-workspace\AT32F403ACGU7_clone_windows_desktop_virtual_com_port\Release/../include/libraries/cmsis/cm4/core_support/core_cm4.h:1868
  SubPriorityBits     = ((PriorityGroupTmp + (uint32_t)(__NVIC_PRIO_BITS)) < (uint32_t)7UL) ? (uint32_t)0UL : (uint32_t)((PriorityGroupTmp - 7UL) + (uint32_t)(__NVIC_PRIO_BITS));
 8001e0e:	f103 0c04 	add.w	ip, r3, #4
F:\AT32-workspace\AT32F403ACGU7_clone_windows_desktop_virtual_com_port\Release/../include/libraries/cmsis/cm4/core_support/core_cm4.h:1867
  PreemptPriorityBits = ((7UL - PriorityGroupTmp) > (uint32_t)(__NVIC_PRIO_BITS)) ? (uint32_t)(__NVIC_PRIO_BITS) : (uint32_t)(7UL - PriorityGroupTmp);
 8001e12:	bf28      	it	cs
 8001e14:	f04f 0e04 	movcs.w	lr, #4
F:\AT32-workspace\AT32F403ACGU7_clone_windows_desktop_virtual_com_port\Release/../include/libraries/cmsis/cm4/core_support/core_cm4.h:1868
  SubPriorityBits     = ((PriorityGroupTmp + (uint32_t)(__NVIC_PRIO_BITS)) < (uint32_t)7UL) ? (uint32_t)0UL : (uint32_t)((PriorityGroupTmp - 7UL) + (uint32_t)(__NVIC_PRIO_BITS));
 8001e18:	f1bc 0f06 	cmp.w	ip, #6
 8001e1c:	d921      	bls.n	8001e62 <nvic_irq_enable+0x66>
 8001e1e:	3b03      	subs	r3, #3
F:\AT32-workspace\AT32F403ACGU7_clone_windows_desktop_virtual_com_port\Release/../include/libraries/cmsis/cm4/core_support/core_cm4.h:1872
           ((SubPriority     & (uint32_t)((1UL << (SubPriorityBits    )) - 1UL)))
 8001e20:	f04f 3cff 	mov.w	ip, #4294967295
 8001e24:	fa0c fc03 	lsl.w	ip, ip, r3
 8001e28:	ea22 020c 	bic.w	r2, r2, ip
F:\AT32-workspace\AT32F403ACGU7_clone_windows_desktop_virtual_com_port\Release/../include/libraries/cmsis/cm4/core_support/core_cm4.h:1871
           ((PreemptPriority & (uint32_t)((1UL << (PreemptPriorityBits)) - 1UL)) << SubPriorityBits) |
 8001e2c:	f04f 3cff 	mov.w	ip, #4294967295
 8001e30:	fa0c fc0e 	lsl.w	ip, ip, lr
 8001e34:	ea21 010c 	bic.w	r1, r1, ip
 8001e38:	4099      	lsls	r1, r3
__NVIC_SetPriority():
F:\AT32-workspace\AT32F403ACGU7_clone_windows_desktop_virtual_com_port\Release/../include/libraries/cmsis/cm4/core_support/core_cm4.h:1816
  if ((int32_t)(IRQn) >= 0)
 8001e3a:	2800      	cmp	r0, #0
NVIC_EncodePriority():
F:\AT32-workspace\AT32F403ACGU7_clone_windows_desktop_virtual_com_port\Release/../include/libraries/cmsis/cm4/core_support/core_cm4.h:1871
           ((PreemptPriority & (uint32_t)((1UL << (PreemptPriorityBits)) - 1UL)) << SubPriorityBits) |
 8001e3c:	ea41 0102 	orr.w	r1, r1, r2
__NVIC_SetPriority():
F:\AT32-workspace\AT32F403ACGU7_clone_windows_desktop_virtual_com_port\Release/../include/libraries/cmsis/cm4/core_support/core_cm4.h:1816
  if ((int32_t)(IRQn) >= 0)
 8001e40:	db12      	blt.n	8001e68 <nvic_irq_enable+0x6c>
F:\AT32-workspace\AT32F403ACGU7_clone_windows_desktop_virtual_com_port\Release/../include/libraries/cmsis/cm4/core_support/core_cm4.h:1818
    NVIC->IP[((uint32_t)IRQn)]               = (uint8_t)((priority << (8U - __NVIC_PRIO_BITS)) & (uint32_t)0xFFUL);
 8001e42:	4a0f      	ldr	r2, [pc, #60]	; (8001e80 <nvic_irq_enable+0x84>)
 8001e44:	0109      	lsls	r1, r1, #4
 8001e46:	1813      	adds	r3, r2, r0
 8001e48:	b2c9      	uxtb	r1, r1
 8001e4a:	f883 1300 	strb.w	r1, [r3, #768]	; 0x300
__NVIC_EnableIRQ():
F:\AT32-workspace\AT32F403ACGU7_clone_windows_desktop_virtual_com_port\Release/../include/libraries/cmsis/cm4/core_support/core_cm4.h:1689
    NVIC->ISER[(((uint32_t)IRQn) >> 5UL)] = (uint32_t)(1UL << (((uint32_t)IRQn) & 0x1FUL));
 8001e4e:	2301      	movs	r3, #1
 8001e50:	0941      	lsrs	r1, r0, #5
 8001e52:	f000 001f 	and.w	r0, r0, #31
 8001e56:	fa03 f000 	lsl.w	r0, r3, r0
 8001e5a:	f842 0021 	str.w	r0, [r2, r1, lsl #2]
nvic_irq_enable():
F:\AT32-workspace\AT32F403ACGU7_clone_windows_desktop_virtual_com_port\Release/../firmware/at32f403a_407_misc.c:72
  temp_priority = NVIC_EncodePriority(NVIC_GetPriorityGrouping(), preempt_priority, sub_priority);
  /* set priority */
  NVIC_SetPriority(irqn, temp_priority);
  /* enable irqn */
  NVIC_EnableIRQ(irqn);
}
 8001e5e:	f85d fb04 	ldr.w	pc, [sp], #4
NVIC_EncodePriority():
F:\AT32-workspace\AT32F403ACGU7_clone_windows_desktop_virtual_com_port\Release/../firmware/at32f403a_407_misc.c:72
 8001e62:	2200      	movs	r2, #0
F:\AT32-workspace\AT32F403ACGU7_clone_windows_desktop_virtual_com_port\Release/../include/libraries/cmsis/cm4/core_support/core_cm4.h:1868
  SubPriorityBits     = ((PriorityGroupTmp + (uint32_t)(__NVIC_PRIO_BITS)) < (uint32_t)7UL) ? (uint32_t)0UL : (uint32_t)((PriorityGroupTmp - 7UL) + (uint32_t)(__NVIC_PRIO_BITS));
 8001e64:	4613      	mov	r3, r2
 8001e66:	e7e1      	b.n	8001e2c <nvic_irq_enable+0x30>
__NVIC_SetPriority():
F:\AT32-workspace\AT32F403ACGU7_clone_windows_desktop_virtual_com_port\Release/../include/libraries/cmsis/cm4/core_support/core_cm4.h:1822
    SCB->SHP[(((uint32_t)IRQn) & 0xFUL)-4UL] = (uint8_t)((priority << (8U - __NVIC_PRIO_BITS)) & (uint32_t)0xFFUL);
 8001e68:	4b06      	ldr	r3, [pc, #24]	; (8001e84 <nvic_irq_enable+0x88>)
 8001e6a:	f000 000f 	and.w	r0, r0, #15
 8001e6e:	0109      	lsls	r1, r1, #4
 8001e70:	4403      	add	r3, r0
 8001e72:	b2c9      	uxtb	r1, r1
 8001e74:	7619      	strb	r1, [r3, #24]
nvic_irq_enable():
F:\AT32-workspace\AT32F403ACGU7_clone_windows_desktop_virtual_com_port\Release/../firmware/at32f403a_407_misc.c:72
 8001e76:	f85d fb04 	ldr.w	pc, [sp], #4
 8001e7a:	bf00      	nop
 8001e7c:	e000ed00 	.word	0xe000ed00
 8001e80:	e000e100 	.word	0xe000e100
 8001e84:	e000ecfc 	.word	0xe000ecfc

08001e88 <systick_clock_source_config>:
systick_clock_source_config():
F:\AT32-workspace\AT32F403ACGU7_clone_windows_desktop_virtual_com_port\Release/../firmware/at32f403a_407_misc.c:149
  */
void systick_clock_source_config(systick_clock_source_type source)
{
  if(source == SYSTICK_CLOCK_SOURCE_AHBCLK_NODIV)
  {
    SysTick->CTRL |= SYSTICK_CLOCK_SOURCE_AHBCLK_NODIV;
 8001e88:	f04f 22e0 	mov.w	r2, #3758153728	; 0xe000e000
F:\AT32-workspace\AT32F403ACGU7_clone_windows_desktop_virtual_com_port\Release/../firmware/at32f403a_407_misc.c:147
  if(source == SYSTICK_CLOCK_SOURCE_AHBCLK_NODIV)
 8001e8c:	2804      	cmp	r0, #4
F:\AT32-workspace\AT32F403ACGU7_clone_windows_desktop_virtual_com_port\Release/../firmware/at32f403a_407_misc.c:149
    SysTick->CTRL |= SYSTICK_CLOCK_SOURCE_AHBCLK_NODIV;
 8001e8e:	6913      	ldr	r3, [r2, #16]
 8001e90:	bf0c      	ite	eq
 8001e92:	f043 0304 	orreq.w	r3, r3, #4
F:\AT32-workspace\AT32F403ACGU7_clone_windows_desktop_virtual_com_port\Release/../firmware/at32f403a_407_misc.c:153
  }
  else
  {
    SysTick->CTRL &= ~(uint32_t)SYSTICK_CLOCK_SOURCE_AHBCLK_NODIV;
 8001e96:	f023 0304 	bicne.w	r3, r3, #4
 8001e9a:	6113      	str	r3, [r2, #16]
F:\AT32-workspace\AT32F403ACGU7_clone_windows_desktop_virtual_com_port\Release/../firmware/at32f403a_407_misc.c:155
  }
}
 8001e9c:	4770      	bx	lr
 8001e9e:	bf00      	nop

08001ea0 <spi_default_para_init>:
spi_default_para_init():
F:\AT32-workspace\AT32F403ACGU7_clone_windows_desktop_virtual_com_port\Release/../firmware/at32f403a_407_spi.c:81
  *         be initialized.
  * @retval none
  */
void spi_default_para_init(spi_init_type* spi_init_struct)
{
  spi_init_struct->transmission_mode = SPI_TRANSMIT_FULL_DUPLEX;
 8001ea0:	2200      	movs	r2, #0
 8001ea2:	f04f 7380 	mov.w	r3, #16777216	; 0x1000000
 8001ea6:	6002      	str	r2, [r0, #0]
 8001ea8:	6043      	str	r3, [r0, #4]
F:\AT32-workspace\AT32F403ACGU7_clone_windows_desktop_virtual_com_port\Release/../firmware/at32f403a_407_spi.c:89
  spi_init_struct->first_bit_transmission = SPI_FIRST_BIT_MSB;
  spi_init_struct->frame_bit_num = SPI_FRAME_8BIT;
  spi_init_struct->clock_polarity = SPI_CLOCK_POLARITY_LOW;
  spi_init_struct->clock_phase = SPI_CLOCK_PHASE_1EDGE;
  spi_init_struct->cs_mode_selection = SPI_CS_SOFTWARE_MODE;
}
 8001eaa:	4770      	bx	lr

08001eac <spi_init>:
spi_init():
F:\AT32-workspace\AT32F403ACGU7_clone_windows_desktop_virtual_com_port\Release/../firmware/at32f403a_407_spi.c:98
  * @param  spi_init_struct : pointer to a spi_init_type structure which will be initialized.
  * @retval none
  */
void spi_init(spi_type* spi_x, spi_init_type* spi_init_struct)
{
  spi_x->i2sctrl_bit.i2smsel = FALSE;
 8001eac:	69c3      	ldr	r3, [r0, #28]
 8001eae:	f36f 23cb 	bfc	r3, #11, #1
 8001eb2:	61c3      	str	r3, [r0, #28]
F:\AT32-workspace\AT32F403ACGU7_clone_windows_desktop_virtual_com_port\Release/../firmware/at32f403a_407_spi.c:99
  if(spi_init_struct->transmission_mode == SPI_TRANSMIT_FULL_DUPLEX)
 8001eb4:	780b      	ldrb	r3, [r1, #0]
 8001eb6:	2b00      	cmp	r3, #0
 8001eb8:	d13e      	bne.n	8001f38 <spi_init+0x8c>
F:\AT32-workspace\AT32F403ACGU7_clone_windows_desktop_virtual_com_port\Release/../firmware/at32f403a_407_spi.c:101
  {
    spi_x->ctrl1_bit.slben = FALSE;
 8001eba:	6802      	ldr	r2, [r0, #0]
 8001ebc:	f363 32cf 	bfi	r2, r3, #15, #1
 8001ec0:	6002      	str	r2, [r0, #0]
F:\AT32-workspace\AT32F403ACGU7_clone_windows_desktop_virtual_com_port\Release/../firmware/at32f403a_407_spi.c:102
    spi_x->ctrl1_bit.slbtd = FALSE;
 8001ec2:	6802      	ldr	r2, [r0, #0]
 8001ec4:	f363 328e 	bfi	r2, r3, #14, #1
 8001ec8:	6002      	str	r2, [r0, #0]
F:\AT32-workspace\AT32F403ACGU7_clone_windows_desktop_virtual_com_port\Release/../firmware/at32f403a_407_spi.c:103
    spi_x->ctrl1_bit.ora = FALSE;
 8001eca:	6802      	ldr	r2, [r0, #0]
 8001ecc:	f363 228a 	bfi	r2, r3, #10, #1
 8001ed0:	6002      	str	r2, [r0, #0]
F:\AT32-workspace\AT32F403ACGU7_clone_windows_desktop_virtual_com_port\Release/../firmware/at32f403a_407_spi.c:124
    spi_x->ctrl1_bit.slben = TRUE;
    spi_x->ctrl1_bit.slbtd = TRUE;
    spi_x->ctrl1_bit.ora = FALSE;
  }

  spi_x->ctrl1_bit.swcsen = spi_init_struct->cs_mode_selection;
 8001ed2:	6803      	ldr	r3, [r0, #0]
 8001ed4:	f891 c007 	ldrb.w	ip, [r1, #7]
 8001ed8:	f36c 2349 	bfi	r3, ip, #9, #1
 8001edc:	6003      	str	r3, [r0, #0]
F:\AT32-workspace\AT32F403ACGU7_clone_windows_desktop_virtual_com_port\Release/../firmware/at32f403a_407_spi.c:125
  if((spi_init_struct->master_slave_mode == SPI_MODE_MASTER) && (spi_init_struct->cs_mode_selection == SPI_CS_SOFTWARE_MODE))
 8001ede:	784a      	ldrb	r2, [r1, #1]
F:\AT32-workspace\AT32F403ACGU7_clone_windows_desktop_virtual_com_port\Release/../firmware/at32f403a_407_spi.c:127
  {
    spi_x->ctrl1_bit.swcsil = TRUE;
 8001ee0:	6803      	ldr	r3, [r0, #0]
F:\AT32-workspace\AT32F403ACGU7_clone_windows_desktop_virtual_com_port\Release/../firmware/at32f403a_407_spi.c:125
  if((spi_init_struct->master_slave_mode == SPI_MODE_MASTER) && (spi_init_struct->cs_mode_selection == SPI_CS_SOFTWARE_MODE))
 8001ee2:	2a01      	cmp	r2, #1
 8001ee4:	d03b      	beq.n	8001f5e <spi_init+0xb2>
F:\AT32-workspace\AT32F403ACGU7_clone_windows_desktop_virtual_com_port\Release/../firmware/at32f403a_407_spi.c:131
  }
  else
  {
    spi_x->ctrl1_bit.swcsil = FALSE;
 8001ee6:	f36f 2308 	bfc	r3, #8, #1
 8001eea:	6003      	str	r3, [r0, #0]
F:\AT32-workspace\AT32F403ACGU7_clone_windows_desktop_virtual_com_port\Release/../firmware/at32f403a_407_spi.c:133
  }
  spi_x->ctrl1_bit.msten = spi_init_struct->master_slave_mode;
 8001eec:	6803      	ldr	r3, [r0, #0]
 8001eee:	f362 0382 	bfi	r3, r2, #2, #1
 8001ef2:	6003      	str	r3, [r0, #0]
F:\AT32-workspace\AT32F403ACGU7_clone_windows_desktop_virtual_com_port\Release/../firmware/at32f403a_407_spi.c:134
  if(spi_init_struct->mclk_freq_division > SPI_MCLK_DIV_256)
 8001ef4:	788b      	ldrb	r3, [r1, #2]
F:\AT32-workspace\AT32F403ACGU7_clone_windows_desktop_virtual_com_port\Release/../firmware/at32f403a_407_spi.c:136
  {
    spi_x->ctrl2_bit.mdiv_h = 1;
 8001ef6:	6842      	ldr	r2, [r0, #4]
F:\AT32-workspace\AT32F403ACGU7_clone_windows_desktop_virtual_com_port\Release/../firmware/at32f403a_407_spi.c:134
  if(spi_init_struct->mclk_freq_division > SPI_MCLK_DIV_256)
 8001ef8:	2b07      	cmp	r3, #7
F:\AT32-workspace\AT32F403ACGU7_clone_windows_desktop_virtual_com_port\Release/../firmware/at32f403a_407_spi.c:136
    spi_x->ctrl2_bit.mdiv_h = 1;
 8001efa:	bf8c      	ite	hi
 8001efc:	f442 7280 	orrhi.w	r2, r2, #256	; 0x100
F:\AT32-workspace\AT32F403ACGU7_clone_windows_desktop_virtual_com_port\Release/../firmware/at32f403a_407_spi.c:141
    spi_x->ctrl1_bit.mdiv_l = spi_init_struct->mclk_freq_division & 0x7;
  }
  else
  {
    spi_x->ctrl2_bit.mdiv_h = 0;
 8001f00:	f36f 2208 	bfcls	r2, #8, #1
 8001f04:	6042      	str	r2, [r0, #4]
F:\AT32-workspace\AT32F403ACGU7_clone_windows_desktop_virtual_com_port\Release/../firmware/at32f403a_407_spi.c:142
    spi_x->ctrl1_bit.mdiv_l = spi_init_struct->mclk_freq_division;
 8001f06:	6802      	ldr	r2, [r0, #0]
 8001f08:	f363 02c5 	bfi	r2, r3, #3, #3
 8001f0c:	6002      	str	r2, [r0, #0]
F:\AT32-workspace\AT32F403ACGU7_clone_windows_desktop_virtual_com_port\Release/../firmware/at32f403a_407_spi.c:144
  }
  spi_x->ctrl1_bit.ltf = spi_init_struct->first_bit_transmission;
 8001f0e:	6803      	ldr	r3, [r0, #0]
 8001f10:	78ca      	ldrb	r2, [r1, #3]
 8001f12:	f362 13c7 	bfi	r3, r2, #7, #1
 8001f16:	6003      	str	r3, [r0, #0]
F:\AT32-workspace\AT32F403ACGU7_clone_windows_desktop_virtual_com_port\Release/../firmware/at32f403a_407_spi.c:145
  spi_x->ctrl1_bit.fbn = spi_init_struct->frame_bit_num;
 8001f18:	6803      	ldr	r3, [r0, #0]
 8001f1a:	790a      	ldrb	r2, [r1, #4]
 8001f1c:	f362 23cb 	bfi	r3, r2, #11, #1
 8001f20:	6003      	str	r3, [r0, #0]
F:\AT32-workspace\AT32F403ACGU7_clone_windows_desktop_virtual_com_port\Release/../firmware/at32f403a_407_spi.c:146
  spi_x->ctrl1_bit.clkpol = spi_init_struct->clock_polarity;
 8001f22:	6803      	ldr	r3, [r0, #0]
 8001f24:	794a      	ldrb	r2, [r1, #5]
 8001f26:	f362 0341 	bfi	r3, r2, #1, #1
 8001f2a:	6003      	str	r3, [r0, #0]
F:\AT32-workspace\AT32F403ACGU7_clone_windows_desktop_virtual_com_port\Release/../firmware/at32f403a_407_spi.c:147
  spi_x->ctrl1_bit.clkpha = spi_init_struct->clock_phase;
 8001f2c:	798a      	ldrb	r2, [r1, #6]
 8001f2e:	6803      	ldr	r3, [r0, #0]
 8001f30:	f362 0300 	bfi	r3, r2, #0, #1
 8001f34:	6003      	str	r3, [r0, #0]
F:\AT32-workspace\AT32F403ACGU7_clone_windows_desktop_virtual_com_port\Release/../firmware/at32f403a_407_spi.c:148
}
 8001f36:	4770      	bx	lr
F:\AT32-workspace\AT32F403ACGU7_clone_windows_desktop_virtual_com_port\Release/../firmware/at32f403a_407_spi.c:105
  else if(spi_init_struct->transmission_mode == SPI_TRANSMIT_SIMPLEX_RX)
 8001f38:	2b01      	cmp	r3, #1
 8001f3a:	d017      	beq.n	8001f6c <spi_init+0xc0>
F:\AT32-workspace\AT32F403ACGU7_clone_windows_desktop_virtual_com_port\Release/../firmware/at32f403a_407_spi.c:111
  else if(spi_init_struct->transmission_mode == SPI_TRANSMIT_HALF_DUPLEX_RX)
 8001f3c:	2b02      	cmp	r3, #2
 8001f3e:	d022      	beq.n	8001f86 <spi_init+0xda>
F:\AT32-workspace\AT32F403ACGU7_clone_windows_desktop_virtual_com_port\Release/../firmware/at32f403a_407_spi.c:117
  else if(spi_init_struct->transmission_mode == SPI_TRANSMIT_HALF_DUPLEX_TX)
 8001f40:	2b03      	cmp	r3, #3
 8001f42:	d1c6      	bne.n	8001ed2 <spi_init+0x26>
F:\AT32-workspace\AT32F403ACGU7_clone_windows_desktop_virtual_com_port\Release/../firmware/at32f403a_407_spi.c:119
    spi_x->ctrl1_bit.slben = TRUE;
 8001f44:	6803      	ldr	r3, [r0, #0]
 8001f46:	f443 4300 	orr.w	r3, r3, #32768	; 0x8000
 8001f4a:	6003      	str	r3, [r0, #0]
F:\AT32-workspace\AT32F403ACGU7_clone_windows_desktop_virtual_com_port\Release/../firmware/at32f403a_407_spi.c:120
    spi_x->ctrl1_bit.slbtd = TRUE;
 8001f4c:	6803      	ldr	r3, [r0, #0]
 8001f4e:	f443 4380 	orr.w	r3, r3, #16384	; 0x4000
 8001f52:	6003      	str	r3, [r0, #0]
F:\AT32-workspace\AT32F403ACGU7_clone_windows_desktop_virtual_com_port\Release/../firmware/at32f403a_407_spi.c:121
    spi_x->ctrl1_bit.ora = FALSE;
 8001f54:	6803      	ldr	r3, [r0, #0]
 8001f56:	f36f 238a 	bfc	r3, #10, #1
 8001f5a:	6003      	str	r3, [r0, #0]
 8001f5c:	e7b9      	b.n	8001ed2 <spi_init+0x26>
F:\AT32-workspace\AT32F403ACGU7_clone_windows_desktop_virtual_com_port\Release/../firmware/at32f403a_407_spi.c:125 (discriminator 1)
  if((spi_init_struct->master_slave_mode == SPI_MODE_MASTER) && (spi_init_struct->cs_mode_selection == SPI_CS_SOFTWARE_MODE))
 8001f5e:	f1bc 0f01 	cmp.w	ip, #1
 8001f62:	d1c0      	bne.n	8001ee6 <spi_init+0x3a>
F:\AT32-workspace\AT32F403ACGU7_clone_windows_desktop_virtual_com_port\Release/../firmware/at32f403a_407_spi.c:127
    spi_x->ctrl1_bit.swcsil = TRUE;
 8001f64:	f443 7380 	orr.w	r3, r3, #256	; 0x100
 8001f68:	6003      	str	r3, [r0, #0]
 8001f6a:	e7bf      	b.n	8001eec <spi_init+0x40>
F:\AT32-workspace\AT32F403ACGU7_clone_windows_desktop_virtual_com_port\Release/../firmware/at32f403a_407_spi.c:107
    spi_x->ctrl1_bit.slben = FALSE;
 8001f6c:	6803      	ldr	r3, [r0, #0]
 8001f6e:	f36f 33cf 	bfc	r3, #15, #1
 8001f72:	6003      	str	r3, [r0, #0]
F:\AT32-workspace\AT32F403ACGU7_clone_windows_desktop_virtual_com_port\Release/../firmware/at32f403a_407_spi.c:108
    spi_x->ctrl1_bit.slbtd = FALSE;
 8001f74:	6803      	ldr	r3, [r0, #0]
 8001f76:	f36f 338e 	bfc	r3, #14, #1
 8001f7a:	6003      	str	r3, [r0, #0]
F:\AT32-workspace\AT32F403ACGU7_clone_windows_desktop_virtual_com_port\Release/../firmware/at32f403a_407_spi.c:109
    spi_x->ctrl1_bit.ora = TRUE;
 8001f7c:	6803      	ldr	r3, [r0, #0]
 8001f7e:	f443 6380 	orr.w	r3, r3, #1024	; 0x400
 8001f82:	6003      	str	r3, [r0, #0]
 8001f84:	e7a5      	b.n	8001ed2 <spi_init+0x26>
F:\AT32-workspace\AT32F403ACGU7_clone_windows_desktop_virtual_com_port\Release/../firmware/at32f403a_407_spi.c:113
    spi_x->ctrl1_bit.slben = TRUE;
 8001f86:	6803      	ldr	r3, [r0, #0]
 8001f88:	f443 4300 	orr.w	r3, r3, #32768	; 0x8000
 8001f8c:	6003      	str	r3, [r0, #0]
F:\AT32-workspace\AT32F403ACGU7_clone_windows_desktop_virtual_com_port\Release/../firmware/at32f403a_407_spi.c:114
    spi_x->ctrl1_bit.slbtd = FALSE;
 8001f8e:	6803      	ldr	r3, [r0, #0]
 8001f90:	f36f 338e 	bfc	r3, #14, #1
 8001f94:	6003      	str	r3, [r0, #0]
F:\AT32-workspace\AT32F403ACGU7_clone_windows_desktop_virtual_com_port\Release/../firmware/at32f403a_407_spi.c:115
    spi_x->ctrl1_bit.ora = FALSE;
 8001f96:	6803      	ldr	r3, [r0, #0]
 8001f98:	f36f 238a 	bfc	r3, #10, #1
 8001f9c:	6003      	str	r3, [r0, #0]
 8001f9e:	e798      	b.n	8001ed2 <spi_init+0x26>

08001fa0 <tmr_counter_enable>:
tmr_counter_enable():
F:\AT32-workspace\AT32F403ACGU7_clone_windows_desktop_virtual_com_port\Release/../firmware/at32f403a_407_tmr.c:136
  * @retval none
  */
void tmr_counter_enable(tmr_type *tmr_x, confirm_state new_state)
{
  /* tmr counter enable  */
  tmr_x->ctrl1_bit.tmren = new_state;
 8001fa0:	6803      	ldr	r3, [r0, #0]
 8001fa2:	f361 0300 	bfi	r3, r1, #0, #1
 8001fa6:	6003      	str	r3, [r0, #0]
F:\AT32-workspace\AT32F403ACGU7_clone_windows_desktop_virtual_com_port\Release/../firmware/at32f403a_407_tmr.c:137
}
 8001fa8:	4770      	bx	lr
 8001faa:	bf00      	nop

08001fac <tmr_output_default_para_init>:
tmr_output_default_para_init():
F:\AT32-workspace\AT32F403ACGU7_clone_windows_desktop_virtual_com_port\Release/../firmware/at32f403a_407_tmr.c:147
  *         - to the structure of tmr_output_config_type
  * @retval none
  */
void tmr_output_default_para_init(tmr_output_config_type *tmr_output_struct)
{
  tmr_output_struct->oc_mode = TMR_OUTPUT_CONTROL_OFF;
 8001fac:	2300      	movs	r3, #0
 8001fae:	6003      	str	r3, [r0, #0]
F:\AT32-workspace\AT32F403ACGU7_clone_windows_desktop_virtual_com_port\Release/../firmware/at32f403a_407_tmr.c:151
  tmr_output_struct->oc_idle_state = FALSE;
  tmr_output_struct->occ_idle_state = FALSE;
  tmr_output_struct->oc_polarity = TMR_OUTPUT_ACTIVE_HIGH;
  tmr_output_struct->occ_polarity = TMR_OUTPUT_ACTIVE_HIGH;
 8001fb0:	7103      	strb	r3, [r0, #4]
F:\AT32-workspace\AT32F403ACGU7_clone_windows_desktop_virtual_com_port\Release/../firmware/at32f403a_407_tmr.c:152
  tmr_output_struct->oc_output_state = FALSE;
 8001fb2:	7143      	strb	r3, [r0, #5]
F:\AT32-workspace\AT32F403ACGU7_clone_windows_desktop_virtual_com_port\Release/../firmware/at32f403a_407_tmr.c:153
  tmr_output_struct->occ_output_state = FALSE;
 8001fb4:	7183      	strb	r3, [r0, #6]
F:\AT32-workspace\AT32F403ACGU7_clone_windows_desktop_virtual_com_port\Release/../firmware/at32f403a_407_tmr.c:154
}
 8001fb6:	4770      	bx	lr

08001fb8 <tmr_base_init>:
tmr_base_init():
F:\AT32-workspace\AT32F403ACGU7_clone_windows_desktop_virtual_com_port\Release/../firmware/at32f403a_407_tmr.c:201
  * @retval none
  */
void tmr_base_init(tmr_type* tmr_x, uint32_t tmr_pr, uint32_t tmr_div)
{
  /* set the pr value */
  tmr_x->pr = tmr_pr;
 8001fb8:	62c1      	str	r1, [r0, #44]	; 0x2c
F:\AT32-workspace\AT32F403ACGU7_clone_windows_desktop_virtual_com_port\Release/../firmware/at32f403a_407_tmr.c:204

  /* set the div value */
  tmr_x->div = tmr_div;
 8001fba:	6282      	str	r2, [r0, #40]	; 0x28
F:\AT32-workspace\AT32F403ACGU7_clone_windows_desktop_virtual_com_port\Release/../firmware/at32f403a_407_tmr.c:207

  /* trigger the overflow event to immediately reload pr value and div value */
  tmr_x->swevt_bit.ovfswtr = TRUE;
 8001fbc:	6943      	ldr	r3, [r0, #20]
 8001fbe:	f043 0301 	orr.w	r3, r3, #1
 8001fc2:	6143      	str	r3, [r0, #20]
F:\AT32-workspace\AT32F403ACGU7_clone_windows_desktop_virtual_com_port\Release/../firmware/at32f403a_407_tmr.c:208
}
 8001fc4:	4770      	bx	lr
 8001fc6:	bf00      	nop

08001fc8 <tmr_cnt_dir_set>:
tmr_cnt_dir_set():
F:\AT32-workspace\AT32F403ACGU7_clone_windows_desktop_virtual_com_port\Release/../firmware/at32f403a_407_tmr.c:247
  * @retval none
  */
void tmr_cnt_dir_set(tmr_type *tmr_x, tmr_count_mode_type tmr_cnt_dir)
{
  /* set the cnt direct */
  tmr_x->ctrl1_bit.cnt_dir = tmr_cnt_dir;
 8001fc8:	6803      	ldr	r3, [r0, #0]
 8001fca:	f361 1306 	bfi	r3, r1, #4, #3
 8001fce:	6003      	str	r3, [r0, #0]
F:\AT32-workspace\AT32F403ACGU7_clone_windows_desktop_virtual_com_port\Release/../firmware/at32f403a_407_tmr.c:248
}
 8001fd0:	4770      	bx	lr
 8001fd2:	bf00      	nop

08001fd4 <tmr_output_channel_config>:
tmr_output_channel_config():
F:\AT32-workspace\AT32F403ACGU7_clone_windows_desktop_virtual_com_port\Release/../firmware/at32f403a_407_tmr.c:340
  *         - to the structure of tmr_output_config_type
  * @retval none
  */
void tmr_output_channel_config(tmr_type *tmr_x, tmr_channel_select_type tmr_channel,
                               tmr_output_config_type *tmr_output_struct)
{
 8001fd4:	b5f0      	push	{r4, r5, r6, r7, lr}
F:\AT32-workspace\AT32F403ACGU7_clone_windows_desktop_virtual_com_port\Release/../firmware/at32f403a_407_tmr.c:347

  chx_offset = (8 + tmr_channel);
  chcx_offset = (9 + tmr_channel);
  
  /* get channel idle state bit position in ctrl2 register */
  channel_index = (uint16_t)(tmr_output_struct->oc_idle_state << chx_offset);
 8001fd6:	7854      	ldrb	r4, [r2, #1]
F:\AT32-workspace\AT32F403ACGU7_clone_windows_desktop_virtual_com_port\Release/../firmware/at32f403a_407_tmr.c:353

  /* get channel complementary idle state bit position in ctrl2 register */
  channel_c_index = (uint16_t)(tmr_output_struct->occ_idle_state << chcx_offset);

  /* set output channel complementary idle state */
  tmr_x->ctrl2 &= ~(1<<chcx_offset);
 8001fd8:	6843      	ldr	r3, [r0, #4]
F:\AT32-workspace\AT32F403ACGU7_clone_windows_desktop_virtual_com_port\Release/../firmware/at32f403a_407_tmr.c:347
  channel_index = (uint16_t)(tmr_output_struct->oc_idle_state << chx_offset);
 8001fda:	f101 0508 	add.w	r5, r1, #8
F:\AT32-workspace\AT32F403ACGU7_clone_windows_desktop_virtual_com_port\Release/../firmware/at32f403a_407_tmr.c:350
  channel_c_index = (uint16_t)(tmr_output_struct->occ_idle_state << chcx_offset);
 8001fde:	f101 0709 	add.w	r7, r1, #9
F:\AT32-workspace\AT32F403ACGU7_clone_windows_desktop_virtual_com_port\Release/../firmware/at32f403a_407_tmr.c:353
  tmr_x->ctrl2 &= ~(1<<chcx_offset);
 8001fe2:	2601      	movs	r6, #1
F:\AT32-workspace\AT32F403ACGU7_clone_windows_desktop_virtual_com_port\Release/../firmware/at32f403a_407_tmr.c:347
  channel_index = (uint16_t)(tmr_output_struct->oc_idle_state << chx_offset);
 8001fe4:	40ac      	lsls	r4, r5
F:\AT32-workspace\AT32F403ACGU7_clone_windows_desktop_virtual_com_port\Release/../firmware/at32f403a_407_tmr.c:357
  tmr_x->ctrl2 |= channel_c_index;

  /* set output channel idle state */
  tmr_x->ctrl2 &= ~(1<<chx_offset);
 8001fe6:	fa06 f505 	lsl.w	r5, r6, r5
F:\AT32-workspace\AT32F403ACGU7_clone_windows_desktop_virtual_com_port\Release/../firmware/at32f403a_407_tmr.c:353
  tmr_x->ctrl2 &= ~(1<<chcx_offset);
 8001fea:	40be      	lsls	r6, r7
F:\AT32-workspace\AT32F403ACGU7_clone_windows_desktop_virtual_com_port\Release/../firmware/at32f403a_407_tmr.c:358
  tmr_x->ctrl2 |= channel_index;
 8001fec:	fa1f fc84 	uxth.w	ip, r4
F:\AT32-workspace\AT32F403ACGU7_clone_windows_desktop_virtual_com_port\Release/../firmware/at32f403a_407_tmr.c:353
  tmr_x->ctrl2 &= ~(1<<chcx_offset);
 8001ff0:	ea23 0606 	bic.w	r6, r3, r6
F:\AT32-workspace\AT32F403ACGU7_clone_windows_desktop_virtual_com_port\Release/../firmware/at32f403a_407_tmr.c:350
  channel_c_index = (uint16_t)(tmr_output_struct->occ_idle_state << chcx_offset);
 8001ff4:	7894      	ldrb	r4, [r2, #2]
F:\AT32-workspace\AT32F403ACGU7_clone_windows_desktop_virtual_com_port\Release/../firmware/at32f403a_407_tmr.c:353
  tmr_x->ctrl2 &= ~(1<<chcx_offset);
 8001ff6:	6046      	str	r6, [r0, #4]
F:\AT32-workspace\AT32F403ACGU7_clone_windows_desktop_virtual_com_port\Release/../firmware/at32f403a_407_tmr.c:354
  tmr_x->ctrl2 |= channel_c_index;
 8001ff8:	6843      	ldr	r3, [r0, #4]
F:\AT32-workspace\AT32F403ACGU7_clone_windows_desktop_virtual_com_port\Release/../firmware/at32f403a_407_tmr.c:350
  channel_c_index = (uint16_t)(tmr_output_struct->occ_idle_state << chcx_offset);
 8001ffa:	40bc      	lsls	r4, r7
F:\AT32-workspace\AT32F403ACGU7_clone_windows_desktop_virtual_com_port\Release/../firmware/at32f403a_407_tmr.c:354
  tmr_x->ctrl2 |= channel_c_index;
 8001ffc:	b2a4      	uxth	r4, r4
 8001ffe:	431c      	orrs	r4, r3
 8002000:	6044      	str	r4, [r0, #4]
F:\AT32-workspace\AT32F403ACGU7_clone_windows_desktop_virtual_com_port\Release/../firmware/at32f403a_407_tmr.c:357
  tmr_x->ctrl2 &= ~(1<<chx_offset);
 8002002:	6843      	ldr	r3, [r0, #4]
 8002004:	ea23 0505 	bic.w	r5, r3, r5
 8002008:	6045      	str	r5, [r0, #4]
F:\AT32-workspace\AT32F403ACGU7_clone_windows_desktop_virtual_com_port\Release/../firmware/at32f403a_407_tmr.c:358
  tmr_x->ctrl2 |= channel_index;
 800200a:	6844      	ldr	r4, [r0, #4]
 800200c:	ea4c 0404 	orr.w	r4, ip, r4
F:\AT32-workspace\AT32F403ACGU7_clone_windows_desktop_virtual_com_port\Release/../firmware/at32f403a_407_tmr.c:343
  chx_offset = (8 + tmr_channel);
 8002010:	fa1f fe81 	uxth.w	lr, r1
F:\AT32-workspace\AT32F403ACGU7_clone_windows_desktop_virtual_com_port\Release/../firmware/at32f403a_407_tmr.c:358
  tmr_x->ctrl2 |= channel_index;
 8002014:	6044      	str	r4, [r0, #4]
F:\AT32-workspace\AT32F403ACGU7_clone_windows_desktop_virtual_com_port\Release/../firmware/at32f403a_407_tmr.c:363

  /* set channel output mode */
  channel = tmr_channel;

  switch(channel)
 8002016:	2906      	cmp	r1, #6
 8002018:	d80a      	bhi.n	8002030 <tmr_output_channel_config+0x5c>
 800201a:	e8df f001 	tbb	[pc, r1]
 800201e:	0904      	.short	0x0904
 8002020:	093f0945 	.word	0x093f0945
 8002024:	39          	.byte	0x39
 8002025:	00          	.byte	0x00
F:\AT32-workspace\AT32F403ACGU7_clone_windows_desktop_virtual_com_port\Release/../firmware/at32f403a_407_tmr.c:366
  {
    case TMR_SELECT_CHANNEL_1:
      tmr_x->cm1_output_bit.c1octrl = tmr_output_struct->oc_mode;
 8002026:	7814      	ldrb	r4, [r2, #0]
 8002028:	6983      	ldr	r3, [r0, #24]
 800202a:	f364 1306 	bfi	r3, r4, #4, #3
 800202e:	6183      	str	r3, [r0, #24]
F:\AT32-workspace\AT32F403ACGU7_clone_windows_desktop_virtual_com_port\Release/../firmware/at32f403a_407_tmr.c:392

  /* get channel polarity bit position in cctrl register */
  channel_index = (uint16_t)(tmr_output_struct->oc_polarity << chx_offset);

  /* get channel complementary polarity bit position in cctrl register */
  channel_c_index = (uint16_t)(tmr_output_struct->occ_polarity << chcx_offset);
 8002030:	7916      	ldrb	r6, [r2, #4]
F:\AT32-workspace\AT32F403ACGU7_clone_windows_desktop_virtual_com_port\Release/../firmware/at32f403a_407_tmr.c:395

  /* set output channel complementary polarity */
  tmr_x->cctrl &= ~(1<<chcx_offset);
 8002032:	6a03      	ldr	r3, [r0, #32]
F:\AT32-workspace\AT32F403ACGU7_clone_windows_desktop_virtual_com_port\Release/../firmware/at32f403a_407_tmr.c:385
  chx_offset = ((tmr_channel * 2) + 1);
 8002034:	ea4f 0e4e 	mov.w	lr, lr, lsl #1
F:\AT32-workspace\AT32F403ACGU7_clone_windows_desktop_virtual_com_port\Release/../firmware/at32f403a_407_tmr.c:395
  tmr_x->cctrl &= ~(1<<chcx_offset);
 8002038:	2501      	movs	r5, #1
F:\AT32-workspace\AT32F403ACGU7_clone_windows_desktop_virtual_com_port\Release/../firmware/at32f403a_407_tmr.c:406

  chx_offset = (tmr_channel * 2);
  chcx_offset = ((tmr_channel * 2) + 2);

  /* get channel enable bit position in cctrl register */
  channel_index = (uint16_t)(tmr_output_struct->oc_output_state << (tmr_channel * 2));
 800203a:	ea4f 0c41 	mov.w	ip, r1, lsl #1
F:\AT32-workspace\AT32F403ACGU7_clone_windows_desktop_virtual_com_port\Release/../firmware/at32f403a_407_tmr.c:392
  channel_c_index = (uint16_t)(tmr_output_struct->occ_polarity << chcx_offset);
 800203e:	f10e 0103 	add.w	r1, lr, #3
 8002042:	408e      	lsls	r6, r1
F:\AT32-workspace\AT32F403ACGU7_clone_windows_desktop_virtual_com_port\Release/../firmware/at32f403a_407_tmr.c:395
  tmr_x->cctrl &= ~(1<<chcx_offset);
 8002044:	fa05 f101 	lsl.w	r1, r5, r1
 8002048:	ea23 0101 	bic.w	r1, r3, r1
F:\AT32-workspace\AT32F403ACGU7_clone_windows_desktop_virtual_com_port\Release/../firmware/at32f403a_407_tmr.c:396
  tmr_x->cctrl |= channel_c_index;
 800204c:	b2b3      	uxth	r3, r6
 800204e:	4319      	orrs	r1, r3
F:\AT32-workspace\AT32F403ACGU7_clone_windows_desktop_virtual_com_port\Release/../firmware/at32f403a_407_tmr.c:389
  channel_index = (uint16_t)(tmr_output_struct->oc_polarity << chx_offset);
 8002050:	78d3      	ldrb	r3, [r2, #3]
 8002052:	f10e 0401 	add.w	r4, lr, #1
 8002056:	40a3      	lsls	r3, r4
F:\AT32-workspace\AT32F403ACGU7_clone_windows_desktop_virtual_com_port\Release/../firmware/at32f403a_407_tmr.c:399
  tmr_x->cctrl &= ~(1<<chx_offset);
 8002058:	fa05 f404 	lsl.w	r4, r5, r4
 800205c:	ea21 0104 	bic.w	r1, r1, r4
F:\AT32-workspace\AT32F403ACGU7_clone_windows_desktop_virtual_com_port\Release/../firmware/at32f403a_407_tmr.c:409

  /* get channel complementary enable bit position in cctrl register */
  channel_c_index = (uint16_t)(tmr_output_struct->occ_output_state << ((tmr_channel * 2) + 2));
 8002060:	7994      	ldrb	r4, [r2, #6]
F:\AT32-workspace\AT32F403ACGU7_clone_windows_desktop_virtual_com_port\Release/../firmware/at32f403a_407_tmr.c:406
  channel_index = (uint16_t)(tmr_output_struct->oc_output_state << (tmr_channel * 2));
 8002062:	7952      	ldrb	r2, [r2, #5]
F:\AT32-workspace\AT32F403ACGU7_clone_windows_desktop_virtual_com_port\Release/../firmware/at32f403a_407_tmr.c:400
  tmr_x->cctrl |= channel_index;
 8002064:	b29b      	uxth	r3, r3
F:\AT32-workspace\AT32F403ACGU7_clone_windows_desktop_virtual_com_port\Release/../firmware/at32f403a_407_tmr.c:406
  channel_index = (uint16_t)(tmr_output_struct->oc_output_state << (tmr_channel * 2));
 8002066:	fa02 f20c 	lsl.w	r2, r2, ip
F:\AT32-workspace\AT32F403ACGU7_clone_windows_desktop_virtual_com_port\Release/../firmware/at32f403a_407_tmr.c:409
  channel_c_index = (uint16_t)(tmr_output_struct->occ_output_state << ((tmr_channel * 2) + 2));
 800206a:	f10c 0c02 	add.w	ip, ip, #2
F:\AT32-workspace\AT32F403ACGU7_clone_windows_desktop_virtual_com_port\Release/../firmware/at32f403a_407_tmr.c:400
  tmr_x->cctrl |= channel_index;
 800206e:	4319      	orrs	r1, r3
F:\AT32-workspace\AT32F403ACGU7_clone_windows_desktop_virtual_com_port\Release/../firmware/at32f403a_407_tmr.c:409
  channel_c_index = (uint16_t)(tmr_output_struct->occ_output_state << ((tmr_channel * 2) + 2));
 8002070:	fa04 f40c 	lsl.w	r4, r4, ip
F:\AT32-workspace\AT32F403ACGU7_clone_windows_desktop_virtual_com_port\Release/../firmware/at32f403a_407_tmr.c:412

  /* set output channel complementary enable bit */
  tmr_x->cctrl &= ~(1<<chcx_offset);
 8002074:	fa05 f30c 	lsl.w	r3, r5, ip
 8002078:	ea21 0303 	bic.w	r3, r1, r3
F:\AT32-workspace\AT32F403ACGU7_clone_windows_desktop_virtual_com_port\Release/../firmware/at32f403a_407_tmr.c:413
  tmr_x->cctrl |= channel_c_index;
 800207c:	b2a1      	uxth	r1, r4
F:\AT32-workspace\AT32F403ACGU7_clone_windows_desktop_virtual_com_port\Release/../firmware/at32f403a_407_tmr.c:416

  /* set output channel enable bit */
  tmr_x->cctrl &= ~(1<<chx_offset);
 800207e:	fa05 fe0e 	lsl.w	lr, r5, lr
F:\AT32-workspace\AT32F403ACGU7_clone_windows_desktop_virtual_com_port\Release/../firmware/at32f403a_407_tmr.c:413
  tmr_x->cctrl |= channel_c_index;
 8002082:	430b      	orrs	r3, r1
F:\AT32-workspace\AT32F403ACGU7_clone_windows_desktop_virtual_com_port\Release/../firmware/at32f403a_407_tmr.c:416
  tmr_x->cctrl &= ~(1<<chx_offset);
 8002084:	ea23 030e 	bic.w	r3, r3, lr
F:\AT32-workspace\AT32F403ACGU7_clone_windows_desktop_virtual_com_port\Release/../firmware/at32f403a_407_tmr.c:417
  tmr_x->cctrl |= channel_index;
 8002088:	b292      	uxth	r2, r2
 800208a:	4313      	orrs	r3, r2
 800208c:	6203      	str	r3, [r0, #32]
F:\AT32-workspace\AT32F403ACGU7_clone_windows_desktop_virtual_com_port\Release/../firmware/at32f403a_407_tmr.c:418
}
 800208e:	bdf0      	pop	{r4, r5, r6, r7, pc}
F:\AT32-workspace\AT32F403ACGU7_clone_windows_desktop_virtual_com_port\Release/../firmware/at32f403a_407_tmr.c:378
      tmr_x->cm2_output_bit.c4octrl = tmr_output_struct->oc_mode;
 8002090:	7814      	ldrb	r4, [r2, #0]
 8002092:	69c3      	ldr	r3, [r0, #28]
 8002094:	f364 330e 	bfi	r3, r4, #12, #3
 8002098:	61c3      	str	r3, [r0, #28]
F:\AT32-workspace\AT32F403ACGU7_clone_windows_desktop_virtual_com_port\Release/../firmware/at32f403a_407_tmr.c:379
      break;
 800209a:	e7c9      	b.n	8002030 <tmr_output_channel_config+0x5c>
F:\AT32-workspace\AT32F403ACGU7_clone_windows_desktop_virtual_com_port\Release/../firmware/at32f403a_407_tmr.c:374
      tmr_x->cm2_output_bit.c3octrl = tmr_output_struct->oc_mode;
 800209c:	7814      	ldrb	r4, [r2, #0]
 800209e:	69c3      	ldr	r3, [r0, #28]
 80020a0:	f364 1306 	bfi	r3, r4, #4, #3
 80020a4:	61c3      	str	r3, [r0, #28]
F:\AT32-workspace\AT32F403ACGU7_clone_windows_desktop_virtual_com_port\Release/../firmware/at32f403a_407_tmr.c:375
      break;
 80020a6:	e7c3      	b.n	8002030 <tmr_output_channel_config+0x5c>
F:\AT32-workspace\AT32F403ACGU7_clone_windows_desktop_virtual_com_port\Release/../firmware/at32f403a_407_tmr.c:370
      tmr_x->cm1_output_bit.c2octrl = tmr_output_struct->oc_mode;
 80020a8:	7814      	ldrb	r4, [r2, #0]
 80020aa:	6983      	ldr	r3, [r0, #24]
 80020ac:	f364 330e 	bfi	r3, r4, #12, #3
 80020b0:	6183      	str	r3, [r0, #24]
F:\AT32-workspace\AT32F403ACGU7_clone_windows_desktop_virtual_com_port\Release/../firmware/at32f403a_407_tmr.c:371
      break;
 80020b2:	e7bd      	b.n	8002030 <tmr_output_channel_config+0x5c>

080020b4 <tmr_channel_value_set>:
tmr_channel_value_set():
F:\AT32-workspace\AT32F403ACGU7_clone_windows_desktop_virtual_com_port\Release/../firmware/at32f403a_407_tmr.c:529
  uint16_t channel;

  channel = tmr_channel;

  /* set tmr channel value */
  switch(channel)
 80020b4:	2906      	cmp	r1, #6
 80020b6:	d806      	bhi.n	80020c6 <tmr_channel_value_set+0x12>
 80020b8:	e8df f001 	tbb	[pc, r1]
 80020bc:	0508050a 	.word	0x0508050a
 80020c0:	0506      	.short	0x0506
 80020c2:	04          	.byte	0x04
 80020c3:	00          	.byte	0x00
F:\AT32-workspace\AT32F403ACGU7_clone_windows_desktop_virtual_com_port\Release/../firmware/at32f403a_407_tmr.c:544
    case TMR_SELECT_CHANNEL_3:
      tmr_x->c3dt = tmr_channel_value;
      break;

    case TMR_SELECT_CHANNEL_4:
      tmr_x->c4dt = tmr_channel_value;
 80020c4:	6402      	str	r2, [r0, #64]	; 0x40
F:\AT32-workspace\AT32F403ACGU7_clone_windows_desktop_virtual_com_port\Release/../firmware/at32f403a_407_tmr.c:550
      break;

    default:
      break;
  }
}
 80020c6:	4770      	bx	lr
F:\AT32-workspace\AT32F403ACGU7_clone_windows_desktop_virtual_com_port\Release/../firmware/at32f403a_407_tmr.c:540
      tmr_x->c3dt = tmr_channel_value;
 80020c8:	63c2      	str	r2, [r0, #60]	; 0x3c
F:\AT32-workspace\AT32F403ACGU7_clone_windows_desktop_virtual_com_port\Release/../firmware/at32f403a_407_tmr.c:541
      break;
 80020ca:	4770      	bx	lr
F:\AT32-workspace\AT32F403ACGU7_clone_windows_desktop_virtual_com_port\Release/../firmware/at32f403a_407_tmr.c:536
      tmr_x->c2dt = tmr_channel_value;
 80020cc:	6382      	str	r2, [r0, #56]	; 0x38
F:\AT32-workspace\AT32F403ACGU7_clone_windows_desktop_virtual_com_port\Release/../firmware/at32f403a_407_tmr.c:537
      break;
 80020ce:	4770      	bx	lr
F:\AT32-workspace\AT32F403ACGU7_clone_windows_desktop_virtual_com_port\Release/../firmware/at32f403a_407_tmr.c:532
      tmr_x->c1dt = tmr_channel_value;
 80020d0:	6342      	str	r2, [r0, #52]	; 0x34
F:\AT32-workspace\AT32F403ACGU7_clone_windows_desktop_virtual_com_port\Release/../firmware/at32f403a_407_tmr.c:533
      break;
 80020d2:	4770      	bx	lr

080020d4 <tmr_output_enable>:
tmr_output_enable():
F:\AT32-workspace\AT32F403ACGU7_clone_windows_desktop_virtual_com_port\Release/../firmware/at32f403a_407_tmr.c:1444
  * @param  new_state (TRUE or FALSE)
  * @retval none
  */
void tmr_output_enable(tmr_type *tmr_x, confirm_state new_state)
{
  tmr_x->brk_bit.oen = new_state;
 80020d4:	6c43      	ldr	r3, [r0, #68]	; 0x44
 80020d6:	f361 33cf 	bfi	r3, r1, #15, #1
 80020da:	6443      	str	r3, [r0, #68]	; 0x44
F:\AT32-workspace\AT32F403ACGU7_clone_windows_desktop_virtual_com_port\Release/../firmware/at32f403a_407_tmr.c:1445
}
 80020dc:	4770      	bx	lr
 80020de:	bf00      	nop

080020e0 <usb_dev_init>:
usb_dev_init():
F:\AT32-workspace\AT32F403ACGU7_clone_windows_desktop_virtual_com_port\Release/../firmware/at32f403a_407_usb.c:59
  * @retval none
  */
void usb_dev_init(usbd_type *usbx)
{
  /* clear usb core reset */
  usbx->ctrl_bit.csrst = 0;
 80020e0:	6c02      	ldr	r2, [r0, #64]	; 0x40
F:\AT32-workspace\AT32F403ACGU7_clone_windows_desktop_virtual_com_port\Release/../firmware/at32f403a_407_usb.c:62

  /* clear usb interrupt status */
  usbx->intsts = 0;
 80020e2:	2300      	movs	r3, #0
F:\AT32-workspace\AT32F403ACGU7_clone_windows_desktop_virtual_com_port\Release/../firmware/at32f403a_407_usb.c:68

  /* set usb packet buffer descirption table address */
  usbx->buftbl = USB_BUFFER_TABLE_ADDRESS;

  /* enable usb core and set device address to 0 */
  usbx->devaddr = 0x80;
 80020e4:	2180      	movs	r1, #128	; 0x80
F:\AT32-workspace\AT32F403ACGU7_clone_windows_desktop_virtual_com_port\Release/../firmware/at32f403a_407_usb.c:59
  usbx->ctrl_bit.csrst = 0;
 80020e6:	f36f 0200 	bfc	r2, #0, #1
 80020ea:	6402      	str	r2, [r0, #64]	; 0x40
F:\AT32-workspace\AT32F403ACGU7_clone_windows_desktop_virtual_com_port\Release/../firmware/at32f403a_407_usb.c:62
  usbx->intsts = 0;
 80020ec:	6443      	str	r3, [r0, #68]	; 0x44
F:\AT32-workspace\AT32F403ACGU7_clone_windows_desktop_virtual_com_port\Release/../firmware/at32f403a_407_usb.c:65
  usbx->buftbl = USB_BUFFER_TABLE_ADDRESS;
 80020ee:	6503      	str	r3, [r0, #80]	; 0x50
F:\AT32-workspace\AT32F403ACGU7_clone_windows_desktop_virtual_com_port\Release/../firmware/at32f403a_407_usb.c:68
  usbx->devaddr = 0x80;
 80020f0:	64c1      	str	r1, [r0, #76]	; 0x4c
usb_interrupt_enable():
F:\AT32-workspace\AT32F403ACGU7_clone_windows_desktop_virtual_com_port\Release/../firmware/at32f403a_407_usb.c:387
  */
void usb_interrupt_enable(usbd_type *usbx, uint16_t interrupt, confirm_state new_state)
{
  if(new_state == TRUE)
  {
    usbx->ctrl |= interrupt;
 80020f2:	6c03      	ldr	r3, [r0, #64]	; 0x40
 80020f4:	f443 431e 	orr.w	r3, r3, #40448	; 0x9e00
 80020f8:	6403      	str	r3, [r0, #64]	; 0x40
usb_dev_init():
F:\AT32-workspace\AT32F403ACGU7_clone_windows_desktop_virtual_com_port\Release/../firmware/at32f403a_407_usb.c:71
}
 80020fa:	4770      	bx	lr

080020fc <usb_connect>:
usb_connect():
F:\AT32-workspace\AT32F403ACGU7_clone_windows_desktop_virtual_com_port\Release/../firmware/at32f403a_407_usb.c:82
  usbx->ctrl_bit.disusb = 0;
 80020fc:	6c03      	ldr	r3, [r0, #64]	; 0x40
 80020fe:	f36f 0341 	bfc	r3, #1, #1
 8002102:	6403      	str	r3, [r0, #64]	; 0x40
F:\AT32-workspace\AT32F403ACGU7_clone_windows_desktop_virtual_com_port\Release/../firmware/at32f403a_407_usb.c:85
  usbx->cfg_bit.puo = 0;
 8002104:	6e03      	ldr	r3, [r0, #96]	; 0x60
 8002106:	f36f 0341 	bfc	r3, #1, #1
 800210a:	6603      	str	r3, [r0, #96]	; 0x60
F:\AT32-workspace\AT32F403ACGU7_clone_windows_desktop_virtual_com_port\Release/../firmware/at32f403a_407_usb.c:86
}
 800210c:	4770      	bx	lr
 800210e:	bf00      	nop

08002110 <usb_ept_open>:
usb_ept_open():
F:\AT32-workspace\AT32F403ACGU7_clone_windows_desktop_virtual_com_port\Release/../firmware/at32f403a_407_usb.c:144
{
 8002110:	e92d 41f0 	stmdb	sp!, {r4, r5, r6, r7, r8, lr}
F:\AT32-workspace\AT32F403ACGU7_clone_windows_desktop_virtual_com_port\Release/../firmware/at32f403a_407_usb.c:148
  USB_SET_EPT_ADDRESS(ept_info->eptn, ept_info->ept_address);
 8002114:	7808      	ldrb	r0, [r1, #0]
 8002116:	0083      	lsls	r3, r0, #2
 8002118:	f103 4380 	add.w	r3, r3, #1073741824	; 0x40000000
 800211c:	f503 43b8 	add.w	r3, r3, #23552	; 0x5c00
 8002120:	f648 7c80 	movw	ip, #36736	; 0x8f80
 8002124:	681a      	ldr	r2, [r3, #0]
 8002126:	ea02 020c 	and.w	r2, r2, ip
 800212a:	f891 c001 	ldrb.w	ip, [r1, #1]
 800212e:	ea42 020c 	orr.w	r2, r2, ip
 8002132:	601a      	str	r2, [r3, #0]
F:\AT32-workspace\AT32F403ACGU7_clone_windows_desktop_virtual_com_port\Release/../firmware/at32f403a_407_usb.c:151
  if(ept_info->trans_type == EPT_CONTROL_TYPE)
 8002134:	78ca      	ldrb	r2, [r1, #3]
 8002136:	2a00      	cmp	r2, #0
 8002138:	d14b      	bne.n	80021d2 <usb_ept_open+0xc2>
F:\AT32-workspace\AT32F403ACGU7_clone_windows_desktop_virtual_com_port\Release/../firmware/at32f403a_407_usb.c:175
      if(ept_info->is_double_buffer == 0)
 800213a:	7a8c      	ldrb	r4, [r1, #10]
 800213c:	f44f 7c00 	mov.w	ip, #512	; 0x200
F:\AT32-workspace\AT32F403ACGU7_clone_windows_desktop_virtual_com_port\Release/../firmware/at32f403a_407_usb.c:170
  USB_SET_TRANS_TYPE(ept_info->eptn, type);
 8002140:	681a      	ldr	r2, [r3, #0]
 8002142:	f648 1e8f 	movw	lr, #35215	; 0x898f
 8002146:	ea02 020e 	and.w	r2, r2, lr
 800214a:	ea42 020c 	orr.w	r2, r2, ip
 800214e:	601a      	str	r2, [r3, #0]
F:\AT32-workspace\AT32F403ACGU7_clone_windows_desktop_virtual_com_port\Release/../firmware/at32f403a_407_usb.c:173
  if(ept_info->inout == DATA_TRANS_IN)
 8002150:	788a      	ldrb	r2, [r1, #2]
 8002152:	2a01      	cmp	r2, #1
 8002154:	f000 80d1 	beq.w	80022fa <usb_ept_open+0x1ea>
F:\AT32-workspace\AT32F403ACGU7_clone_windows_desktop_virtual_com_port\Release/../firmware/at32f403a_407_usb.c:211
    if(ept_info->is_double_buffer == 0)
 8002158:	2c00      	cmp	r4, #0
 800215a:	d152      	bne.n	8002202 <usb_ept_open+0xf2>
F:\AT32-workspace\AT32F403ACGU7_clone_windows_desktop_virtual_com_port\Release/../firmware/at32f403a_407_usb.c:214
      USB_SET_RX_ADDRESS(ept_info->eptn, ept_info->rx_addr);
 800215c:	4cb3      	ldr	r4, [pc, #716]	; (800242c <usb_ept_open+0x31c>)
 800215e:	4eb4      	ldr	r6, [pc, #720]	; (8002430 <usb_ept_open+0x320>)
 8002160:	6d22      	ldr	r2, [r4, #80]	; 0x50
 8002162:	88cf      	ldrh	r7, [r1, #6]
 8002164:	f102 0c04 	add.w	ip, r2, #4
 8002168:	2208      	movs	r2, #8
 800216a:	fb12 cc00 	smlabb	ip, r2, r0, ip
 800216e:	fb10 f502 	smulbb	r5, r0, r2
 8002172:	6832      	ldr	r2, [r6, #0]
 8002174:	f842 701c 	str.w	r7, [r2, ip, lsl #1]
F:\AT32-workspace\AT32F403ACGU7_clone_windows_desktop_virtual_com_port\Release/../firmware/at32f403a_407_usb.c:217
      USB_CLEAR_RXDTS(ept_info->eptn);
 8002178:	f854 2020 	ldr.w	r2, [r4, r0, lsl #2]
 800217c:	0457      	lsls	r7, r2, #17
 800217e:	d508      	bpl.n	8002192 <usb_ept_open+0x82>
F:\AT32-workspace\AT32F403ACGU7_clone_windows_desktop_virtual_com_port\Release/../firmware/at32f403a_407_usb.c:217 (discriminator 1)
 8002180:	6818      	ldr	r0, [r3, #0]
 8002182:	f640 720f 	movw	r2, #3855	; 0xf0f
 8002186:	4010      	ands	r0, r2
 8002188:	f440 4040 	orr.w	r0, r0, #49152	; 0xc000
 800218c:	f040 0080 	orr.w	r0, r0, #128	; 0x80
 8002190:	6018      	str	r0, [r3, #0]
F:\AT32-workspace\AT32F403ACGU7_clone_windows_desktop_virtual_com_port\Release/../firmware/at32f403a_407_usb.c:220 (discriminator 3)
      USB_SET_RXLEN(ept_info->eptn, ept_info->maxpacket);
 8002192:	4aa6      	ldr	r2, [pc, #664]	; (800242c <usb_ept_open+0x31c>)
 8002194:	8909      	ldrh	r1, [r1, #8]
 8002196:	6d12      	ldr	r2, [r2, #80]	; 0x50
 8002198:	6834      	ldr	r4, [r6, #0]
 800219a:	3206      	adds	r2, #6
 800219c:	293e      	cmp	r1, #62	; 0x3e
 800219e:	442a      	add	r2, r5
 80021a0:	f200 80d2 	bhi.w	8002348 <usb_ept_open+0x238>
F:\AT32-workspace\AT32F403ACGU7_clone_windows_desktop_virtual_com_port\Release/../firmware/at32f403a_407_usb.c:220 (discriminator 2)
 80021a4:	0848      	lsrs	r0, r1, #1
 80021a6:	07cd      	lsls	r5, r1, #31
 80021a8:	bf58      	it	pl
 80021aa:	3001      	addpl	r0, #1
 80021ac:	0280      	lsls	r0, r0, #10
 80021ae:	b280      	uxth	r0, r0
 80021b0:	f844 0012 	str.w	r0, [r4, r2, lsl #1]
F:\AT32-workspace\AT32F403ACGU7_clone_windows_desktop_virtual_com_port\Release/../firmware/at32f403a_407_usb.c:223 (discriminator 10)
      USB_SET_RXSTS(ept_info->eptn, USB_RX_VALID);
 80021b4:	681a      	ldr	r2, [r3, #0]
 80021b6:	f422 4280 	bic.w	r2, r2, #16384	; 0x4000
 80021ba:	f022 0270 	bic.w	r2, r2, #112	; 0x70
 80021be:	b292      	uxth	r2, r2
 80021c0:	f482 5240 	eor.w	r2, r2, #12288	; 0x3000
 80021c4:	f442 4200 	orr.w	r2, r2, #32768	; 0x8000
 80021c8:	f042 0280 	orr.w	r2, r2, #128	; 0x80
 80021cc:	601a      	str	r2, [r3, #0]
F:\AT32-workspace\AT32F403ACGU7_clone_windows_desktop_virtual_com_port\Release/../firmware/at32f403a_407_usb.c:252 (discriminator 10)
}
 80021ce:	e8bd 81f0 	ldmia.w	sp!, {r4, r5, r6, r7, r8, pc}
F:\AT32-workspace\AT32F403ACGU7_clone_windows_desktop_virtual_com_port\Release/../firmware/at32f403a_407_usb.c:155
  else if(ept_info->trans_type == EPT_BULK_TYPE)
 80021d2:	2a01      	cmp	r2, #1
 80021d4:	d004      	beq.n	80021e0 <usb_ept_open+0xd0>
F:\AT32-workspace\AT32F403ACGU7_clone_windows_desktop_virtual_com_port\Release/../firmware/at32f403a_407_usb.c:159
  else if(ept_info->trans_type == EPT_INT_TYPE)
 80021d6:	2a02      	cmp	r2, #2
 80021d8:	f000 8123 	beq.w	8002422 <usb_ept_open+0x312>
F:\AT32-workspace\AT32F403ACGU7_clone_windows_desktop_virtual_com_port\Release/../firmware/at32f403a_407_usb.c:163
  else if(ept_info->trans_type == EPT_ISO_TYPE)
 80021dc:	2a03      	cmp	r2, #3
 80021de:	d003      	beq.n	80021e8 <usb_ept_open+0xd8>
F:\AT32-workspace\AT32F403ACGU7_clone_windows_desktop_virtual_com_port\Release/../firmware/at32f403a_407_usb.c:175
      if(ept_info->is_double_buffer == 0)
 80021e0:	7a8c      	ldrb	r4, [r1, #10]
 80021e2:	f04f 0c00 	mov.w	ip, #0
 80021e6:	e7ab      	b.n	8002140 <usb_ept_open+0x30>
F:\AT32-workspace\AT32F403ACGU7_clone_windows_desktop_virtual_com_port\Release/../firmware/at32f403a_407_usb.c:166
    ept_info->is_double_buffer = TRUE;
 80021e8:	2201      	movs	r2, #1
 80021ea:	728a      	strb	r2, [r1, #10]
F:\AT32-workspace\AT32F403ACGU7_clone_windows_desktop_virtual_com_port\Release/../firmware/at32f403a_407_usb.c:170
  USB_SET_TRANS_TYPE(ept_info->eptn, type);
 80021ec:	681a      	ldr	r2, [r3, #0]
 80021ee:	f648 148f 	movw	r4, #35215	; 0x898f
 80021f2:	4022      	ands	r2, r4
 80021f4:	f442 6280 	orr.w	r2, r2, #1024	; 0x400
 80021f8:	601a      	str	r2, [r3, #0]
F:\AT32-workspace\AT32F403ACGU7_clone_windows_desktop_virtual_com_port\Release/../firmware/at32f403a_407_usb.c:173
  if(ept_info->inout == DATA_TRANS_IN)
 80021fa:	788a      	ldrb	r2, [r1, #2]
 80021fc:	2a01      	cmp	r2, #1
 80021fe:	f000 80ba 	beq.w	8002376 <usb_ept_open+0x266>
F:\AT32-workspace\AT32F403ACGU7_clone_windows_desktop_virtual_com_port\Release/../firmware/at32f403a_407_usb.c:228
      USB_SET_EPT_DOUBLE_BUFFER(ept_info->eptn);
 8002202:	681a      	ldr	r2, [r3, #0]
F:\AT32-workspace\AT32F403ACGU7_clone_windows_desktop_virtual_com_port\Release/../firmware/at32f403a_407_usb.c:231
      USB_SET_DOUBLE_BUFF0_ADDRESS(ept_info->eptn, ept_info->tx_addr);
 8002204:	f8df 8224 	ldr.w	r8, [pc, #548]	; 800242c <usb_ept_open+0x31c>
 8002208:	4d89      	ldr	r5, [pc, #548]	; (8002430 <usb_ept_open+0x320>)
 800220a:	888f      	ldrh	r7, [r1, #4]
 800220c:	682e      	ldr	r6, [r5, #0]
F:\AT32-workspace\AT32F403ACGU7_clone_windows_desktop_virtual_com_port\Release/../firmware/at32f403a_407_usb.c:235
      USB_SET_EPT_DOUBLE_BUF0_LEN(ept_info->eptn, ept_info->maxpacket, DATA_TRANS_OUT);
 800220e:	f8b1 c008 	ldrh.w	ip, [r1, #8]
F:\AT32-workspace\AT32F403ACGU7_clone_windows_desktop_virtual_com_port\Release/../firmware/at32f403a_407_usb.c:228
      USB_SET_EPT_DOUBLE_BUFFER(ept_info->eptn);
 8002212:	f640 640f 	movw	r4, #3599	; 0xe0f
 8002216:	4022      	ands	r2, r4
 8002218:	f442 4201 	orr.w	r2, r2, #33024	; 0x8100
 800221c:	f042 0280 	orr.w	r2, r2, #128	; 0x80
 8002220:	601a      	str	r2, [r3, #0]
F:\AT32-workspace\AT32F403ACGU7_clone_windows_desktop_virtual_com_port\Release/../firmware/at32f403a_407_usb.c:231
      USB_SET_DOUBLE_BUFF0_ADDRESS(ept_info->eptn, ept_info->tx_addr);
 8002222:	f8d8 2050 	ldr.w	r2, [r8, #80]	; 0x50
 8002226:	2408      	movs	r4, #8
 8002228:	fb14 2200 	smlabb	r2, r4, r0, r2
F:\AT32-workspace\AT32F403ACGU7_clone_windows_desktop_virtual_com_port\Release/../firmware/at32f403a_407_usb.c:235
      USB_SET_EPT_DOUBLE_BUF0_LEN(ept_info->eptn, ept_info->maxpacket, DATA_TRANS_OUT);
 800222c:	f1bc 0f3e 	cmp.w	ip, #62	; 0x3e
F:\AT32-workspace\AT32F403ACGU7_clone_windows_desktop_virtual_com_port\Release/../firmware/at32f403a_407_usb.c:231
      USB_SET_DOUBLE_BUFF0_ADDRESS(ept_info->eptn, ept_info->tx_addr);
 8002230:	f846 7012 	str.w	r7, [r6, r2, lsl #1]
F:\AT32-workspace\AT32F403ACGU7_clone_windows_desktop_virtual_com_port\Release/../firmware/at32f403a_407_usb.c:232
      USB_SET_DOUBLE_BUFF1_ADDRESS(ept_info->eptn, ept_info->rx_addr);
 8002234:	f8d8 2050 	ldr.w	r2, [r8, #80]	; 0x50
 8002238:	88cf      	ldrh	r7, [r1, #6]
 800223a:	6829      	ldr	r1, [r5, #0]
 800223c:	f102 0204 	add.w	r2, r2, #4
 8002240:	fb14 2200 	smlabb	r2, r4, r0, r2
F:\AT32-workspace\AT32F403ACGU7_clone_windows_desktop_virtual_com_port\Release/../firmware/at32f403a_407_usb.c:231
      USB_SET_DOUBLE_BUFF0_ADDRESS(ept_info->eptn, ept_info->tx_addr);
 8002244:	fb10 fe04 	smulbb	lr, r0, r4
F:\AT32-workspace\AT32F403ACGU7_clone_windows_desktop_virtual_com_port\Release/../firmware/at32f403a_407_usb.c:232
      USB_SET_DOUBLE_BUFF1_ADDRESS(ept_info->eptn, ept_info->rx_addr);
 8002248:	f841 7012 	str.w	r7, [r1, r2, lsl #1]
F:\AT32-workspace\AT32F403ACGU7_clone_windows_desktop_virtual_com_port\Release/../firmware/at32f403a_407_usb.c:235
      USB_SET_EPT_DOUBLE_BUF0_LEN(ept_info->eptn, ept_info->maxpacket, DATA_TRANS_OUT);
 800224c:	f8d8 2050 	ldr.w	r2, [r8, #80]	; 0x50
 8002250:	f102 0202 	add.w	r2, r2, #2
 8002254:	fb14 2200 	smlabb	r2, r4, r0, r2
 8002258:	682c      	ldr	r4, [r5, #0]
 800225a:	f200 8082 	bhi.w	8002362 <usb_ept_open+0x252>
F:\AT32-workspace\AT32F403ACGU7_clone_windows_desktop_virtual_com_port\Release/../firmware/at32f403a_407_usb.c:235 (discriminator 4)
 800225e:	f01c 0f01 	tst.w	ip, #1
 8002262:	ea4f 015c 	mov.w	r1, ip, lsr #1
 8002266:	d100      	bne.n	800226a <usb_ept_open+0x15a>
F:\AT32-workspace\AT32F403ACGU7_clone_windows_desktop_virtual_com_port\Release/../firmware/at32f403a_407_usb.c:235 (discriminator 9)
 8002268:	3101      	adds	r1, #1
F:\AT32-workspace\AT32F403ACGU7_clone_windows_desktop_virtual_com_port\Release/../firmware/at32f403a_407_usb.c:235
 800226a:	0289      	lsls	r1, r1, #10
 800226c:	b289      	uxth	r1, r1
 800226e:	f844 1012 	str.w	r1, [r4, r2, lsl #1]
F:\AT32-workspace\AT32F403ACGU7_clone_windows_desktop_virtual_com_port\Release/../firmware/at32f403a_407_usb.c:236
      USB_SET_EPT_DOUBLE_BUF1_LEN(ept_info->eptn, ept_info->maxpacket, DATA_TRANS_OUT);
 8002272:	f8d8 4050 	ldr.w	r4, [r8, #80]	; 0x50
 8002276:	682a      	ldr	r2, [r5, #0]
 8002278:	3406      	adds	r4, #6
 800227a:	44a6      	add	lr, r4
 800227c:	eb02 0e4e 	add.w	lr, r2, lr, lsl #1
F:\AT32-workspace\AT32F403ACGU7_clone_windows_desktop_virtual_com_port\Release/../firmware/at32f403a_407_usb.c:239
      USB_CLEAR_TXDTS(ept_info->eptn);
 8002280:	4a6a      	ldr	r2, [pc, #424]	; (800242c <usb_ept_open+0x31c>)
F:\AT32-workspace\AT32F403ACGU7_clone_windows_desktop_virtual_com_port\Release/../firmware/at32f403a_407_usb.c:236
      USB_SET_EPT_DOUBLE_BUF1_LEN(ept_info->eptn, ept_info->maxpacket, DATA_TRANS_OUT);
 8002282:	f8ce 1000 	str.w	r1, [lr]
F:\AT32-workspace\AT32F403ACGU7_clone_windows_desktop_virtual_com_port\Release/../firmware/at32f403a_407_usb.c:239
      USB_CLEAR_TXDTS(ept_info->eptn);
 8002286:	f852 2020 	ldr.w	r2, [r2, r0, lsl #2]
 800228a:	0651      	lsls	r1, r2, #25
 800228c:	d508      	bpl.n	80022a0 <usb_ept_open+0x190>
F:\AT32-workspace\AT32F403ACGU7_clone_windows_desktop_virtual_com_port\Release/../firmware/at32f403a_407_usb.c:239 (discriminator 1)
 800228e:	681a      	ldr	r2, [r3, #0]
 8002290:	f640 710f 	movw	r1, #3855	; 0xf0f
 8002294:	400a      	ands	r2, r1
 8002296:	f442 4200 	orr.w	r2, r2, #32768	; 0x8000
 800229a:	f042 02c0 	orr.w	r2, r2, #192	; 0xc0
 800229e:	601a      	str	r2, [r3, #0]
F:\AT32-workspace\AT32F403ACGU7_clone_windows_desktop_virtual_com_port\Release/../firmware/at32f403a_407_usb.c:240 (discriminator 3)
      USB_CLEAR_RXDTS(ept_info->eptn);
 80022a0:	4a62      	ldr	r2, [pc, #392]	; (800242c <usb_ept_open+0x31c>)
 80022a2:	f852 2020 	ldr.w	r2, [r2, r0, lsl #2]
 80022a6:	0452      	lsls	r2, r2, #17
 80022a8:	d508      	bpl.n	80022bc <usb_ept_open+0x1ac>
F:\AT32-workspace\AT32F403ACGU7_clone_windows_desktop_virtual_com_port\Release/../firmware/at32f403a_407_usb.c:240 (discriminator 1)
 80022aa:	681a      	ldr	r2, [r3, #0]
 80022ac:	f640 710f 	movw	r1, #3855	; 0xf0f
 80022b0:	400a      	ands	r2, r1
 80022b2:	f442 4240 	orr.w	r2, r2, #49152	; 0xc000
 80022b6:	f042 0280 	orr.w	r2, r2, #128	; 0x80
 80022ba:	601a      	str	r2, [r3, #0]
F:\AT32-workspace\AT32F403ACGU7_clone_windows_desktop_virtual_com_port\Release/../firmware/at32f403a_407_usb.c:243 (discriminator 3)
      USB_TOGGLE_TXDTS(ept_info->eptn);
 80022bc:	681a      	ldr	r2, [r3, #0]
 80022be:	f640 710f 	movw	r1, #3855	; 0xf0f
 80022c2:	400a      	ands	r2, r1
 80022c4:	f442 4200 	orr.w	r2, r2, #32768	; 0x8000
 80022c8:	f042 02c0 	orr.w	r2, r2, #192	; 0xc0
 80022cc:	601a      	str	r2, [r3, #0]
F:\AT32-workspace\AT32F403ACGU7_clone_windows_desktop_virtual_com_port\Release/../firmware/at32f403a_407_usb.c:246 (discriminator 3)
      USB_SET_RXSTS(ept_info->eptn, USB_RX_VALID);
 80022ce:	681a      	ldr	r2, [r3, #0]
 80022d0:	f422 4280 	bic.w	r2, r2, #16384	; 0x4000
 80022d4:	f022 0270 	bic.w	r2, r2, #112	; 0x70
 80022d8:	b292      	uxth	r2, r2
 80022da:	f248 0180 	movw	r1, #32896	; 0x8080
 80022de:	f482 5240 	eor.w	r2, r2, #12288	; 0x3000
 80022e2:	430a      	orrs	r2, r1
 80022e4:	601a      	str	r2, [r3, #0]
F:\AT32-workspace\AT32F403ACGU7_clone_windows_desktop_virtual_com_port\Release/../firmware/at32f403a_407_usb.c:249 (discriminator 3)
      USB_SET_TXSTS(ept_info->eptn, USB_TX_DISABLE);
 80022e6:	681a      	ldr	r2, [r3, #0]
 80022e8:	f422 42e0 	bic.w	r2, r2, #28672	; 0x7000
 80022ec:	f022 0240 	bic.w	r2, r2, #64	; 0x40
 80022f0:	4311      	orrs	r1, r2
 80022f2:	b289      	uxth	r1, r1
 80022f4:	6019      	str	r1, [r3, #0]
F:\AT32-workspace\AT32F403ACGU7_clone_windows_desktop_virtual_com_port\Release/../firmware/at32f403a_407_usb.c:252 (discriminator 3)
}
 80022f6:	e8bd 81f0 	ldmia.w	sp!, {r4, r5, r6, r7, r8, pc}
F:\AT32-workspace\AT32F403ACGU7_clone_windows_desktop_virtual_com_port\Release/../firmware/at32f403a_407_usb.c:175
      if(ept_info->is_double_buffer == 0)
 80022fa:	2c00      	cmp	r4, #0
 80022fc:	d13b      	bne.n	8002376 <usb_ept_open+0x266>
F:\AT32-workspace\AT32F403ACGU7_clone_windows_desktop_virtual_com_port\Release/../firmware/at32f403a_407_usb.c:178
        USB_SET_TX_ADDRESS(ept_info->eptn, ept_info->tx_addr);
 80022fe:	4c4b      	ldr	r4, [pc, #300]	; (800242c <usb_ept_open+0x31c>)
 8002300:	888d      	ldrh	r5, [r1, #4]
 8002302:	6d22      	ldr	r2, [r4, #80]	; 0x50
 8002304:	494a      	ldr	r1, [pc, #296]	; (8002430 <usb_ept_open+0x320>)
 8002306:	eb02 02c0 	add.w	r2, r2, r0, lsl #3
 800230a:	6809      	ldr	r1, [r1, #0]
 800230c:	f841 5012 	str.w	r5, [r1, r2, lsl #1]
F:\AT32-workspace\AT32F403ACGU7_clone_windows_desktop_virtual_com_port\Release/../firmware/at32f403a_407_usb.c:181
        USB_CLEAR_TXDTS(ept_info->eptn);
 8002310:	f854 2020 	ldr.w	r2, [r4, r0, lsl #2]
 8002314:	0650      	lsls	r0, r2, #25
 8002316:	d508      	bpl.n	800232a <usb_ept_open+0x21a>
F:\AT32-workspace\AT32F403ACGU7_clone_windows_desktop_virtual_com_port\Release/../firmware/at32f403a_407_usb.c:181 (discriminator 1)
 8002318:	681a      	ldr	r2, [r3, #0]
 800231a:	f640 710f 	movw	r1, #3855	; 0xf0f
 800231e:	400a      	ands	r2, r1
 8002320:	f442 4200 	orr.w	r2, r2, #32768	; 0x8000
 8002324:	f042 02c0 	orr.w	r2, r2, #192	; 0xc0
 8002328:	601a      	str	r2, [r3, #0]
F:\AT32-workspace\AT32F403ACGU7_clone_windows_desktop_virtual_com_port\Release/../firmware/at32f403a_407_usb.c:184 (discriminator 3)
        USB_SET_TXSTS(ept_info->eptn, USB_TX_NAK);
 800232a:	681a      	ldr	r2, [r3, #0]
 800232c:	f422 42e0 	bic.w	r2, r2, #28672	; 0x7000
 8002330:	f022 0240 	bic.w	r2, r2, #64	; 0x40
 8002334:	b292      	uxth	r2, r2
 8002336:	f082 0220 	eor.w	r2, r2, #32
 800233a:	f442 4200 	orr.w	r2, r2, #32768	; 0x8000
 800233e:	f042 0280 	orr.w	r2, r2, #128	; 0x80
 8002342:	601a      	str	r2, [r3, #0]
F:\AT32-workspace\AT32F403ACGU7_clone_windows_desktop_virtual_com_port\Release/../firmware/at32f403a_407_usb.c:252 (discriminator 3)
}
 8002344:	e8bd 81f0 	ldmia.w	sp!, {r4, r5, r6, r7, r8, pc}
F:\AT32-workspace\AT32F403ACGU7_clone_windows_desktop_virtual_com_port\Release/../firmware/at32f403a_407_usb.c:220 (discriminator 1)
      USB_SET_RXLEN(ept_info->eptn, ept_info->maxpacket);
 8002348:	0948      	lsrs	r0, r1, #5
 800234a:	06ce      	lsls	r6, r1, #27
 800234c:	bf04      	itt	eq
 800234e:	f100 31ff 	addeq.w	r1, r0, #4294967295
 8002352:	b288      	uxtheq	r0, r1
 8002354:	4937      	ldr	r1, [pc, #220]	; (8002434 <usb_ept_open+0x324>)
 8002356:	ea41 2180 	orr.w	r1, r1, r0, lsl #10
 800235a:	b289      	uxth	r1, r1
 800235c:	f844 1012 	str.w	r1, [r4, r2, lsl #1]
 8002360:	e728      	b.n	80021b4 <usb_ept_open+0xa4>
F:\AT32-workspace\AT32F403ACGU7_clone_windows_desktop_virtual_com_port\Release/../firmware/at32f403a_407_usb.c:235 (discriminator 3)
      USB_SET_EPT_DOUBLE_BUF0_LEN(ept_info->eptn, ept_info->maxpacket, DATA_TRANS_OUT);
 8002362:	f01c 0f1f 	tst.w	ip, #31
 8002366:	ea4f 115c 	mov.w	r1, ip, lsr #5
 800236a:	d100      	bne.n	800236e <usb_ept_open+0x25e>
F:\AT32-workspace\AT32F403ACGU7_clone_windows_desktop_virtual_com_port\Release/../firmware/at32f403a_407_usb.c:235 (discriminator 5)
 800236c:	3901      	subs	r1, #1
F:\AT32-workspace\AT32F403ACGU7_clone_windows_desktop_virtual_com_port\Release/../firmware/at32f403a_407_usb.c:235
 800236e:	4f31      	ldr	r7, [pc, #196]	; (8002434 <usb_ept_open+0x324>)
 8002370:	ea47 2181 	orr.w	r1, r7, r1, lsl #10
 8002374:	e77a      	b.n	800226c <usb_ept_open+0x15c>
F:\AT32-workspace\AT32F403ACGU7_clone_windows_desktop_virtual_com_port\Release/../firmware/at32f403a_407_usb.c:189
        USB_SET_EPT_DOUBLE_BUFFER(ept_info->eptn);
 8002376:	681a      	ldr	r2, [r3, #0]
F:\AT32-workspace\AT32F403ACGU7_clone_windows_desktop_virtual_com_port\Release/../firmware/at32f403a_407_usb.c:192
        USB_SET_DOUBLE_BUFF0_ADDRESS(ept_info->eptn, ept_info->tx_addr);
 8002378:	4e2d      	ldr	r6, [pc, #180]	; (8002430 <usb_ept_open+0x320>)
 800237a:	888f      	ldrh	r7, [r1, #4]
F:\AT32-workspace\AT32F403ACGU7_clone_windows_desktop_virtual_com_port\Release/../firmware/at32f403a_407_usb.c:189
        USB_SET_EPT_DOUBLE_BUFFER(ept_info->eptn);
 800237c:	f640 640f 	movw	r4, #3599	; 0xe0f
 8002380:	4022      	ands	r2, r4
 8002382:	f442 4201 	orr.w	r2, r2, #33024	; 0x8100
F:\AT32-workspace\AT32F403ACGU7_clone_windows_desktop_virtual_com_port\Release/../firmware/at32f403a_407_usb.c:192
        USB_SET_DOUBLE_BUFF0_ADDRESS(ept_info->eptn, ept_info->tx_addr);
 8002386:	4c29      	ldr	r4, [pc, #164]	; (800242c <usb_ept_open+0x31c>)
F:\AT32-workspace\AT32F403ACGU7_clone_windows_desktop_virtual_com_port\Release/../firmware/at32f403a_407_usb.c:189
        USB_SET_EPT_DOUBLE_BUFFER(ept_info->eptn);
 8002388:	f042 0280 	orr.w	r2, r2, #128	; 0x80
 800238c:	601a      	str	r2, [r3, #0]
F:\AT32-workspace\AT32F403ACGU7_clone_windows_desktop_virtual_com_port\Release/../firmware/at32f403a_407_usb.c:192
        USB_SET_DOUBLE_BUFF0_ADDRESS(ept_info->eptn, ept_info->tx_addr);
 800238e:	6d25      	ldr	r5, [r4, #80]	; 0x50
 8002390:	6832      	ldr	r2, [r6, #0]
 8002392:	f04f 0c08 	mov.w	ip, #8
 8002396:	fb1c 5500 	smlabb	r5, ip, r0, r5
 800239a:	f842 7015 	str.w	r7, [r2, r5, lsl #1]
F:\AT32-workspace\AT32F403ACGU7_clone_windows_desktop_virtual_com_port\Release/../firmware/at32f403a_407_usb.c:193
        USB_SET_DOUBLE_BUFF1_ADDRESS(ept_info->eptn, ept_info->rx_addr);
 800239e:	88cf      	ldrh	r7, [r1, #6]
 80023a0:	6d21      	ldr	r1, [r4, #80]	; 0x50
 80023a2:	6835      	ldr	r5, [r6, #0]
 80023a4:	3104      	adds	r1, #4
 80023a6:	fb1c 1200 	smlabb	r2, ip, r0, r1
 80023aa:	f845 7012 	str.w	r7, [r5, r2, lsl #1]
F:\AT32-workspace\AT32F403ACGU7_clone_windows_desktop_virtual_com_port\Release/../firmware/at32f403a_407_usb.c:196
        USB_CLEAR_TXDTS(ept_info->eptn);
 80023ae:	f854 2020 	ldr.w	r2, [r4, r0, lsl #2]
 80023b2:	0651      	lsls	r1, r2, #25
 80023b4:	d508      	bpl.n	80023c8 <usb_ept_open+0x2b8>
F:\AT32-workspace\AT32F403ACGU7_clone_windows_desktop_virtual_com_port\Release/../firmware/at32f403a_407_usb.c:196 (discriminator 1)
 80023b6:	681a      	ldr	r2, [r3, #0]
 80023b8:	f640 710f 	movw	r1, #3855	; 0xf0f
 80023bc:	400a      	ands	r2, r1
 80023be:	f442 4200 	orr.w	r2, r2, #32768	; 0x8000
 80023c2:	f042 02c0 	orr.w	r2, r2, #192	; 0xc0
 80023c6:	601a      	str	r2, [r3, #0]
F:\AT32-workspace\AT32F403ACGU7_clone_windows_desktop_virtual_com_port\Release/../firmware/at32f403a_407_usb.c:197 (discriminator 3)
        USB_CLEAR_RXDTS(ept_info->eptn);
 80023c8:	4a18      	ldr	r2, [pc, #96]	; (800242c <usb_ept_open+0x31c>)
 80023ca:	f852 2020 	ldr.w	r2, [r2, r0, lsl #2]
 80023ce:	0452      	lsls	r2, r2, #17
 80023d0:	d508      	bpl.n	80023e4 <usb_ept_open+0x2d4>
F:\AT32-workspace\AT32F403ACGU7_clone_windows_desktop_virtual_com_port\Release/../firmware/at32f403a_407_usb.c:197 (discriminator 1)
 80023d2:	681a      	ldr	r2, [r3, #0]
 80023d4:	f640 710f 	movw	r1, #3855	; 0xf0f
 80023d8:	400a      	ands	r2, r1
 80023da:	f442 4240 	orr.w	r2, r2, #49152	; 0xc000
 80023de:	f042 0280 	orr.w	r2, r2, #128	; 0x80
 80023e2:	601a      	str	r2, [r3, #0]
F:\AT32-workspace\AT32F403ACGU7_clone_windows_desktop_virtual_com_port\Release/../firmware/at32f403a_407_usb.c:200 (discriminator 3)
        USB_TOGGLE_RXDTS(ept_info->eptn);
 80023e4:	681a      	ldr	r2, [r3, #0]
 80023e6:	f640 710f 	movw	r1, #3855	; 0xf0f
 80023ea:	400a      	ands	r2, r1
 80023ec:	f442 4240 	orr.w	r2, r2, #49152	; 0xc000
 80023f0:	f042 0280 	orr.w	r2, r2, #128	; 0x80
 80023f4:	601a      	str	r2, [r3, #0]
F:\AT32-workspace\AT32F403ACGU7_clone_windows_desktop_virtual_com_port\Release/../firmware/at32f403a_407_usb.c:203 (discriminator 3)
        USB_SET_RXSTS(ept_info->eptn, USB_RX_DISABLE);
 80023f6:	681a      	ldr	r2, [r3, #0]
 80023f8:	f422 4280 	bic.w	r2, r2, #16384	; 0x4000
 80023fc:	f248 0180 	movw	r1, #32896	; 0x8080
 8002400:	f022 0270 	bic.w	r2, r2, #112	; 0x70
 8002404:	430a      	orrs	r2, r1
 8002406:	b292      	uxth	r2, r2
 8002408:	601a      	str	r2, [r3, #0]
F:\AT32-workspace\AT32F403ACGU7_clone_windows_desktop_virtual_com_port\Release/../firmware/at32f403a_407_usb.c:206 (discriminator 3)
        USB_SET_TXSTS(ept_info->eptn, USB_TX_NAK);
 800240a:	681a      	ldr	r2, [r3, #0]
 800240c:	f422 42e0 	bic.w	r2, r2, #28672	; 0x7000
 8002410:	f022 0240 	bic.w	r2, r2, #64	; 0x40
 8002414:	b292      	uxth	r2, r2
 8002416:	f082 0220 	eor.w	r2, r2, #32
 800241a:	430a      	orrs	r2, r1
 800241c:	601a      	str	r2, [r3, #0]
F:\AT32-workspace\AT32F403ACGU7_clone_windows_desktop_virtual_com_port\Release/../firmware/at32f403a_407_usb.c:252 (discriminator 3)
}
 800241e:	e8bd 81f0 	ldmia.w	sp!, {r4, r5, r6, r7, r8, pc}
F:\AT32-workspace\AT32F403ACGU7_clone_windows_desktop_virtual_com_port\Release/../firmware/at32f403a_407_usb.c:175
      if(ept_info->is_double_buffer == 0)
 8002422:	7a8c      	ldrb	r4, [r1, #10]
 8002424:	f44f 6cc0 	mov.w	ip, #1536	; 0x600
 8002428:	e68a      	b.n	8002140 <usb_ept_open+0x30>
 800242a:	bf00      	nop
 800242c:	40005c00 	.word	0x40005c00
 8002430:	20000004 	.word	0x20000004
 8002434:	ffff8000 	.word	0xffff8000

08002438 <usb_ept_close>:
usb_ept_close():
F:\AT32-workspace\AT32F403ACGU7_clone_windows_desktop_virtual_com_port\Release/../firmware/at32f403a_407_usb.c:264
  if(ept_info->is_double_buffer == 0)
 8002438:	7a8b      	ldrb	r3, [r1, #10]
 800243a:	bb13      	cbnz	r3, 8002482 <usb_ept_close+0x4a>
F:\AT32-workspace\AT32F403ACGU7_clone_windows_desktop_virtual_com_port\Release/../firmware/at32f403a_407_usb.c:266
    if(ept_info->inout == DATA_TRANS_IN)
 800243c:	788b      	ldrb	r3, [r1, #2]
F:\AT32-workspace\AT32F403ACGU7_clone_windows_desktop_virtual_com_port\Release/../firmware/at32f403a_407_usb.c:269
      USB_CLEAR_TXDTS(ept_info->eptn);
 800243e:	780a      	ldrb	r2, [r1, #0]
 8002440:	4944      	ldr	r1, [pc, #272]	; (8002554 <usb_ept_close+0x11c>)
F:\AT32-workspace\AT32F403ACGU7_clone_windows_desktop_virtual_com_port\Release/../firmware/at32f403a_407_usb.c:266
    if(ept_info->inout == DATA_TRANS_IN)
 8002442:	2b01      	cmp	r3, #1
F:\AT32-workspace\AT32F403ACGU7_clone_windows_desktop_virtual_com_port\Release/../firmware/at32f403a_407_usb.c:269
      USB_CLEAR_TXDTS(ept_info->eptn);
 8002444:	f851 3022 	ldr.w	r3, [r1, r2, lsl #2]
F:\AT32-workspace\AT32F403ACGU7_clone_windows_desktop_virtual_com_port\Release/../firmware/at32f403a_407_usb.c:266
    if(ept_info->inout == DATA_TRANS_IN)
 8002448:	d067      	beq.n	800251a <usb_ept_close+0xe2>
F:\AT32-workspace\AT32F403ACGU7_clone_windows_desktop_virtual_com_port\Release/../firmware/at32f403a_407_usb.c:277
      USB_CLEAR_RXDTS(ept_info->eptn);
 800244a:	0458      	lsls	r0, r3, #17
 800244c:	d50a      	bpl.n	8002464 <usb_ept_close+0x2c>
F:\AT32-workspace\AT32F403ACGU7_clone_windows_desktop_virtual_com_port\Release/../firmware/at32f403a_407_usb.c:277 (discriminator 1)
 800244e:	f851 3022 	ldr.w	r3, [r1, r2, lsl #2]
 8002452:	f640 700f 	movw	r0, #3855	; 0xf0f
 8002456:	4003      	ands	r3, r0
 8002458:	f443 4340 	orr.w	r3, r3, #49152	; 0xc000
 800245c:	f043 0380 	orr.w	r3, r3, #128	; 0x80
 8002460:	f841 3022 	str.w	r3, [r1, r2, lsl #2]
F:\AT32-workspace\AT32F403ACGU7_clone_windows_desktop_virtual_com_port\Release/../firmware/at32f403a_407_usb.c:280 (discriminator 3)
      USB_SET_RXSTS(ept_info->eptn, USB_RX_DISABLE);
 8002464:	493b      	ldr	r1, [pc, #236]	; (8002554 <usb_ept_close+0x11c>)
 8002466:	f851 3022 	ldr.w	r3, [r1, r2, lsl #2]
 800246a:	f423 4380 	bic.w	r3, r3, #16384	; 0x4000
 800246e:	f023 0370 	bic.w	r3, r3, #112	; 0x70
 8002472:	f443 4300 	orr.w	r3, r3, #32768	; 0x8000
 8002476:	f043 0380 	orr.w	r3, r3, #128	; 0x80
 800247a:	b29b      	uxth	r3, r3
 800247c:	f841 3022 	str.w	r3, [r1, r2, lsl #2]
 8002480:	4770      	bx	lr
F:\AT32-workspace\AT32F403ACGU7_clone_windows_desktop_virtual_com_port\Release/../firmware/at32f403a_407_usb.c:289
    USB_CLEAR_TXDTS(ept_info->eptn);
 8002482:	780b      	ldrb	r3, [r1, #0]
 8002484:	4833      	ldr	r0, [pc, #204]	; (8002554 <usb_ept_close+0x11c>)
 8002486:	f850 2023 	ldr.w	r2, [r0, r3, lsl #2]
 800248a:	0652      	lsls	r2, r2, #25
 800248c:	d50b      	bpl.n	80024a6 <usb_ept_close+0x6e>
F:\AT32-workspace\AT32F403ACGU7_clone_windows_desktop_virtual_com_port\Release/../firmware/at32f403a_407_usb.c:289 (discriminator 1)
 800248e:	f850 2023 	ldr.w	r2, [r0, r3, lsl #2]
 8002492:	f640 7c0f 	movw	ip, #3855	; 0xf0f
 8002496:	ea02 020c 	and.w	r2, r2, ip
 800249a:	f442 4200 	orr.w	r2, r2, #32768	; 0x8000
 800249e:	f042 02c0 	orr.w	r2, r2, #192	; 0xc0
 80024a2:	f840 2023 	str.w	r2, [r0, r3, lsl #2]
F:\AT32-workspace\AT32F403ACGU7_clone_windows_desktop_virtual_com_port\Release/../firmware/at32f403a_407_usb.c:290 (discriminator 3)
    USB_CLEAR_RXDTS(ept_info->eptn);
 80024a6:	482b      	ldr	r0, [pc, #172]	; (8002554 <usb_ept_close+0x11c>)
 80024a8:	f850 2023 	ldr.w	r2, [r0, r3, lsl #2]
 80024ac:	0452      	lsls	r2, r2, #17
 80024ae:	d50b      	bpl.n	80024c8 <usb_ept_close+0x90>
F:\AT32-workspace\AT32F403ACGU7_clone_windows_desktop_virtual_com_port\Release/../firmware/at32f403a_407_usb.c:290 (discriminator 1)
 80024b0:	f850 2023 	ldr.w	r2, [r0, r3, lsl #2]
 80024b4:	f640 7c0f 	movw	ip, #3855	; 0xf0f
 80024b8:	ea02 020c 	and.w	r2, r2, ip
 80024bc:	f442 4240 	orr.w	r2, r2, #49152	; 0xc000
 80024c0:	f042 0280 	orr.w	r2, r2, #128	; 0x80
 80024c4:	f840 2023 	str.w	r2, [r0, r3, lsl #2]
F:\AT32-workspace\AT32F403ACGU7_clone_windows_desktop_virtual_com_port\Release/../firmware/at32f403a_407_usb.c:304 (discriminator 3)
      USB_TOGGLE_RXDTS(ept_info->eptn);
 80024c8:	009b      	lsls	r3, r3, #2
 80024ca:	f103 4380 	add.w	r3, r3, #1073741824	; 0x40000000
F:\AT32-workspace\AT32F403ACGU7_clone_windows_desktop_virtual_com_port\Release/../firmware/at32f403a_407_usb.c:292 (discriminator 3)
    if(ept_info->inout == DATA_TRANS_IN)
 80024ce:	788a      	ldrb	r2, [r1, #2]
 80024d0:	f503 43b8 	add.w	r3, r3, #23552	; 0x5c00
 80024d4:	2a01      	cmp	r2, #1
F:\AT32-workspace\AT32F403ACGU7_clone_windows_desktop_virtual_com_port\Release/../firmware/at32f403a_407_usb.c:295 (discriminator 3)
      USB_TOGGLE_TXDTS(ept_info->eptn);
 80024d6:	681a      	ldr	r2, [r3, #0]
 80024d8:	f640 700f 	movw	r0, #3855	; 0xf0f
 80024dc:	ea02 0200 	and.w	r2, r2, r0
 80024e0:	bf0b      	itete	eq
 80024e2:	f442 4200 	orreq.w	r2, r2, #32768	; 0x8000
F:\AT32-workspace\AT32F403ACGU7_clone_windows_desktop_virtual_com_port\Release/../firmware/at32f403a_407_usb.c:304 (discriminator 3)
      USB_TOGGLE_RXDTS(ept_info->eptn);
 80024e6:	f442 4240 	orrne.w	r2, r2, #49152	; 0xc000
F:\AT32-workspace\AT32F403ACGU7_clone_windows_desktop_virtual_com_port\Release/../firmware/at32f403a_407_usb.c:295 (discriminator 3)
      USB_TOGGLE_TXDTS(ept_info->eptn);
 80024ea:	f042 02c0 	orreq.w	r2, r2, #192	; 0xc0
F:\AT32-workspace\AT32F403ACGU7_clone_windows_desktop_virtual_com_port\Release/../firmware/at32f403a_407_usb.c:304 (discriminator 3)
      USB_TOGGLE_RXDTS(ept_info->eptn);
 80024ee:	f042 0280 	orrne.w	r2, r2, #128	; 0x80
 80024f2:	601a      	str	r2, [r3, #0]
F:\AT32-workspace\AT32F403ACGU7_clone_windows_desktop_virtual_com_port\Release/../firmware/at32f403a_407_usb.c:307 (discriminator 3)
      USB_SET_TXSTS(ept_info->eptn, USB_TX_DISABLE);
 80024f4:	681a      	ldr	r2, [r3, #0]
 80024f6:	f422 42e0 	bic.w	r2, r2, #28672	; 0x7000
F:\AT32-workspace\AT32F403ACGU7_clone_windows_desktop_virtual_com_port\Release/../firmware/at32f403a_407_usb.c:298 (discriminator 3)
      USB_SET_TXSTS(ept_info->eptn, USB_TX_DISABLE);
 80024fa:	f248 0180 	movw	r1, #32896	; 0x8080
F:\AT32-workspace\AT32F403ACGU7_clone_windows_desktop_virtual_com_port\Release/../firmware/at32f403a_407_usb.c:307 (discriminator 3)
      USB_SET_TXSTS(ept_info->eptn, USB_TX_DISABLE);
 80024fe:	f022 0240 	bic.w	r2, r2, #64	; 0x40
 8002502:	430a      	orrs	r2, r1
 8002504:	b292      	uxth	r2, r2
 8002506:	601a      	str	r2, [r3, #0]
F:\AT32-workspace\AT32F403ACGU7_clone_windows_desktop_virtual_com_port\Release/../firmware/at32f403a_407_usb.c:308 (discriminator 3)
      USB_SET_RXSTS(ept_info->eptn, USB_RX_DISABLE);
 8002508:	681a      	ldr	r2, [r3, #0]
 800250a:	f422 4280 	bic.w	r2, r2, #16384	; 0x4000
 800250e:	f022 0270 	bic.w	r2, r2, #112	; 0x70
 8002512:	4311      	orrs	r1, r2
 8002514:	b289      	uxth	r1, r1
 8002516:	6019      	str	r1, [r3, #0]
F:\AT32-workspace\AT32F403ACGU7_clone_windows_desktop_virtual_com_port\Release/../firmware/at32f403a_407_usb.c:311 (discriminator 3)
}
 8002518:	4770      	bx	lr
F:\AT32-workspace\AT32F403ACGU7_clone_windows_desktop_virtual_com_port\Release/../firmware/at32f403a_407_usb.c:269
      USB_CLEAR_TXDTS(ept_info->eptn);
 800251a:	065b      	lsls	r3, r3, #25
 800251c:	d50a      	bpl.n	8002534 <usb_ept_close+0xfc>
F:\AT32-workspace\AT32F403ACGU7_clone_windows_desktop_virtual_com_port\Release/../firmware/at32f403a_407_usb.c:269 (discriminator 1)
 800251e:	f851 3022 	ldr.w	r3, [r1, r2, lsl #2]
 8002522:	f640 700f 	movw	r0, #3855	; 0xf0f
 8002526:	4003      	ands	r3, r0
 8002528:	f443 4300 	orr.w	r3, r3, #32768	; 0x8000
 800252c:	f043 03c0 	orr.w	r3, r3, #192	; 0xc0
 8002530:	f841 3022 	str.w	r3, [r1, r2, lsl #2]
F:\AT32-workspace\AT32F403ACGU7_clone_windows_desktop_virtual_com_port\Release/../firmware/at32f403a_407_usb.c:272 (discriminator 3)
      USB_SET_TXSTS(ept_info->eptn, USB_TX_DISABLE);
 8002534:	4907      	ldr	r1, [pc, #28]	; (8002554 <usb_ept_close+0x11c>)
 8002536:	f851 3022 	ldr.w	r3, [r1, r2, lsl #2]
 800253a:	f423 43e0 	bic.w	r3, r3, #28672	; 0x7000
 800253e:	f023 0340 	bic.w	r3, r3, #64	; 0x40
 8002542:	f443 4300 	orr.w	r3, r3, #32768	; 0x8000
 8002546:	f043 0380 	orr.w	r3, r3, #128	; 0x80
 800254a:	b29b      	uxth	r3, r3
 800254c:	f841 3022 	str.w	r3, [r1, r2, lsl #2]
 8002550:	4770      	bx	lr
 8002552:	bf00      	nop
 8002554:	40005c00 	.word	0x40005c00

08002558 <usb_write_packet>:
usb_write_packet():
F:\AT32-workspace\AT32F403ACGU7_clone_windows_desktop_virtual_com_port\Release/../firmware/at32f403a_407_usb.c:323
  __IO uint16_t *d_addr = (__IO uint16_t *)(offset_addr * 2 + g_usb_packet_address);
 8002558:	4b08      	ldr	r3, [pc, #32]	; (800257c <usb_write_packet+0x24>)
F:\AT32-workspace\AT32F403ACGU7_clone_windows_desktop_virtual_com_port\Release/../firmware/at32f403a_407_usb.c:325
  uint32_t nhbytes = (nbytes + 1) >> 1;
 800255a:	3201      	adds	r2, #1
F:\AT32-workspace\AT32F403ACGU7_clone_windows_desktop_virtual_com_port\Release/../firmware/at32f403a_407_usb.c:323
  __IO uint16_t *d_addr = (__IO uint16_t *)(offset_addr * 2 + g_usb_packet_address);
 800255c:	681b      	ldr	r3, [r3, #0]
F:\AT32-workspace\AT32F403ACGU7_clone_windows_desktop_virtual_com_port\Release/../firmware/at32f403a_407_usb.c:328
  for(n_index = 0; n_index < nhbytes; n_index ++)
 800255e:	ea5f 0c62 	movs.w	ip, r2, asr #1
F:\AT32-workspace\AT32F403ACGU7_clone_windows_desktop_virtual_com_port\Release/../firmware/at32f403a_407_usb.c:323
  __IO uint16_t *d_addr = (__IO uint16_t *)(offset_addr * 2 + g_usb_packet_address);
 8002562:	eb03 0141 	add.w	r1, r3, r1, lsl #1
F:\AT32-workspace\AT32F403ACGU7_clone_windows_desktop_virtual_com_port\Release/../firmware/at32f403a_407_usb.c:328
  for(n_index = 0; n_index < nhbytes; n_index ++)
 8002566:	d007      	beq.n	8002578 <usb_write_packet+0x20>
 8002568:	2300      	movs	r3, #0
F:\AT32-workspace\AT32F403ACGU7_clone_windows_desktop_virtual_com_port\Release/../firmware/at32f403a_407_usb.c:328 (discriminator 3)
 800256a:	3301      	adds	r3, #1
F:\AT32-workspace\AT32F403ACGU7_clone_windows_desktop_virtual_com_port\Release/../firmware/at32f403a_407_usb.c:333 (discriminator 3)
    *d_addr++ = __UNALIGNED_UINT16_READ(pbuf);
 800256c:	f830 2b02 	ldrh.w	r2, [r0], #2
 8002570:	f821 2b04 	strh.w	r2, [r1], #4
F:\AT32-workspace\AT32F403ACGU7_clone_windows_desktop_virtual_com_port\Release/../firmware/at32f403a_407_usb.c:328 (discriminator 3)
  for(n_index = 0; n_index < nhbytes; n_index ++)
 8002574:	459c      	cmp	ip, r3
 8002576:	d1f8      	bne.n	800256a <usb_write_packet+0x12>
F:\AT32-workspace\AT32F403ACGU7_clone_windows_desktop_virtual_com_port\Release/../firmware/at32f403a_407_usb.c:338
}
 8002578:	4770      	bx	lr
 800257a:	bf00      	nop
 800257c:	20000004 	.word	0x20000004

08002580 <usb_read_packet>:
usb_read_packet():
F:\AT32-workspace\AT32F403ACGU7_clone_windows_desktop_virtual_com_port\Release/../firmware/at32f403a_407_usb.c:349
  __IO uint16_t *s_addr = (__IO uint16_t *)(offset_addr * 2 + g_usb_packet_address);
 8002580:	4b08      	ldr	r3, [pc, #32]	; (80025a4 <usb_read_packet+0x24>)
F:\AT32-workspace\AT32F403ACGU7_clone_windows_desktop_virtual_com_port\Release/../firmware/at32f403a_407_usb.c:350
  uint32_t nhbytes = (nbytes + 1) >> 1;
 8002582:	3201      	adds	r2, #1
F:\AT32-workspace\AT32F403ACGU7_clone_windows_desktop_virtual_com_port\Release/../firmware/at32f403a_407_usb.c:349
  __IO uint16_t *s_addr = (__IO uint16_t *)(offset_addr * 2 + g_usb_packet_address);
 8002584:	681b      	ldr	r3, [r3, #0]
F:\AT32-workspace\AT32F403ACGU7_clone_windows_desktop_virtual_com_port\Release/../firmware/at32f403a_407_usb.c:353
  for(n_index = 0; n_index < nhbytes; n_index ++)
 8002586:	ea5f 0c62 	movs.w	ip, r2, asr #1
F:\AT32-workspace\AT32F403ACGU7_clone_windows_desktop_virtual_com_port\Release/../firmware/at32f403a_407_usb.c:349
  __IO uint16_t *s_addr = (__IO uint16_t *)(offset_addr * 2 + g_usb_packet_address);
 800258a:	eb03 0141 	add.w	r1, r3, r1, lsl #1
F:\AT32-workspace\AT32F403ACGU7_clone_windows_desktop_virtual_com_port\Release/../firmware/at32f403a_407_usb.c:353
  for(n_index = 0; n_index < nhbytes; n_index ++)
 800258e:	d007      	beq.n	80025a0 <usb_read_packet+0x20>
 8002590:	2300      	movs	r3, #0
F:\AT32-workspace\AT32F403ACGU7_clone_windows_desktop_virtual_com_port\Release/../firmware/at32f403a_407_usb.c:353 (discriminator 3)
 8002592:	3301      	adds	r3, #1
F:\AT32-workspace\AT32F403ACGU7_clone_windows_desktop_virtual_com_port\Release/../firmware/at32f403a_407_usb.c:358 (discriminator 3)
    __UNALIGNED_UINT16_WRITE(pbuf, *(__IO uint16_t *)s_addr ++);
 8002594:	f831 2b04 	ldrh.w	r2, [r1], #4
 8002598:	f820 2b02 	strh.w	r2, [r0], #2
F:\AT32-workspace\AT32F403ACGU7_clone_windows_desktop_virtual_com_port\Release/../firmware/at32f403a_407_usb.c:353 (discriminator 3)
  for(n_index = 0; n_index < nhbytes; n_index ++)
 800259c:	459c      	cmp	ip, r3
 800259e:	d1f8      	bne.n	8002592 <usb_read_packet+0x12>
F:\AT32-workspace\AT32F403ACGU7_clone_windows_desktop_virtual_com_port\Release/../firmware/at32f403a_407_usb.c:363
}
 80025a0:	4770      	bx	lr
 80025a2:	bf00      	nop
 80025a4:	20000004 	.word	0x20000004

080025a8 <usb_set_address>:
usb_set_address():
F:\AT32-workspace\AT32F403ACGU7_clone_windows_desktop_virtual_com_port\Release/../firmware/at32f403a_407_usb.c:404
  * @param  address: host assignment address
  * @retval none
  */
void usb_set_address(usbd_type *usbx, uint8_t address)
{
  usbx->devaddr_bit.addr = address;
 80025a8:	6cc3      	ldr	r3, [r0, #76]	; 0x4c
 80025aa:	f361 0306 	bfi	r3, r1, #0, #7
 80025ae:	64c3      	str	r3, [r0, #76]	; 0x4c
F:\AT32-workspace\AT32F403ACGU7_clone_windows_desktop_virtual_com_port\Release/../firmware/at32f403a_407_usb.c:405
  usbx->devaddr_bit.cen = TRUE;
 80025b0:	6cc3      	ldr	r3, [r0, #76]	; 0x4c
 80025b2:	f043 0380 	orr.w	r3, r3, #128	; 0x80
 80025b6:	64c3      	str	r3, [r0, #76]	; 0x4c
F:\AT32-workspace\AT32F403ACGU7_clone_windows_desktop_virtual_com_port\Release/../firmware/at32f403a_407_usb.c:406
}
 80025b8:	4770      	bx	lr
 80025ba:	bf00      	nop

080025bc <usb_enter_suspend>:
usb_enter_suspend():
F:\AT32-workspace\AT32F403ACGU7_clone_windows_desktop_virtual_com_port\Release/../firmware/at32f403a_407_usb.c:435
  *         parameter as following values: USB
  * @retval none
  */
void usb_enter_suspend(usbd_type *usbx)
{
  usbx->ctrl_bit.ssp = TRUE;
 80025bc:	6c03      	ldr	r3, [r0, #64]	; 0x40
 80025be:	f043 0308 	orr.w	r3, r3, #8
 80025c2:	6403      	str	r3, [r0, #64]	; 0x40
F:\AT32-workspace\AT32F403ACGU7_clone_windows_desktop_virtual_com_port\Release/../firmware/at32f403a_407_usb.c:436
  usbx->ctrl_bit.lpm = TRUE;
 80025c4:	6c03      	ldr	r3, [r0, #64]	; 0x40
 80025c6:	f043 0304 	orr.w	r3, r3, #4
 80025ca:	6403      	str	r3, [r0, #64]	; 0x40
F:\AT32-workspace\AT32F403ACGU7_clone_windows_desktop_virtual_com_port\Release/../firmware/at32f403a_407_usb.c:437
}
 80025cc:	4770      	bx	lr
 80025ce:	bf00      	nop

080025d0 <usb_exit_suspend>:
usb_exit_suspend():
F:\AT32-workspace\AT32F403ACGU7_clone_windows_desktop_virtual_com_port\Release/../firmware/at32f403a_407_usb.c:447
  *         parameter as following values: USB
  * @retval none
  */
void usb_exit_suspend(usbd_type *usbx)
{
  usbx->ctrl_bit.ssp = FALSE;
 80025d0:	6c03      	ldr	r3, [r0, #64]	; 0x40
 80025d2:	f36f 03c3 	bfc	r3, #3, #1
 80025d6:	6403      	str	r3, [r0, #64]	; 0x40
F:\AT32-workspace\AT32F403ACGU7_clone_windows_desktop_virtual_com_port\Release/../firmware/at32f403a_407_usb.c:448
  usbx->ctrl_bit.lpm = FALSE;
 80025d8:	6c03      	ldr	r3, [r0, #64]	; 0x40
 80025da:	f36f 0382 	bfc	r3, #2, #1
 80025de:	6403      	str	r3, [r0, #64]	; 0x40
F:\AT32-workspace\AT32F403ACGU7_clone_windows_desktop_virtual_com_port\Release/../firmware/at32f403a_407_usb.c:449
}
 80025e0:	4770      	bx	lr
 80025e2:	bf00      	nop

080025e4 <usb_buffer_free>:
usb_buffer_free():
F:\AT32-workspace\AT32F403ACGU7_clone_windows_desktop_virtual_com_port\Release/../firmware/at32f403a_407_usb.c:492
  * @param  none
  * @retval none
  */
void usb_buffer_free(void)
{
  g_usb_offset_addr = USB_ENDP_DESC_TABLE_OFFSET;
 80025e4:	4b01      	ldr	r3, [pc, #4]	; (80025ec <usb_buffer_free+0x8>)
 80025e6:	2240      	movs	r2, #64	; 0x40
 80025e8:	801a      	strh	r2, [r3, #0]
F:\AT32-workspace\AT32F403ACGU7_clone_windows_desktop_virtual_com_port\Release/../firmware/at32f403a_407_usb.c:493
}
 80025ea:	4770      	bx	lr
 80025ec:	20000000 	.word	0x20000000

080025f0 <usb_flag_clear>:
usb_flag_clear():
F:\AT32-workspace\AT32F403ACGU7_clone_windows_desktop_virtual_com_port\Release/../firmware/at32f403a_407_usb.c:544
  *         - USB_TC_FLAG
  * @retval none
  */
void usb_flag_clear(usbd_type *usbx, uint16_t flag)
{
  usbx->intsts = ~flag;
 80025f0:	43c9      	mvns	r1, r1
 80025f2:	6441      	str	r1, [r0, #68]	; 0x44
F:\AT32-workspace\AT32F403ACGU7_clone_windows_desktop_virtual_com_port\Release/../firmware/at32f403a_407_usb.c:545
}
 80025f4:	4770      	bx	lr
 80025f6:	bf00      	nop

080025f8 <Reset_Handler>:
Reset_Handler():
F:\AT32-workspace\AT32F403ACGU7_clone_windows_desktop_virtual_com_port\Release/../cmsis/startup_at32f403a_407.s:54
  .weak  Reset_Handler
  .type  Reset_Handler, %function
Reset_Handler:

/* Copy the data segment initializers from flash to SRAM */
  movs  r1, #0
 80025f8:	2100      	movs	r1, #0
F:\AT32-workspace\AT32F403ACGU7_clone_windows_desktop_virtual_com_port\Release/../cmsis/startup_at32f403a_407.s:55
  b  LoopCopyDataInit
 80025fa:	e003      	b.n	8002604 <LoopCopyDataInit>

080025fc <CopyDataInit>:
F:\AT32-workspace\AT32F403ACGU7_clone_windows_desktop_virtual_com_port\Release/../cmsis/startup_at32f403a_407.s:58

CopyDataInit:
  ldr  r3, =_sidata
 80025fc:	4b0b      	ldr	r3, [pc, #44]	; (800262c <LoopFillZerobss+0x14>)
F:\AT32-workspace\AT32F403ACGU7_clone_windows_desktop_virtual_com_port\Release/../cmsis/startup_at32f403a_407.s:59
  ldr  r3, [r3, r1]
 80025fe:	585b      	ldr	r3, [r3, r1]
F:\AT32-workspace\AT32F403ACGU7_clone_windows_desktop_virtual_com_port\Release/../cmsis/startup_at32f403a_407.s:60
  str  r3, [r0, r1]
 8002600:	5043      	str	r3, [r0, r1]
F:\AT32-workspace\AT32F403ACGU7_clone_windows_desktop_virtual_com_port\Release/../cmsis/startup_at32f403a_407.s:61
  adds  r1, r1, #4
 8002602:	3104      	adds	r1, #4

08002604 <LoopCopyDataInit>:
F:\AT32-workspace\AT32F403ACGU7_clone_windows_desktop_virtual_com_port\Release/../cmsis/startup_at32f403a_407.s:64

LoopCopyDataInit:
  ldr  r0, =_sdata
 8002604:	480a      	ldr	r0, [pc, #40]	; (8002630 <LoopFillZerobss+0x18>)
F:\AT32-workspace\AT32F403ACGU7_clone_windows_desktop_virtual_com_port\Release/../cmsis/startup_at32f403a_407.s:65
  ldr  r3, =_edata
 8002606:	4b0b      	ldr	r3, [pc, #44]	; (8002634 <LoopFillZerobss+0x1c>)
F:\AT32-workspace\AT32F403ACGU7_clone_windows_desktop_virtual_com_port\Release/../cmsis/startup_at32f403a_407.s:66
  adds  r2, r0, r1
 8002608:	1842      	adds	r2, r0, r1
F:\AT32-workspace\AT32F403ACGU7_clone_windows_desktop_virtual_com_port\Release/../cmsis/startup_at32f403a_407.s:67
  cmp  r2, r3
 800260a:	429a      	cmp	r2, r3
F:\AT32-workspace\AT32F403ACGU7_clone_windows_desktop_virtual_com_port\Release/../cmsis/startup_at32f403a_407.s:68
  bcc  CopyDataInit
 800260c:	d3f6      	bcc.n	80025fc <CopyDataInit>
F:\AT32-workspace\AT32F403ACGU7_clone_windows_desktop_virtual_com_port\Release/../cmsis/startup_at32f403a_407.s:69
  ldr  r2, =_sbss
 800260e:	4a0a      	ldr	r2, [pc, #40]	; (8002638 <LoopFillZerobss+0x20>)
F:\AT32-workspace\AT32F403ACGU7_clone_windows_desktop_virtual_com_port\Release/../cmsis/startup_at32f403a_407.s:70
  b  LoopFillZerobss
 8002610:	e002      	b.n	8002618 <LoopFillZerobss>

08002612 <FillZerobss>:
F:\AT32-workspace\AT32F403ACGU7_clone_windows_desktop_virtual_com_port\Release/../cmsis/startup_at32f403a_407.s:73
/* Zero fill the bss segment. */
FillZerobss:
  movs  r3, #0
 8002612:	2300      	movs	r3, #0
F:\AT32-workspace\AT32F403ACGU7_clone_windows_desktop_virtual_com_port\Release/../cmsis/startup_at32f403a_407.s:74
  str  r3, [r2], #4
 8002614:	f842 3b04 	str.w	r3, [r2], #4

08002618 <LoopFillZerobss>:
F:\AT32-workspace\AT32F403ACGU7_clone_windows_desktop_virtual_com_port\Release/../cmsis/startup_at32f403a_407.s:77

LoopFillZerobss:
  ldr  r3, = _ebss
 8002618:	4b08      	ldr	r3, [pc, #32]	; (800263c <LoopFillZerobss+0x24>)
F:\AT32-workspace\AT32F403ACGU7_clone_windows_desktop_virtual_com_port\Release/../cmsis/startup_at32f403a_407.s:78
  cmp  r2, r3
 800261a:	429a      	cmp	r2, r3
F:\AT32-workspace\AT32F403ACGU7_clone_windows_desktop_virtual_com_port\Release/../cmsis/startup_at32f403a_407.s:79
  bcc  FillZerobss
 800261c:	d3f9      	bcc.n	8002612 <FillZerobss>
F:\AT32-workspace\AT32F403ACGU7_clone_windows_desktop_virtual_com_port\Release/../cmsis/startup_at32f403a_407.s:82

/* Call the clock system intitialization function.*/
  bl  SystemInit
 800261e:	f000 f811 	bl	8002644 <SystemInit>
F:\AT32-workspace\AT32F403ACGU7_clone_windows_desktop_virtual_com_port\Release/../cmsis/startup_at32f403a_407.s:84
/* Call static constructors */
  bl __libc_init_array
 8002622:	f002 fd3d 	bl	80050a0 <__libc_init_array>
F:\AT32-workspace\AT32F403ACGU7_clone_windows_desktop_virtual_com_port\Release/../cmsis/startup_at32f403a_407.s:86
/* Call the application's entry point.*/
  bl  main
 8002626:	f7fd fe3f 	bl	80002a8 <main>
F:\AT32-workspace\AT32F403ACGU7_clone_windows_desktop_virtual_com_port\Release/../cmsis/startup_at32f403a_407.s:87
  bx  lr
 800262a:	4770      	bx	lr
LoopFillZerobss():
F:\AT32-workspace\AT32F403ACGU7_clone_windows_desktop_virtual_com_port\Release/../cmsis/startup_at32f403a_407.s:58
  ldr  r3, =_sidata
 800262c:	08005eac 	.word	0x08005eac
F:\AT32-workspace\AT32F403ACGU7_clone_windows_desktop_virtual_com_port\Release/../cmsis/startup_at32f403a_407.s:64
  ldr  r0, =_sdata
 8002630:	20000000 	.word	0x20000000
F:\AT32-workspace\AT32F403ACGU7_clone_windows_desktop_virtual_com_port\Release/../cmsis/startup_at32f403a_407.s:65
  ldr  r3, =_edata
 8002634:	200001c4 	.word	0x200001c4
F:\AT32-workspace\AT32F403ACGU7_clone_windows_desktop_virtual_com_port\Release/../cmsis/startup_at32f403a_407.s:69
  ldr  r2, =_sbss
 8002638:	200001c4 	.word	0x200001c4
F:\AT32-workspace\AT32F403ACGU7_clone_windows_desktop_virtual_com_port\Release/../cmsis/startup_at32f403a_407.s:77
  ldr  r3, = _ebss
 800263c:	20009228 	.word	0x20009228

08002640 <ACC_IRQHandler>:
SDIO1_IRQHandler():
F:\AT32-workspace\AT32F403ACGU7_clone_windows_desktop_virtual_com_port\Release/../cmsis/startup_at32f403a_407.s:100
 * @retval None
*/
    .section  .text.Default_Handler,"ax",%progbits
Default_Handler:
Infinite_Loop:
  b  Infinite_Loop
 8002640:	e7fe      	b.n	8002640 <ACC_IRQHandler>
	...

08002644 <SystemInit>:
SystemInit():
F:\AT32-workspace\AT32F403ACGU7_clone_windows_desktop_virtual_com_port\Release/../cmsis/system_at32f403a_407.c:65
  * @retval none
  */
void SystemInit (void)
{
#if defined (__FPU_USED) && (__FPU_USED == 1U)
  SCB->CPACR |= ((3U << 10U * 2U) |         /* set cp10 full access */
 8002644:	4a16      	ldr	r2, [pc, #88]	; (80026a0 <SystemInit+0x5c>)
F:\AT32-workspace\AT32F403ACGU7_clone_windows_desktop_virtual_com_port\Release/../cmsis/system_at32f403a_407.c:71
                 (3U << 11U * 2U)  );       /* set cp11 full access */
#endif

  /* reset the crm clock configuration to the default reset state(for debug purpose) */
  /* set hicken bit */
  CRM->ctrl_bit.hicken = TRUE;
 8002646:	4917      	ldr	r1, [pc, #92]	; (80026a4 <SystemInit+0x60>)
F:\AT32-workspace\AT32F403ACGU7_clone_windows_desktop_virtual_com_port\Release/../cmsis/system_at32f403a_407.c:65
  SCB->CPACR |= ((3U << 10U * 2U) |         /* set cp10 full access */
 8002648:	f8d2 3088 	ldr.w	r3, [r2, #136]	; 0x88
F:\AT32-workspace\AT32F403ACGU7_clone_windows_desktop_virtual_com_port\Release/../cmsis/system_at32f403a_407.c:63
{
 800264c:	b410      	push	{r4}
F:\AT32-workspace\AT32F403ACGU7_clone_windows_desktop_virtual_com_port\Release/../cmsis/system_at32f403a_407.c:65
  SCB->CPACR |= ((3U << 10U * 2U) |         /* set cp10 full access */
 800264e:	f443 0370 	orr.w	r3, r3, #15728640	; 0xf00000
 8002652:	f8c2 3088 	str.w	r3, [r2, #136]	; 0x88
F:\AT32-workspace\AT32F403ACGU7_clone_windows_desktop_virtual_com_port\Release/../cmsis/system_at32f403a_407.c:71
  CRM->ctrl_bit.hicken = TRUE;
 8002656:	680b      	ldr	r3, [r1, #0]
 8002658:	f043 0301 	orr.w	r3, r3, #1
 800265c:	600b      	str	r3, [r1, #0]
F:\AT32-workspace\AT32F403ACGU7_clone_windows_desktop_virtual_com_port\Release/../cmsis/system_at32f403a_407.c:74 (discriminator 1)

  /* wait hick stable */
  while(CRM->ctrl_bit.hickstbl != SET);
 800265e:	680b      	ldr	r3, [r1, #0]
 8002660:	079b      	lsls	r3, r3, #30
 8002662:	d5fc      	bpl.n	800265e <SystemInit+0x1a>
F:\AT32-workspace\AT32F403ACGU7_clone_windows_desktop_virtual_com_port\Release/../cmsis/system_at32f403a_407.c:77

  /* hick used as system clock */
  CRM->cfg_bit.sclksel = CRM_SCLK_HICK;
 8002664:	684b      	ldr	r3, [r1, #4]
F:\AT32-workspace\AT32F403ACGU7_clone_windows_desktop_virtual_com_port\Release/../cmsis/system_at32f403a_407.c:80

  /* wait sclk switch status */
  while(CRM->cfg_bit.sclksts != CRM_SCLK_HICK);
 8002666:	4a0f      	ldr	r2, [pc, #60]	; (80026a4 <SystemInit+0x60>)
F:\AT32-workspace\AT32F403ACGU7_clone_windows_desktop_virtual_com_port\Release/../cmsis/system_at32f403a_407.c:77
  CRM->cfg_bit.sclksel = CRM_SCLK_HICK;
 8002668:	f36f 0301 	bfc	r3, #0, #2
 800266c:	604b      	str	r3, [r1, #4]
F:\AT32-workspace\AT32F403ACGU7_clone_windows_desktop_virtual_com_port\Release/../cmsis/system_at32f403a_407.c:80 (discriminator 1)
  while(CRM->cfg_bit.sclksts != CRM_SCLK_HICK);
 800266e:	6853      	ldr	r3, [r2, #4]
 8002670:	f013 0f0c 	tst.w	r3, #12
 8002674:	f3c3 0181 	ubfx	r1, r3, #2, #2
 8002678:	d1f9      	bne.n	800266e <SystemInit+0x2a>
F:\AT32-workspace\AT32F403ACGU7_clone_windows_desktop_virtual_com_port\Release/../cmsis/system_at32f403a_407.c:83

  /* reset hexten, hextbyps, cfden and pllen bits */
  CRM->ctrl &= ~(0x010D0000U);
 800267a:	6813      	ldr	r3, [r2, #0]
F:\AT32-workspace\AT32F403ACGU7_clone_windows_desktop_virtual_com_port\Release/../cmsis/system_at32f403a_407.c:98
  CRM->clkint = 0x009F0000;

#ifdef VECT_TAB_SRAM
  SCB->VTOR = SRAM_BASE  | VECT_TAB_OFFSET;  /* vector table relocation in internal sram. */
#else
  SCB->VTOR = FLASH_BASE | VECT_TAB_OFFSET;  /* vector table relocation in internal flash. */
 800267c:	4808      	ldr	r0, [pc, #32]	; (80026a0 <SystemInit+0x5c>)
F:\AT32-workspace\AT32F403ACGU7_clone_windows_desktop_virtual_com_port\Release/../cmsis/system_at32f403a_407.c:83
  CRM->ctrl &= ~(0x010D0000U);
 800267e:	f023 7386 	bic.w	r3, r3, #17563648	; 0x10c0000
 8002682:	f423 3380 	bic.w	r3, r3, #65536	; 0x10000
 8002686:	6013      	str	r3, [r2, #0]
F:\AT32-workspace\AT32F403ACGU7_clone_windows_desktop_virtual_com_port\Release/../cmsis/system_at32f403a_407.c:93
  CRM->clkint = 0x009F0000;
 8002688:	f44f 041f 	mov.w	r4, #10420224	; 0x9f0000
F:\AT32-workspace\AT32F403ACGU7_clone_windows_desktop_virtual_com_port\Release/../cmsis/system_at32f403a_407.c:98
  SCB->VTOR = FLASH_BASE | VECT_TAB_OFFSET;  /* vector table relocation in internal flash. */
 800268c:	f04f 6300 	mov.w	r3, #134217728	; 0x8000000
F:\AT32-workspace\AT32F403ACGU7_clone_windows_desktop_virtual_com_port\Release/../cmsis/system_at32f403a_407.c:87
  CRM->cfg = 0;
 8002690:	6051      	str	r1, [r2, #4]
F:\AT32-workspace\AT32F403ACGU7_clone_windows_desktop_virtual_com_port\Release/../cmsis/system_at32f403a_407.c:90
  CRM->misc1 = 0;
 8002692:	6311      	str	r1, [r2, #48]	; 0x30
F:\AT32-workspace\AT32F403ACGU7_clone_windows_desktop_virtual_com_port\Release/../cmsis/system_at32f403a_407.c:93
  CRM->clkint = 0x009F0000;
 8002694:	6094      	str	r4, [r2, #8]
F:\AT32-workspace\AT32F403ACGU7_clone_windows_desktop_virtual_com_port\Release/../cmsis/system_at32f403a_407.c:100
#endif
}
 8002696:	f85d 4b04 	ldr.w	r4, [sp], #4
F:\AT32-workspace\AT32F403ACGU7_clone_windows_desktop_virtual_com_port\Release/../cmsis/system_at32f403a_407.c:98
  SCB->VTOR = FLASH_BASE | VECT_TAB_OFFSET;  /* vector table relocation in internal flash. */
 800269a:	6083      	str	r3, [r0, #8]
F:\AT32-workspace\AT32F403ACGU7_clone_windows_desktop_virtual_com_port\Release/../cmsis/system_at32f403a_407.c:100
}
 800269c:	4770      	bx	lr
 800269e:	bf00      	nop
 80026a0:	e000ed00 	.word	0xe000ed00
 80026a4:	40021000 	.word	0x40021000

080026a8 <system_core_clock_update>:
system_core_clock_update():
F:\AT32-workspace\AT32F403ACGU7_clone_windows_desktop_virtual_com_port\Release/../cmsis/system_at32f403a_407.c:111
  *         other parameters.
  * @param  none
  * @retval none
  */
void system_core_clock_update(void)
{
 80026a8:	b508      	push	{r3, lr}
F:\AT32-workspace\AT32F403ACGU7_clone_windows_desktop_virtual_com_port\Release/../cmsis/system_at32f403a_407.c:118
  crm_sclk_type sclk_source;

  static const uint8_t sys_ahb_div_table[16] = {0, 0, 0, 0, 0, 0, 0, 0, 1, 2, 3, 4, 6, 7, 8, 9};

  /* get sclk source */
  sclk_source = crm_sysclk_switch_status_get();
 80026aa:	f7ff f979 	bl	80019a0 <crm_sysclk_switch_status_get>
F:\AT32-workspace\AT32F403ACGU7_clone_windows_desktop_virtual_com_port\Release/../cmsis/system_at32f403a_407.c:120

  switch(sclk_source)
 80026ae:	b160      	cbz	r0, 80026ca <system_core_clock_update+0x22>
 80026b0:	2802      	cmp	r0, #2
 80026b2:	d016      	beq.n	80026e2 <system_core_clock_update+0x3a>
 80026b4:	4b21      	ldr	r3, [pc, #132]	; (800273c <system_core_clock_update+0x94>)
F:\AT32-workspace\AT32F403ACGU7_clone_windows_desktop_virtual_com_port\Release/../cmsis/system_at32f403a_407.c:175
      break;
  }

  /* compute sclk, ahbclk frequency */
  /* get ahb division */
  temp = CRM->cfg_bit.ahbdiv;
 80026b6:	4a22      	ldr	r2, [pc, #136]	; (8002740 <system_core_clock_update+0x98>)
F:\AT32-workspace\AT32F403ACGU7_clone_windows_desktop_virtual_com_port\Release/../cmsis/system_at32f403a_407.c:176
  div_value = sys_ahb_div_table[temp];
 80026b8:	4822      	ldr	r0, [pc, #136]	; (8002744 <system_core_clock_update+0x9c>)
F:\AT32-workspace\AT32F403ACGU7_clone_windows_desktop_virtual_com_port\Release/../cmsis/system_at32f403a_407.c:175
  temp = CRM->cfg_bit.ahbdiv;
 80026ba:	6852      	ldr	r2, [r2, #4]
F:\AT32-workspace\AT32F403ACGU7_clone_windows_desktop_virtual_com_port\Release/../cmsis/system_at32f403a_407.c:178
  /* ahbclk frequency */
  system_core_clock = system_core_clock >> div_value;
 80026bc:	4922      	ldr	r1, [pc, #136]	; (8002748 <system_core_clock_update+0xa0>)
F:\AT32-workspace\AT32F403ACGU7_clone_windows_desktop_virtual_com_port\Release/../cmsis/system_at32f403a_407.c:175
  temp = CRM->cfg_bit.ahbdiv;
 80026be:	f3c2 1203 	ubfx	r2, r2, #4, #4
F:\AT32-workspace\AT32F403ACGU7_clone_windows_desktop_virtual_com_port\Release/../cmsis/system_at32f403a_407.c:176
  div_value = sys_ahb_div_table[temp];
 80026c2:	5c82      	ldrb	r2, [r0, r2]
F:\AT32-workspace\AT32F403ACGU7_clone_windows_desktop_virtual_com_port\Release/../cmsis/system_at32f403a_407.c:178
  system_core_clock = system_core_clock >> div_value;
 80026c4:	40d3      	lsrs	r3, r2
 80026c6:	600b      	str	r3, [r1, #0]
F:\AT32-workspace\AT32F403ACGU7_clone_windows_desktop_virtual_com_port\Release/../cmsis/system_at32f403a_407.c:179
}
 80026c8:	bd08      	pop	{r3, pc}
F:\AT32-workspace\AT32F403ACGU7_clone_windows_desktop_virtual_com_port\Release/../cmsis/system_at32f403a_407.c:123
      if(((CRM->misc3_bit.hick_to_sclk) != RESET) && ((CRM->misc1_bit.hickdiv) != RESET))
 80026ca:	4b1d      	ldr	r3, [pc, #116]	; (8002740 <system_core_clock_update+0x98>)
 80026cc:	6d5a      	ldr	r2, [r3, #84]	; 0x54
 80026ce:	0590      	lsls	r0, r2, #22
 80026d0:	d5f0      	bpl.n	80026b4 <system_core_clock_update+0xc>
F:\AT32-workspace\AT32F403ACGU7_clone_windows_desktop_virtual_com_port\Release/../cmsis/system_at32f403a_407.c:123 (discriminator 1)
 80026d2:	6b19      	ldr	r1, [r3, #48]	; 0x30
 80026d4:	4a19      	ldr	r2, [pc, #100]	; (800273c <system_core_clock_update+0x94>)
 80026d6:	4b1d      	ldr	r3, [pc, #116]	; (800274c <system_core_clock_update+0xa4>)
 80026d8:	f011 7f00 	tst.w	r1, #33554432	; 0x2000000
 80026dc:	bf08      	it	eq
 80026de:	4613      	moveq	r3, r2
 80026e0:	e7e9      	b.n	80026b6 <system_core_clock_update+0xe>
F:\AT32-workspace\AT32F403ACGU7_clone_windows_desktop_virtual_com_port\Release/../cmsis/system_at32f403a_407.c:132
      pll_clock_source = CRM->cfg_bit.pllrcs;
 80026e2:	4917      	ldr	r1, [pc, #92]	; (8002740 <system_core_clock_update+0x98>)
 80026e4:	684a      	ldr	r2, [r1, #4]
F:\AT32-workspace\AT32F403ACGU7_clone_windows_desktop_virtual_com_port\Release/../cmsis/system_at32f403a_407.c:135
        pll_mult = CRM->cfg_bit.pllmult_l;
 80026e6:	684b      	ldr	r3, [r1, #4]
F:\AT32-workspace\AT32F403ACGU7_clone_windows_desktop_virtual_com_port\Release/../cmsis/system_at32f403a_407.c:136
        pll_mult_h = CRM->cfg_bit.pllmult_h;
 80026e8:	6849      	ldr	r1, [r1, #4]
F:\AT32-workspace\AT32F403ACGU7_clone_windows_desktop_virtual_com_port\Release/../cmsis/system_at32f403a_407.c:138
        if((pll_mult_h != 0U) || (pll_mult == 15U)){
 80026ea:	f011 4fc0 	tst.w	r1, #1610612736	; 0x60000000
F:\AT32-workspace\AT32F403ACGU7_clone_windows_desktop_virtual_com_port\Release/../cmsis/system_at32f403a_407.c:132
      pll_clock_source = CRM->cfg_bit.pllrcs;
 80026ee:	f3c2 4200 	ubfx	r2, r2, #16, #1
F:\AT32-workspace\AT32F403ACGU7_clone_windows_desktop_virtual_com_port\Release/../cmsis/system_at32f403a_407.c:135
        pll_mult = CRM->cfg_bit.pllmult_l;
 80026f2:	f3c3 4383 	ubfx	r3, r3, #18, #4
F:\AT32-workspace\AT32F403ACGU7_clone_windows_desktop_virtual_com_port\Release/../cmsis/system_at32f403a_407.c:136
        pll_mult_h = CRM->cfg_bit.pllmult_h;
 80026f6:	f3c1 7041 	ubfx	r0, r1, #29, #2
F:\AT32-workspace\AT32F403ACGU7_clone_windows_desktop_virtual_com_port\Release/../cmsis/system_at32f403a_407.c:138
        if((pll_mult_h != 0U) || (pll_mult == 15U)){
 80026fa:	d107      	bne.n	800270c <system_core_clock_update+0x64>
F:\AT32-workspace\AT32F403ACGU7_clone_windows_desktop_virtual_com_port\Release/../cmsis/system_at32f403a_407.c:138 (discriminator 1)
 80026fc:	2b0f      	cmp	r3, #15
 80026fe:	d005      	beq.n	800270c <system_core_clock_update+0x64>
F:\AT32-workspace\AT32F403ACGU7_clone_windows_desktop_virtual_com_port\Release/../cmsis/system_at32f403a_407.c:143
            pll_mult += 2U;
 8002700:	3302      	adds	r3, #2
F:\AT32-workspace\AT32F403ACGU7_clone_windows_desktop_virtual_com_port\Release/../cmsis/system_at32f403a_407.c:146
        if (pll_clock_source == 0x00)
 8002702:	b942      	cbnz	r2, 8002716 <system_core_clock_update+0x6e>
F:\AT32-workspace\AT32F403ACGU7_clone_windows_desktop_virtual_com_port\Release/../cmsis/system_at32f403a_407.c:149
          system_core_clock = (HICK_VALUE >> 1) * pll_mult;
 8002704:	4a12      	ldr	r2, [pc, #72]	; (8002750 <system_core_clock_update+0xa8>)
 8002706:	fb02 f303 	mul.w	r3, r2, r3
 800270a:	e7d4      	b.n	80026b6 <system_core_clock_update+0xe>
F:\AT32-workspace\AT32F403ACGU7_clone_windows_desktop_virtual_com_port\Release/../cmsis/system_at32f403a_407.c:139
            pll_mult += ((16U * pll_mult_h) + 1U);
 800270c:	3301      	adds	r3, #1
 800270e:	eb03 1300 	add.w	r3, r3, r0, lsl #4
F:\AT32-workspace\AT32F403ACGU7_clone_windows_desktop_virtual_com_port\Release/../cmsis/system_at32f403a_407.c:146
        if (pll_clock_source == 0x00)
 8002712:	2a00      	cmp	r2, #0
 8002714:	d0f6      	beq.n	8002704 <system_core_clock_update+0x5c>
F:\AT32-workspace\AT32F403ACGU7_clone_windows_desktop_virtual_com_port\Release/../cmsis/system_at32f403a_407.c:154
          if (CRM->cfg_bit.pllhextdiv != RESET)
 8002716:	4a0a      	ldr	r2, [pc, #40]	; (8002740 <system_core_clock_update+0x98>)
 8002718:	6851      	ldr	r1, [r2, #4]
 800271a:	0389      	lsls	r1, r1, #14
 800271c:	d509      	bpl.n	8002732 <system_core_clock_update+0x8a>
F:\AT32-workspace\AT32F403ACGU7_clone_windows_desktop_virtual_com_port\Release/../cmsis/system_at32f403a_407.c:156
            hext_prediv = CRM->misc3_bit.hextdiv;
 800271e:	6d52      	ldr	r2, [r2, #84]	; 0x54
F:\AT32-workspace\AT32F403ACGU7_clone_windows_desktop_virtual_com_port\Release/../cmsis/system_at32f403a_407.c:159
            system_core_clock = (HEXT_VALUE / (hext_prediv + 2)) * pll_mult;
 8002720:	4906      	ldr	r1, [pc, #24]	; (800273c <system_core_clock_update+0x94>)
F:\AT32-workspace\AT32F403ACGU7_clone_windows_desktop_virtual_com_port\Release/../cmsis/system_at32f403a_407.c:156
            hext_prediv = CRM->misc3_bit.hextdiv;
 8002722:	f3c2 3201 	ubfx	r2, r2, #12, #2
F:\AT32-workspace\AT32F403ACGU7_clone_windows_desktop_virtual_com_port\Release/../cmsis/system_at32f403a_407.c:159
            system_core_clock = (HEXT_VALUE / (hext_prediv + 2)) * pll_mult;
 8002726:	3202      	adds	r2, #2
 8002728:	fbb1 f2f2 	udiv	r2, r1, r2
 800272c:	fb02 f303 	mul.w	r3, r2, r3
 8002730:	e7c1      	b.n	80026b6 <system_core_clock_update+0xe>
F:\AT32-workspace\AT32F403ACGU7_clone_windows_desktop_virtual_com_port\Release/../cmsis/system_at32f403a_407.c:163
            system_core_clock = HEXT_VALUE * pll_mult;
 8002732:	4a02      	ldr	r2, [pc, #8]	; (800273c <system_core_clock_update+0x94>)
 8002734:	fb02 f303 	mul.w	r3, r2, r3
 8002738:	e7bd      	b.n	80026b6 <system_core_clock_update+0xe>
 800273a:	bf00      	nop
 800273c:	007a1200 	.word	0x007a1200
 8002740:	40021000 	.word	0x40021000
 8002744:	080051f4 	.word	0x080051f4
 8002748:	20000008 	.word	0x20000008
 800274c:	02dc6c00 	.word	0x02dc6c00
 8002750:	003d0900 	.word	0x003d0900

08002754 <class_ept0_tx_handler>:
class_ept0_tx_handler():
F:\AT32-workspace\AT32F403ACGU7_clone_windows_desktop_virtual_com_port\Release/../cdc/cdc_class.c:218
  usb_sts_type status = USB_OK;

  /* ...user code... */

  return status;
}
 8002754:	2000      	movs	r0, #0
 8002756:	4770      	bx	lr

08002758 <class_in_handler>:
class_in_handler():
F:\AT32-workspace\AT32F403ACGU7_clone_windows_desktop_virtual_com_port\Release/../cdc/cdc_class.c:250
  * @retval status of usb_sts_type
  */
static usb_sts_type class_in_handler(void *udev, uint8_t ept_num)
{
  usbd_core_type *pudev = (usbd_core_type *)udev;
  cdc_struct_type *pcdc = (cdc_struct_type *)pudev->class_handler->pdata;
 8002758:	6843      	ldr	r3, [r0, #4]
 800275a:	6a5b      	ldr	r3, [r3, #36]	; 0x24
F:\AT32-workspace\AT32F403ACGU7_clone_windows_desktop_virtual_com_port\Release/../cdc/cdc_class.c:256
  usb_sts_type status = USB_OK;

  /* ...user code...
    trans next packet data
  */
  pcdc->g_tx_completed = 1;
 800275c:	2201      	movs	r2, #1
F:\AT32-workspace\AT32F403ACGU7_clone_windows_desktop_virtual_com_port\Release/../cdc/cdc_class.c:259

  return status;
}
 800275e:	2000      	movs	r0, #0
F:\AT32-workspace\AT32F403ACGU7_clone_windows_desktop_virtual_com_port\Release/../cdc/cdc_class.c:256
  pcdc->g_tx_completed = 1;
 8002760:	f883 2052 	strb.w	r2, [r3, #82]	; 0x52
F:\AT32-workspace\AT32F403ACGU7_clone_windows_desktop_virtual_com_port\Release/../cdc/cdc_class.c:259
}
 8002764:	4770      	bx	lr
 8002766:	bf00      	nop

08002768 <class_event_handler>:
class_event_handler():
F:\AT32-workspace\AT32F403ACGU7_clone_windows_desktop_virtual_com_port\Release/../cdc/cdc_class.c:338
      break;
    default:
      break;
  }
  return status;
}
 8002768:	2000      	movs	r0, #0
 800276a:	4770      	bx	lr

0800276c <class_out_handler>:
class_out_handler():
F:\AT32-workspace\AT32F403ACGU7_clone_windows_desktop_virtual_com_port\Release/../cdc/cdc_class.c:271
  cdc_struct_type *pcdc = (cdc_struct_type *)pudev->class_handler->pdata;
 800276c:	6843      	ldr	r3, [r0, #4]
F:\AT32-workspace\AT32F403ACGU7_clone_windows_desktop_virtual_com_port\Release/../cdc/cdc_class.c:268
{
 800276e:	e92d 47f0 	stmdb	sp!, {r4, r5, r6, r7, r8, r9, sl, lr}
F:\AT32-workspace\AT32F403ACGU7_clone_windows_desktop_virtual_com_port\Release/../cdc/cdc_class.c:271
  cdc_struct_type *pcdc = (cdc_struct_type *)pudev->class_handler->pdata;
 8002772:	6a5f      	ldr	r7, [r3, #36]	; 0x24
F:\AT32-workspace\AT32F403ACGU7_clone_windows_desktop_virtual_com_port\Release/../cdc/cdc_class.c:281
  if (len_buf + len > 12000) {
 8002774:	f8df 9078 	ldr.w	r9, [pc, #120]	; 80027f0 <class_out_handler+0x84>
F:\AT32-workspace\AT32F403ACGU7_clone_windows_desktop_virtual_com_port\Release/../cdc/cdc_class.c:268
{
 8002778:	4606      	mov	r6, r0
F:\AT32-workspace\AT32F403ACGU7_clone_windows_desktop_virtual_com_port\Release/../cdc/cdc_class.c:274
  pcdc->g_rxlen = usbd_get_recv_len(pudev, ept_num);
 800277a:	f7fe fac1 	bl	8000d00 <usbd_get_recv_len>
F:\AT32-workspace\AT32F403ACGU7_clone_windows_desktop_virtual_com_port\Release/../cdc/cdc_class.c:281
  if (len_buf + len > 12000) {
 800277e:	f8b9 5000 	ldrh.w	r5, [r9]
F:\AT32-workspace\AT32F403ACGU7_clone_windows_desktop_virtual_com_port\Release/../cdc/cdc_class.c:274
  pcdc->g_rxlen = usbd_get_recv_len(pudev, ept_num);
 8002782:	fa1f f880 	uxth.w	r8, r0
 8002786:	4644      	mov	r4, r8
F:\AT32-workspace\AT32F403ACGU7_clone_windows_desktop_virtual_com_port\Release/../cdc/cdc_class.c:277
  pcdc->g_rx_completed = 1;
 8002788:	2301      	movs	r3, #1
F:\AT32-workspace\AT32F403ACGU7_clone_windows_desktop_virtual_com_port\Release/../cdc/cdc_class.c:281
  if (len_buf + len > 12000) {
 800278a:	192a      	adds	r2, r5, r4
F:\AT32-workspace\AT32F403ACGU7_clone_windows_desktop_virtual_com_port\Release/../cdc/cdc_class.c:277
  pcdc->g_rx_completed = 1;
 800278c:	f887 3053 	strb.w	r3, [r7, #83]	; 0x53
F:\AT32-workspace\AT32F403ACGU7_clone_windows_desktop_virtual_com_port\Release/../cdc/cdc_class.c:281
  if (len_buf + len > 12000) {
 8002790:	f642 63e0 	movw	r3, #12000	; 0x2ee0
 8002794:	429a      	cmp	r2, r3
F:\AT32-workspace\AT32F403ACGU7_clone_windows_desktop_virtual_com_port\Release/../cdc/cdc_class.c:282
	  len = 12000 - len_buf;
 8002796:	bf88      	it	hi
 8002798:	1b5c      	subhi	r4, r3, r5
F:\AT32-workspace\AT32F403ACGU7_clone_windows_desktop_virtual_com_port\Release/../cdc/cdc_class.c:284
  memcpy(&buffer[len_buf + buf_offs], pcdc->g_rx_buff, len);
 800279a:	4b12      	ldr	r3, [pc, #72]	; (80027e4 <class_out_handler+0x78>)
 800279c:	4812      	ldr	r0, [pc, #72]	; (80027e8 <class_out_handler+0x7c>)
 800279e:	881a      	ldrh	r2, [r3, #0]
F:\AT32-workspace\AT32F403ACGU7_clone_windows_desktop_virtual_com_port\Release/../cdc/cdc_class.c:274
  pcdc->g_rxlen = usbd_get_recv_len(pudev, ept_num);
 80027a0:	f8a7 8050 	strh.w	r8, [r7, #80]	; 0x50
F:\AT32-workspace\AT32F403ACGU7_clone_windows_desktop_virtual_com_port\Release/../cdc/cdc_class.c:284
  memcpy(&buffer[len_buf + buf_offs], pcdc->g_rx_buff, len);
 80027a4:	442a      	add	r2, r5
 80027a6:	f107 0a04 	add.w	sl, r7, #4
F:\AT32-workspace\AT32F403ACGU7_clone_windows_desktop_virtual_com_port\Release/../cdc/cdc_class.c:285
  len_buf += len;
 80027aa:	bf88      	it	hi
 80027ac:	fa1f f884 	uxthhi.w	r8, r4
F:\AT32-workspace\AT32F403ACGU7_clone_windows_desktop_virtual_com_port\Release/../cdc/cdc_class.c:284
  memcpy(&buffer[len_buf + buf_offs], pcdc->g_rx_buff, len);
 80027b0:	4410      	add	r0, r2
 80027b2:	4651      	mov	r1, sl
 80027b4:	4622      	mov	r2, r4
 80027b6:	f002 fc97 	bl	80050e8 <memcpy>
F:\AT32-workspace\AT32F403ACGU7_clone_windows_desktop_virtual_com_port\Release/../cdc/cdc_class.c:285
  len_buf += len;
 80027ba:	eb05 0308 	add.w	r3, r5, r8
F:\AT32-workspace\AT32F403ACGU7_clone_windows_desktop_virtual_com_port\Release/../cdc/cdc_class.c:286
  if (len < USBD_CDC_OUT_MAXPACKET_SIZE) {  //Если данных принято меньше, чем размер пакета (или 0),
 80027be:	2c3f      	cmp	r4, #63	; 0x3f
F:\AT32-workspace\AT32F403ACGU7_clone_windows_desktop_virtual_com_port\Release/../cdc/cdc_class.c:285
  len_buf += len;
 80027c0:	f8a9 3000 	strh.w	r3, [r9]
F:\AT32-workspace\AT32F403ACGU7_clone_windows_desktop_virtual_com_port\Release/../cdc/cdc_class.c:286
  if (len < USBD_CDC_OUT_MAXPACKET_SIZE) {  //Если данных принято меньше, чем размер пакета (или 0),
 80027c4:	d802      	bhi.n	80027cc <class_out_handler+0x60>
F:\AT32-workspace\AT32F403ACGU7_clone_windows_desktop_virtual_com_port\Release/../cdc/cdc_class.c:287
	  recieve_fl = 1;						//то передача закончена - выставляем флаг "прием окончен"
 80027c6:	4b09      	ldr	r3, [pc, #36]	; (80027ec <class_out_handler+0x80>)
 80027c8:	2201      	movs	r2, #1
 80027ca:	701a      	strb	r2, [r3, #0]
F:\AT32-workspace\AT32F403ACGU7_clone_windows_desktop_virtual_com_port\Release/../cdc/cdc_class.c:289
  pcdc->g_rx_completed = 0;
 80027cc:	2400      	movs	r4, #0
F:\AT32-workspace\AT32F403ACGU7_clone_windows_desktop_virtual_com_port\Release/../cdc/cdc_class.c:290
  usbd_ept_recv(pudev, USBD_CDC_BULK_OUT_EPT, pcdc->g_rx_buff, USBD_CDC_OUT_MAXPACKET_SIZE);
 80027ce:	4630      	mov	r0, r6
F:\AT32-workspace\AT32F403ACGU7_clone_windows_desktop_virtual_com_port\Release/../cdc/cdc_class.c:289
  pcdc->g_rx_completed = 0;
 80027d0:	f887 4053 	strb.w	r4, [r7, #83]	; 0x53
F:\AT32-workspace\AT32F403ACGU7_clone_windows_desktop_virtual_com_port\Release/../cdc/cdc_class.c:290
  usbd_ept_recv(pudev, USBD_CDC_BULK_OUT_EPT, pcdc->g_rx_buff, USBD_CDC_OUT_MAXPACKET_SIZE);
 80027d4:	2340      	movs	r3, #64	; 0x40
 80027d6:	4652      	mov	r2, sl
 80027d8:	2101      	movs	r1, #1
 80027da:	f7fe fa67 	bl	8000cac <usbd_ept_recv>
F:\AT32-workspace\AT32F403ACGU7_clone_windows_desktop_virtual_com_port\Release/../cdc/cdc_class.c:293
}
 80027de:	4620      	mov	r0, r4
 80027e0:	e8bd 87f0 	ldmia.w	sp!, {r4, r5, r6, r7, r8, r9, sl, pc}
 80027e4:	200001e0 	.word	0x200001e0
 80027e8:	200001e4 	.word	0x200001e4
 80027ec:	20005fac 	.word	0x20005fac
 80027f0:	20005fa4 	.word	0x20005fa4

080027f4 <class_clear_handler>:
class_clear_handler():
F:\AT32-workspace\AT32F403ACGU7_clone_windows_desktop_virtual_com_port\Release/../cdc/cdc_class.c:129
{
 80027f4:	b510      	push	{r4, lr}
F:\AT32-workspace\AT32F403ACGU7_clone_windows_desktop_virtual_com_port\Release/../cdc/cdc_class.c:134
  usbd_ept_close(pudev, USBD_CDC_INT_EPT);
 80027f6:	2182      	movs	r1, #130	; 0x82
F:\AT32-workspace\AT32F403ACGU7_clone_windows_desktop_virtual_com_port\Release/../cdc/cdc_class.c:129
{
 80027f8:	4604      	mov	r4, r0
F:\AT32-workspace\AT32F403ACGU7_clone_windows_desktop_virtual_com_port\Release/../cdc/cdc_class.c:134
  usbd_ept_close(pudev, USBD_CDC_INT_EPT);
 80027fa:	f7fe fac1 	bl	8000d80 <usbd_ept_close>
F:\AT32-workspace\AT32F403ACGU7_clone_windows_desktop_virtual_com_port\Release/../cdc/cdc_class.c:137
  usbd_ept_close(pudev, USBD_CDC_BULK_IN_EPT);
 80027fe:	4620      	mov	r0, r4
 8002800:	2181      	movs	r1, #129	; 0x81
 8002802:	f7fe fabd 	bl	8000d80 <usbd_ept_close>
F:\AT32-workspace\AT32F403ACGU7_clone_windows_desktop_virtual_com_port\Release/../cdc/cdc_class.c:140
  usbd_ept_close(pudev, USBD_CDC_BULK_OUT_EPT);
 8002806:	4620      	mov	r0, r4
 8002808:	2101      	movs	r1, #1
 800280a:	f7fe fab9 	bl	8000d80 <usbd_ept_close>
F:\AT32-workspace\AT32F403ACGU7_clone_windows_desktop_virtual_com_port\Release/../cdc/cdc_class.c:143
}
 800280e:	2000      	movs	r0, #0
 8002810:	bd10      	pop	{r4, pc}
 8002812:	bf00      	nop

08002814 <class_init_handler>:
class_init_handler():
F:\AT32-workspace\AT32F403ACGU7_clone_windows_desktop_virtual_com_port\Release/../cdc/cdc_class.c:94
{
 8002814:	b538      	push	{r3, r4, r5, lr}
F:\AT32-workspace\AT32F403ACGU7_clone_windows_desktop_virtual_com_port\Release/../cdc/cdc_class.c:97
  cdc_struct_type *pcdc = (cdc_struct_type *)pudev->class_handler->pdata;
 8002816:	6843      	ldr	r3, [r0, #4]
F:\AT32-workspace\AT32F403ACGU7_clone_windows_desktop_virtual_com_port\Release/../cdc/cdc_class.c:94
{
 8002818:	4604      	mov	r4, r0
F:\AT32-workspace\AT32F403ACGU7_clone_windows_desktop_virtual_com_port\Release/../cdc/cdc_class.c:101
  usbd_ept_buf_custom_define(pudev, USBD_CDC_INT_EPT, EPT2_TX_ADDR);
 800281a:	f44f 72a0 	mov.w	r2, #320	; 0x140
 800281e:	2182      	movs	r1, #130	; 0x82
F:\AT32-workspace\AT32F403ACGU7_clone_windows_desktop_virtual_com_port\Release/../cdc/cdc_class.c:97
  cdc_struct_type *pcdc = (cdc_struct_type *)pudev->class_handler->pdata;
 8002820:	6a5d      	ldr	r5, [r3, #36]	; 0x24
F:\AT32-workspace\AT32F403ACGU7_clone_windows_desktop_virtual_com_port\Release/../cdc/cdc_class.c:101
  usbd_ept_buf_custom_define(pudev, USBD_CDC_INT_EPT, EPT2_TX_ADDR);
 8002822:	f7fe fa75 	bl	8000d10 <usbd_ept_buf_custom_define>
F:\AT32-workspace\AT32F403ACGU7_clone_windows_desktop_virtual_com_port\Release/../cdc/cdc_class.c:102
  usbd_ept_buf_custom_define(pudev, USBD_CDC_BULK_IN_EPT, EPT1_TX_ADDR);
 8002826:	4620      	mov	r0, r4
 8002828:	22c0      	movs	r2, #192	; 0xc0
 800282a:	2181      	movs	r1, #129	; 0x81
 800282c:	f7fe fa70 	bl	8000d10 <usbd_ept_buf_custom_define>
F:\AT32-workspace\AT32F403ACGU7_clone_windows_desktop_virtual_com_port\Release/../cdc/cdc_class.c:103
  usbd_ept_buf_custom_define(pudev, USBD_CDC_BULK_OUT_EPT, EPT1_RX_ADDR);
 8002830:	4620      	mov	r0, r4
 8002832:	f44f 7280 	mov.w	r2, #256	; 0x100
 8002836:	2101      	movs	r1, #1
 8002838:	f7fe fa6a 	bl	8000d10 <usbd_ept_buf_custom_define>
F:\AT32-workspace\AT32F403ACGU7_clone_windows_desktop_virtual_com_port\Release/../cdc/cdc_class.c:107
  usbd_ept_open(pudev, USBD_CDC_INT_EPT, EPT_INT_TYPE, USBD_CDC_CMD_MAXPACKET_SIZE);
 800283c:	4620      	mov	r0, r4
 800283e:	2308      	movs	r3, #8
 8002840:	2202      	movs	r2, #2
 8002842:	2182      	movs	r1, #130	; 0x82
 8002844:	f7fe fa7a 	bl	8000d3c <usbd_ept_open>
F:\AT32-workspace\AT32F403ACGU7_clone_windows_desktop_virtual_com_port\Release/../cdc/cdc_class.c:110
  usbd_ept_open(pudev, USBD_CDC_BULK_IN_EPT, EPT_BULK_TYPE, USBD_CDC_IN_MAXPACKET_SIZE);
 8002848:	4620      	mov	r0, r4
 800284a:	2340      	movs	r3, #64	; 0x40
 800284c:	2201      	movs	r2, #1
 800284e:	2181      	movs	r1, #129	; 0x81
 8002850:	f7fe fa74 	bl	8000d3c <usbd_ept_open>
F:\AT32-workspace\AT32F403ACGU7_clone_windows_desktop_virtual_com_port\Release/../cdc/cdc_class.c:113
  usbd_ept_open(pudev, USBD_CDC_BULK_OUT_EPT, EPT_BULK_TYPE, USBD_CDC_OUT_MAXPACKET_SIZE);
 8002854:	2201      	movs	r2, #1
 8002856:	4611      	mov	r1, r2
 8002858:	4620      	mov	r0, r4
 800285a:	2340      	movs	r3, #64	; 0x40
 800285c:	f7fe fa6e 	bl	8000d3c <usbd_ept_open>
F:\AT32-workspace\AT32F403ACGU7_clone_windows_desktop_virtual_com_port\Release/../cdc/cdc_class.c:116
  usbd_ept_recv(pudev, USBD_CDC_BULK_OUT_EPT, pcdc->g_rx_buff, USBD_CDC_OUT_MAXPACKET_SIZE);
 8002860:	4620      	mov	r0, r4
 8002862:	1d2a      	adds	r2, r5, #4
 8002864:	2340      	movs	r3, #64	; 0x40
 8002866:	2101      	movs	r1, #1
 8002868:	f7fe fa20 	bl	8000cac <usbd_ept_recv>
cdc_struct_init():
F:\AT32-workspace\AT32F403ACGU7_clone_windows_desktop_virtual_com_port\Release/../cdc/cdc_class.c:350
static usb_sts_type cdc_struct_init(cdc_struct_type *pcdc)
{
  pcdc->g_tx_completed = 1;
  pcdc->g_rx_completed = 0;
  pcdc->alt_setting = 0;
  pcdc->linecoding.bitrate = linecoding.bitrate;
 800286c:	4b08      	ldr	r3, [pc, #32]	; (8002890 <class_init_handler+0x7c>)
F:\AT32-workspace\AT32F403ACGU7_clone_windows_desktop_virtual_com_port\Release/../cdc/cdc_class.c:348
  pcdc->g_rx_completed = 0;
 800286e:	2000      	movs	r0, #0
F:\AT32-workspace\AT32F403ACGU7_clone_windows_desktop_virtual_com_port\Release/../cdc/cdc_class.c:349
  pcdc->alt_setting = 0;
 8002870:	6028      	str	r0, [r5, #0]
F:\AT32-workspace\AT32F403ACGU7_clone_windows_desktop_virtual_com_port\Release/../cdc/cdc_class.c:350
  pcdc->linecoding.bitrate = linecoding.bitrate;
 8002872:	6819      	ldr	r1, [r3, #0]
F:\AT32-workspace\AT32F403ACGU7_clone_windows_desktop_virtual_com_port\Release/../cdc/cdc_class.c:351
  pcdc->linecoding.data = linecoding.data;
 8002874:	799a      	ldrb	r2, [r3, #6]
F:\AT32-workspace\AT32F403ACGU7_clone_windows_desktop_virtual_com_port\Release/../cdc/cdc_class.c:352
  pcdc->linecoding.format = linecoding.format;
 8002876:	889b      	ldrh	r3, [r3, #4]
F:\AT32-workspace\AT32F403ACGU7_clone_windows_desktop_virtual_com_port\Release/../cdc/cdc_class.c:351
  pcdc->linecoding.data = linecoding.data;
 8002878:	f885 205a 	strb.w	r2, [r5, #90]	; 0x5a
F:\AT32-workspace\AT32F403ACGU7_clone_windows_desktop_virtual_com_port\Release/../cdc/cdc_class.c:347
  pcdc->g_tx_completed = 1;
 800287c:	2401      	movs	r4, #1
 800287e:	f885 4052 	strb.w	r4, [r5, #82]	; 0x52
F:\AT32-workspace\AT32F403ACGU7_clone_windows_desktop_virtual_com_port\Release/../cdc/cdc_class.c:352
  pcdc->linecoding.format = linecoding.format;
 8002882:	f8a5 3058 	strh.w	r3, [r5, #88]	; 0x58
F:\AT32-workspace\AT32F403ACGU7_clone_windows_desktop_virtual_com_port\Release/../cdc/cdc_class.c:348
  pcdc->g_rx_completed = 0;
 8002886:	f885 0053 	strb.w	r0, [r5, #83]	; 0x53
F:\AT32-workspace\AT32F403ACGU7_clone_windows_desktop_virtual_com_port\Release/../cdc/cdc_class.c:350
  pcdc->linecoding.bitrate = linecoding.bitrate;
 800288a:	6569      	str	r1, [r5, #84]	; 0x54
class_init_handler():
F:\AT32-workspace\AT32F403ACGU7_clone_windows_desktop_virtual_com_port\Release/../cdc/cdc_class.c:121
}
 800288c:	bd38      	pop	{r3, r4, r5, pc}
 800288e:	bf00      	nop
 8002890:	20000034 	.word	0x20000034

08002894 <class_sof_handler>:
class_sof_handler():
 8002894:	2000      	movs	r0, #0
 8002896:	4770      	bx	lr

08002898 <class_setup_handler>:
class_setup_handler():
F:\AT32-workspace\AT32F403ACGU7_clone_windows_desktop_virtual_com_port\Release/../cdc/cdc_class.c:152
{
 8002898:	b510      	push	{r4, lr}
F:\AT32-workspace\AT32F403ACGU7_clone_windows_desktop_virtual_com_port\Release/../cdc/cdc_class.c:155
  cdc_struct_type *pcdc = (cdc_struct_type *)pudev->class_handler->pdata;
 800289a:	6842      	ldr	r2, [r0, #4]
F:\AT32-workspace\AT32F403ACGU7_clone_windows_desktop_virtual_com_port\Release/../cdc/cdc_class.c:157
  switch(setup->bmRequestType & USB_REQ_TYPE_RESERVED)
 800289c:	780b      	ldrb	r3, [r1, #0]
F:\AT32-workspace\AT32F403ACGU7_clone_windows_desktop_virtual_com_port\Release/../cdc/cdc_class.c:155
  cdc_struct_type *pcdc = (cdc_struct_type *)pudev->class_handler->pdata;
 800289e:	6a54      	ldr	r4, [r2, #36]	; 0x24
F:\AT32-workspace\AT32F403ACGU7_clone_windows_desktop_virtual_com_port\Release/../cdc/cdc_class.c:157
  switch(setup->bmRequestType & USB_REQ_TYPE_RESERVED)
 80028a0:	f013 0260 	ands.w	r2, r3, #96	; 0x60
F:\AT32-workspace\AT32F403ACGU7_clone_windows_desktop_virtual_com_port\Release/../cdc/cdc_class.c:152
{
 80028a4:	4684      	mov	ip, r0
F:\AT32-workspace\AT32F403ACGU7_clone_windows_desktop_virtual_com_port\Release/../cdc/cdc_class.c:157
  switch(setup->bmRequestType & USB_REQ_TYPE_RESERVED)
 80028a6:	d016      	beq.n	80028d6 <class_setup_handler+0x3e>
 80028a8:	2a20      	cmp	r2, #32
 80028aa:	d10f      	bne.n	80028cc <class_setup_handler+0x34>
F:\AT32-workspace\AT32F403ACGU7_clone_windows_desktop_virtual_com_port\Release/../cdc/cdc_class.c:161
      if(setup->wLength)
 80028ac:	88ca      	ldrh	r2, [r1, #6]
 80028ae:	b15a      	cbz	r2, 80028c8 <class_setup_handler+0x30>
F:\AT32-workspace\AT32F403ACGU7_clone_windows_desktop_virtual_com_port\Release/../cdc/cdc_class.c:163
        if(setup->bmRequestType & USB_REQ_DIR_DTH)
 80028b0:	f013 0f80 	tst.w	r3, #128	; 0x80
F:\AT32-workspace\AT32F403ACGU7_clone_windows_desktop_virtual_com_port\Release/../cdc/cdc_class.c:165
          usb_vcp_cmd_process(udev, setup->bRequest, pcdc->g_cmd, setup->wLength);
 80028b4:	784b      	ldrb	r3, [r1, #1]
F:\AT32-workspace\AT32F403ACGU7_clone_windows_desktop_virtual_com_port\Release/../cdc/cdc_class.c:163
        if(setup->bmRequestType & USB_REQ_DIR_DTH)
 80028b6:	d133      	bne.n	8002920 <class_setup_handler+0x88>
F:\AT32-workspace\AT32F403ACGU7_clone_windows_desktop_virtual_com_port\Release/../cdc/cdc_class.c:170
          pcdc->g_req = setup->bRequest;
 80028b8:	f884 304c 	strb.w	r3, [r4, #76]	; 0x4c
F:\AT32-workspace\AT32F403ACGU7_clone_windows_desktop_virtual_com_port\Release/../cdc/cdc_class.c:171
          pcdc->g_len = setup->wLength;
 80028bc:	f8a4 204e 	strh.w	r2, [r4, #78]	; 0x4e
F:\AT32-workspace\AT32F403ACGU7_clone_windows_desktop_virtual_com_port\Release/../cdc/cdc_class.c:172
          usbd_ctrl_recv(pudev, pcdc->g_cmd, pcdc->g_len);
 80028c0:	f104 0144 	add.w	r1, r4, #68	; 0x44
 80028c4:	f7fd ffba 	bl	800083c <usbd_ctrl_recv>
F:\AT32-workspace\AT32F403ACGU7_clone_windows_desktop_virtual_com_port\Release/../cdc/cdc_class.c:204
}
 80028c8:	2000      	movs	r0, #0
 80028ca:	bd10      	pop	{r4, pc}
F:\AT32-workspace\AT32F403ACGU7_clone_windows_desktop_virtual_com_port\Release/../cdc/cdc_class.c:182
          usbd_ctrl_unsupport(pudev);
 80028cc:	4660      	mov	r0, ip
 80028ce:	f7fe f8ab 	bl	8000a28 <usbd_ctrl_unsupport>
F:\AT32-workspace\AT32F403ACGU7_clone_windows_desktop_virtual_com_port\Release/../cdc/cdc_class.c:204
}
 80028d2:	2000      	movs	r0, #0
 80028d4:	bd10      	pop	{r4, pc}
F:\AT32-workspace\AT32F403ACGU7_clone_windows_desktop_virtual_com_port\Release/../cdc/cdc_class.c:179
      switch(setup->bRequest)
 80028d6:	784b      	ldrb	r3, [r1, #1]
 80028d8:	3b01      	subs	r3, #1
 80028da:	2b0a      	cmp	r3, #10
 80028dc:	d8f6      	bhi.n	80028cc <class_setup_handler+0x34>
 80028de:	a201      	add	r2, pc, #4	; (adr r2, 80028e4 <class_setup_handler+0x4c>)
 80028e0:	f852 f023 	ldr.w	pc, [r2, r3, lsl #2]
 80028e4:	080028c9 	.word	0x080028c9
 80028e8:	080028cd 	.word	0x080028cd
 80028ec:	080028c9 	.word	0x080028c9
 80028f0:	080028cd 	.word	0x080028cd
 80028f4:	080028cd 	.word	0x080028cd
 80028f8:	080028cd 	.word	0x080028cd
 80028fc:	080028cd 	.word	0x080028cd
 8002900:	080028cd 	.word	0x080028cd
 8002904:	080028cd 	.word	0x080028cd
 8002908:	08002917 	.word	0x08002917
 800290c:	08002911 	.word	0x08002911
F:\AT32-workspace\AT32F403ACGU7_clone_windows_desktop_virtual_com_port\Release/../cdc/cdc_class.c:188
          pcdc->alt_setting = setup->wValue;
 8002910:	884b      	ldrh	r3, [r1, #2]
 8002912:	6023      	str	r3, [r4, #0]
F:\AT32-workspace\AT32F403ACGU7_clone_windows_desktop_virtual_com_port\Release/../cdc/cdc_class.c:189
          break;
 8002914:	e7d8      	b.n	80028c8 <class_setup_handler+0x30>
F:\AT32-workspace\AT32F403ACGU7_clone_windows_desktop_virtual_com_port\Release/../cdc/cdc_class.c:185
          usbd_ctrl_send(pudev, (uint8_t *)&pcdc->alt_setting, 1);
 8002916:	2201      	movs	r2, #1
 8002918:	4621      	mov	r1, r4
 800291a:	f7fd ff31 	bl	8000780 <usbd_ctrl_send>
F:\AT32-workspace\AT32F403ACGU7_clone_windows_desktop_virtual_com_port\Release/../cdc/cdc_class.c:186
          break;
 800291e:	e7d3      	b.n	80028c8 <class_setup_handler+0x30>
usb_vcp_cmd_process():
F:\AT32-workspace\AT32F403ACGU7_clone_windows_desktop_virtual_com_port\Release/../cdc/cdc_class.c:423
  */
static void usb_vcp_cmd_process(void *udev, uint8_t cmd, uint8_t *buff, uint16_t len)
{
  usbd_core_type *pudev = (usbd_core_type *)udev;
  cdc_struct_type *pcdc = (cdc_struct_type *)pudev->class_handler->pdata;
  switch(cmd)
 8002920:	2b20      	cmp	r3, #32
class_setup_handler():
F:\AT32-workspace\AT32F403ACGU7_clone_windows_desktop_virtual_com_port\Release/../cdc/cdc_class.c:165
          usb_vcp_cmd_process(udev, setup->bRequest, pcdc->g_cmd, setup->wLength);
 8002922:	f104 0044 	add.w	r0, r4, #68	; 0x44
usb_vcp_cmd_process():
F:\AT32-workspace\AT32F403ACGU7_clone_windows_desktop_virtual_com_port\Release/../cdc/cdc_class.c:423
  switch(cmd)
 8002926:	d01c      	beq.n	8002962 <class_setup_handler+0xca>
 8002928:	2b21      	cmp	r3, #33	; 0x21
 800292a:	d004      	beq.n	8002936 <class_setup_handler+0x9e>
class_setup_handler():
F:\AT32-workspace\AT32F403ACGU7_clone_windows_desktop_virtual_com_port\Release/../cdc/cdc_class.c:166
          usbd_ctrl_send(pudev, pcdc->g_cmd, setup->wLength);
 800292c:	4601      	mov	r1, r0
 800292e:	4660      	mov	r0, ip
 8002930:	f7fd ff26 	bl	8000780 <usbd_ctrl_send>
 8002934:	e7c8      	b.n	80028c8 <class_setup_handler+0x30>
usb_vcp_cmd_process():
F:\AT32-workspace\AT32F403ACGU7_clone_windows_desktop_virtual_com_port\Release/../cdc/cdc_class.c:437
      usb_usart_config(pcdc->linecoding);
#endif
      break;

    case GET_LINE_CODING:
      buff[0] = (uint8_t)pcdc->linecoding.bitrate;
 8002936:	6d63      	ldr	r3, [r4, #84]	; 0x54
F:\AT32-workspace\AT32F403ACGU7_clone_windows_desktop_virtual_com_port\Release/../cdc/cdc_class.c:441
      buff[1] = (uint8_t)(pcdc->linecoding.bitrate >> 8);
      buff[2] = (uint8_t)(pcdc->linecoding.bitrate >> 16);
      buff[3] = (uint8_t)(pcdc->linecoding.bitrate >> 24);
      buff[4] = (uint8_t)(pcdc->linecoding.format);
 8002938:	f8b4 2058 	ldrh.w	r2, [r4, #88]	; 0x58
 800293c:	f8a4 2048 	strh.w	r2, [r4, #72]	; 0x48
F:\AT32-workspace\AT32F403ACGU7_clone_windows_desktop_virtual_com_port\Release/../cdc/cdc_class.c:443
      buff[5] = (uint8_t)(pcdc->linecoding.parity);
      buff[6] = (uint8_t)(pcdc->linecoding.data);
 8002940:	f894 205a 	ldrb.w	r2, [r4, #90]	; 0x5a
 8002944:	f884 204a 	strb.w	r2, [r4, #74]	; 0x4a
F:\AT32-workspace\AT32F403ACGU7_clone_windows_desktop_virtual_com_port\Release/../cdc/cdc_class.c:438
      buff[1] = (uint8_t)(pcdc->linecoding.bitrate >> 8);
 8002948:	0a1a      	lsrs	r2, r3, #8
F:\AT32-workspace\AT32F403ACGU7_clone_windows_desktop_virtual_com_port\Release/../cdc/cdc_class.c:437
      buff[0] = (uint8_t)pcdc->linecoding.bitrate;
 800294a:	f884 3044 	strb.w	r3, [r4, #68]	; 0x44
F:\AT32-workspace\AT32F403ACGU7_clone_windows_desktop_virtual_com_port\Release/../cdc/cdc_class.c:438
      buff[1] = (uint8_t)(pcdc->linecoding.bitrate >> 8);
 800294e:	f884 2045 	strb.w	r2, [r4, #69]	; 0x45
F:\AT32-workspace\AT32F403ACGU7_clone_windows_desktop_virtual_com_port\Release/../cdc/cdc_class.c:439
      buff[2] = (uint8_t)(pcdc->linecoding.bitrate >> 16);
 8002952:	0c1a      	lsrs	r2, r3, #16
F:\AT32-workspace\AT32F403ACGU7_clone_windows_desktop_virtual_com_port\Release/../cdc/cdc_class.c:440
      buff[3] = (uint8_t)(pcdc->linecoding.bitrate >> 24);
 8002954:	0e1b      	lsrs	r3, r3, #24
F:\AT32-workspace\AT32F403ACGU7_clone_windows_desktop_virtual_com_port\Release/../cdc/cdc_class.c:439
      buff[2] = (uint8_t)(pcdc->linecoding.bitrate >> 16);
 8002956:	f884 2046 	strb.w	r2, [r4, #70]	; 0x46
F:\AT32-workspace\AT32F403ACGU7_clone_windows_desktop_virtual_com_port\Release/../cdc/cdc_class.c:440
      buff[3] = (uint8_t)(pcdc->linecoding.bitrate >> 24);
 800295a:	f884 3047 	strb.w	r3, [r4, #71]	; 0x47
class_setup_handler():
F:\AT32-workspace\AT32F403ACGU7_clone_windows_desktop_virtual_com_port\Release/../cdc/cdc_class.c:166
          usbd_ctrl_send(pudev, pcdc->g_cmd, setup->wLength);
 800295e:	88ca      	ldrh	r2, [r1, #6]
usb_vcp_cmd_process():
F:\AT32-workspace\AT32F403ACGU7_clone_windows_desktop_virtual_com_port\Release/../cdc/cdc_class.c:444
      break;
 8002960:	e7e4      	b.n	800292c <class_setup_handler+0x94>
F:\AT32-workspace\AT32F403ACGU7_clone_windows_desktop_virtual_com_port\Release/../cdc/cdc_class.c:426
      pcdc->linecoding.bitrate = (uint32_t)(buff[0] | (buff[1] << 8) | (buff[2] << 16) | (buff[3] <<24));
 8002962:	6c63      	ldr	r3, [r4, #68]	; 0x44
 8002964:	6563      	str	r3, [r4, #84]	; 0x54
F:\AT32-workspace\AT32F403ACGU7_clone_windows_desktop_virtual_com_port\Release/../cdc/cdc_class.c:427
      pcdc->linecoding.format = buff[4];
 8002966:	f8b4 3048 	ldrh.w	r3, [r4, #72]	; 0x48
 800296a:	f8a4 3058 	strh.w	r3, [r4, #88]	; 0x58
F:\AT32-workspace\AT32F403ACGU7_clone_windows_desktop_virtual_com_port\Release/../cdc/cdc_class.c:429
      pcdc->linecoding.data = buff[6];
 800296e:	f894 304a 	ldrb.w	r3, [r4, #74]	; 0x4a
 8002972:	f884 305a 	strb.w	r3, [r4, #90]	; 0x5a
F:\AT32-workspace\AT32F403ACGU7_clone_windows_desktop_virtual_com_port\Release/../cdc/cdc_class.c:434
      break;
 8002976:	e7d9      	b.n	800292c <class_setup_handler+0x94>

08002978 <class_ept0_rx_handler>:
class_ept0_rx_handler():
F:\AT32-workspace\AT32F403ACGU7_clone_windows_desktop_virtual_com_port\Release/../cdc/cdc_class.c:226
{
 8002978:	b538      	push	{r3, r4, r5, lr}
F:\AT32-workspace\AT32F403ACGU7_clone_windows_desktop_virtual_com_port\Release/../cdc/cdc_class.c:229
  cdc_struct_type *pcdc = (cdc_struct_type *)pudev->class_handler->pdata;
 800297a:	6843      	ldr	r3, [r0, #4]
 800297c:	6a5d      	ldr	r5, [r3, #36]	; 0x24
F:\AT32-workspace\AT32F403ACGU7_clone_windows_desktop_virtual_com_port\Release/../cdc/cdc_class.c:230
  uint32_t recv_len = usbd_get_recv_len(pudev, 0);
 800297e:	2100      	movs	r1, #0
F:\AT32-workspace\AT32F403ACGU7_clone_windows_desktop_virtual_com_port\Release/../cdc/cdc_class.c:226
{
 8002980:	4604      	mov	r4, r0
F:\AT32-workspace\AT32F403ACGU7_clone_windows_desktop_virtual_com_port\Release/../cdc/cdc_class.c:230
  uint32_t recv_len = usbd_get_recv_len(pudev, 0);
 8002982:	f7fe f9bd 	bl	8000d00 <usbd_get_recv_len>
F:\AT32-workspace\AT32F403ACGU7_clone_windows_desktop_virtual_com_port\Release/../cdc/cdc_class.c:232
  if( pcdc->g_req == SET_LINE_CODING)
 8002986:	f895 304c 	ldrb.w	r3, [r5, #76]	; 0x4c
 800298a:	2b20      	cmp	r3, #32
 800298c:	d001      	beq.n	8002992 <class_ept0_rx_handler+0x1a>
F:\AT32-workspace\AT32F403ACGU7_clone_windows_desktop_virtual_com_port\Release/../cdc/cdc_class.c:239
}
 800298e:	2000      	movs	r0, #0
 8002990:	bd38      	pop	{r3, r4, r5, pc}
usb_vcp_cmd_process():
F:\AT32-workspace\AT32F403ACGU7_clone_windows_desktop_virtual_com_port\Release/../cdc/cdc_class.c:422
  cdc_struct_type *pcdc = (cdc_struct_type *)pudev->class_handler->pdata;
 8002992:	6863      	ldr	r3, [r4, #4]
 8002994:	6c6a      	ldr	r2, [r5, #68]	; 0x44
 8002996:	6a5b      	ldr	r3, [r3, #36]	; 0x24
F:\AT32-workspace\AT32F403ACGU7_clone_windows_desktop_virtual_com_port\Release/../cdc/cdc_class.c:426
      pcdc->linecoding.bitrate = (uint32_t)(buff[0] | (buff[1] << 8) | (buff[2] << 16) | (buff[3] <<24));
 8002998:	655a      	str	r2, [r3, #84]	; 0x54
F:\AT32-workspace\AT32F403ACGU7_clone_windows_desktop_virtual_com_port\Release/../cdc/cdc_class.c:427
      pcdc->linecoding.format = buff[4];
 800299a:	f895 2048 	ldrb.w	r2, [r5, #72]	; 0x48
 800299e:	f883 2058 	strb.w	r2, [r3, #88]	; 0x58
F:\AT32-workspace\AT32F403ACGU7_clone_windows_desktop_virtual_com_port\Release/../cdc/cdc_class.c:428
      pcdc->linecoding.parity = buff[5];
 80029a2:	f895 2049 	ldrb.w	r2, [r5, #73]	; 0x49
 80029a6:	f883 2059 	strb.w	r2, [r3, #89]	; 0x59
F:\AT32-workspace\AT32F403ACGU7_clone_windows_desktop_virtual_com_port\Release/../cdc/cdc_class.c:429
      pcdc->linecoding.data = buff[6];
 80029aa:	f895 204a 	ldrb.w	r2, [r5, #74]	; 0x4a
 80029ae:	f883 205a 	strb.w	r2, [r3, #90]	; 0x5a
class_ept0_rx_handler():
F:\AT32-workspace\AT32F403ACGU7_clone_windows_desktop_virtual_com_port\Release/../cdc/cdc_class.c:239
}
 80029b2:	2000      	movs	r0, #0
 80029b4:	bd38      	pop	{r3, r4, r5, pc}
 80029b6:	bf00      	nop

080029b8 <usb_vcp_send_data>:
usb_vcp_send_data():
F:\AT32-workspace\AT32F403ACGU7_clone_windows_desktop_virtual_com_port\Release/../cdc/cdc_class.c:394
{
 80029b8:	b510      	push	{r4, lr}
F:\AT32-workspace\AT32F403ACGU7_clone_windows_desktop_virtual_com_port\Release/../cdc/cdc_class.c:397
  cdc_struct_type *pcdc = (cdc_struct_type *)pudev->class_handler->pdata;
 80029ba:	6843      	ldr	r3, [r0, #4]
 80029bc:	6a5c      	ldr	r4, [r3, #36]	; 0x24
F:\AT32-workspace\AT32F403ACGU7_clone_windows_desktop_virtual_com_port\Release/../cdc/cdc_class.c:398
  if(pcdc->g_tx_completed)
 80029be:	f894 3052 	ldrb.w	r3, [r4, #82]	; 0x52
 80029c2:	b91b      	cbnz	r3, 80029cc <usb_vcp_send_data+0x14>
 80029c4:	f003 0cff 	and.w	ip, r3, #255	; 0xff
F:\AT32-workspace\AT32F403ACGU7_clone_windows_desktop_virtual_com_port\Release/../cdc/cdc_class.c:408
}
 80029c8:	4660      	mov	r0, ip
 80029ca:	bd10      	pop	{r4, pc}
F:\AT32-workspace\AT32F403ACGU7_clone_windows_desktop_virtual_com_port\Release/../cdc/cdc_class.c:400
    pcdc->g_tx_completed = 0;
 80029cc:	2300      	movs	r3, #0
 80029ce:	f884 3052 	strb.w	r3, [r4, #82]	; 0x52
F:\AT32-workspace\AT32F403ACGU7_clone_windows_desktop_virtual_com_port\Release/../cdc/cdc_class.c:401
    usbd_ept_send(pudev, USBD_CDC_BULK_IN_EPT, send_data, len);
 80029d2:	4613      	mov	r3, r2
 80029d4:	460a      	mov	r2, r1
 80029d6:	2181      	movs	r1, #129	; 0x81
 80029d8:	f7fe f850 	bl	8000a7c <usbd_ept_send>
F:\AT32-workspace\AT32F403ACGU7_clone_windows_desktop_virtual_com_port\Release/../cdc/cdc_class.c:395
  error_status status = SUCCESS;
 80029dc:	f04f 0c01 	mov.w	ip, #1
F:\AT32-workspace\AT32F403ACGU7_clone_windows_desktop_virtual_com_port\Release/../cdc/cdc_class.c:408
}
 80029e0:	4660      	mov	r0, ip
 80029e2:	bd10      	pop	{r4, pc}

080029e4 <get_device_descriptor>:
get_device_descriptor():
F:\AT32-workspace\AT32F403ACGU7_clone_windows_desktop_virtual_com_port\Release/../cdc/cdc_desc.c:334
  * @retval usbd_desc
  */
static usbd_desc_t *get_device_descriptor(void)
{
  return &device_descriptor;
}
 80029e4:	4800      	ldr	r0, [pc, #0]	; (80029e8 <get_device_descriptor+0x4>)
 80029e6:	4770      	bx	lr
 80029e8:	2000006c 	.word	0x2000006c

080029ec <get_device_qualifier>:
get_device_qualifier():
F:\AT32-workspace\AT32F403ACGU7_clone_windows_desktop_virtual_com_port\Release/../cdc/cdc_desc.c:344
  * @retval usbd_desc
  */
static usbd_desc_t * get_device_qualifier(void)
{
  return NULL;
}
 80029ec:	2000      	movs	r0, #0
 80029ee:	4770      	bx	lr

080029f0 <get_device_configuration>:
get_device_configuration():
F:\AT32-workspace\AT32F403ACGU7_clone_windows_desktop_virtual_com_port\Release/../cdc/cdc_desc.c:354
  * @retval usbd_desc
  */
static usbd_desc_t *get_device_configuration(void)
{
  return &config_descriptor;
}
 80029f0:	4800      	ldr	r0, [pc, #0]	; (80029f4 <get_device_configuration+0x4>)
 80029f2:	4770      	bx	lr
 80029f4:	20000064 	.word	0x20000064

080029f8 <get_device_lang_id>:
get_device_lang_id():
F:\AT32-workspace\AT32F403ACGU7_clone_windows_desktop_virtual_com_port\Release/../cdc/cdc_desc.c:374
  * @retval usbd_desc
  */
static usbd_desc_t *get_device_lang_id(void)
{
  return &langid_descriptor;
}
 80029f8:	4800      	ldr	r0, [pc, #0]	; (80029fc <get_device_lang_id+0x4>)
 80029fa:	4770      	bx	lr
 80029fc:	200000ec 	.word	0x200000ec

08002a00 <get_device_manufacturer_string>:
get_device_manufacturer_string():
F:\AT32-workspace\AT32F403ACGU7_clone_windows_desktop_virtual_com_port\Release/../cdc/cdc_desc.c:383
  * @brief  get manufacturer descriptor
  * @param  none
  * @retval usbd_desc
  */
static usbd_desc_t *get_device_manufacturer_string(void)
{
 8002a00:	b530      	push	{r4, r5, lr}
 8002a02:	2100      	movs	r1, #0
 8002a04:	4d10      	ldr	r5, [pc, #64]	; (8002a48 <get_device_manufacturer_string+0x48>)
 8002a06:	4c11      	ldr	r4, [pc, #68]	; (8002a4c <get_device_manufacturer_string+0x4c>)
usbd_unicode_convert():
F:\AT32-workspace\AT32F403ACGU7_clone_windows_desktop_virtual_com_port\Release/../cdc/cdc_desc.c:262
  while(*tmp_str != '\0')
 8002a08:	2041      	movs	r0, #65	; 0x41
F:\AT32-workspace\AT32F403ACGU7_clone_windows_desktop_virtual_com_port\Release/../cdc/cdc_desc.c:259
  uint16_t str_len = 0, id_pos = 2;
 8002a0a:	2302      	movs	r3, #2
F:\AT32-workspace\AT32F403ACGU7_clone_windows_desktop_virtual_com_port\Release/../cdc/cdc_desc.c:266
    unicode_buf[id_pos ++] = 0x00;
 8002a0c:	468e      	mov	lr, r1
F:\AT32-workspace\AT32F403ACGU7_clone_windows_desktop_virtual_com_port\Release/../cdc/cdc_desc.c:265
    unicode_buf[id_pos ++] = *tmp_str ++;
 8002a0e:	1c5a      	adds	r2, r3, #1
 8002a10:	54e0      	strb	r0, [r4, r3]
 8002a12:	b292      	uxth	r2, r2
F:\AT32-workspace\AT32F403ACGU7_clone_windows_desktop_virtual_com_port\Release/../cdc/cdc_desc.c:262
  while(*tmp_str != '\0')
 8002a14:	f815 0f01 	ldrb.w	r0, [r5, #1]!
F:\AT32-workspace\AT32F403ACGU7_clone_windows_desktop_virtual_com_port\Release/../cdc/cdc_desc.c:266
    unicode_buf[id_pos ++] = 0x00;
 8002a18:	f804 e002 	strb.w	lr, [r4, r2]
 8002a1c:	3302      	adds	r3, #2
 8002a1e:	fa1f fc81 	uxth.w	ip, r1
 8002a22:	b29b      	uxth	r3, r3
F:\AT32-workspace\AT32F403ACGU7_clone_windows_desktop_virtual_com_port\Release/../cdc/cdc_desc.c:262
  while(*tmp_str != '\0')
 8002a24:	3101      	adds	r1, #1
 8002a26:	2800      	cmp	r0, #0
 8002a28:	d1f1      	bne.n	8002a0e <get_device_manufacturer_string+0xe>
F:\AT32-workspace\AT32F403ACGU7_clone_windows_desktop_virtual_com_port\Release/../cdc/cdc_desc.c:269
  str_len = str_len * 2 + 2;
 8002a2a:	f10c 0c02 	add.w	ip, ip, #2
get_device_manufacturer_string():
F:\AT32-workspace\AT32F403ACGU7_clone_windows_desktop_virtual_com_port\Release/../cdc/cdc_desc.c:384
  vp_desc.length = usbd_unicode_convert((uint8_t *)USBD_CDC_DESC_MANUFACTURER_STRING, g_usbd_desc_buffer);
 8002a2e:	4808      	ldr	r0, [pc, #32]	; (8002a50 <get_device_manufacturer_string+0x50>)
usbd_unicode_convert():
F:\AT32-workspace\AT32F403ACGU7_clone_windows_desktop_virtual_com_port\Release/../cdc/cdc_desc.c:269
  str_len = str_len * 2 + 2;
 8002a30:	ea4f 0c4c 	mov.w	ip, ip, lsl #1
 8002a34:	fa1f fc8c 	uxth.w	ip, ip
F:\AT32-workspace\AT32F403ACGU7_clone_windows_desktop_virtual_com_port\Release/../cdc/cdc_desc.c:271
  unicode_buf[1] = USB_DESCIPTOR_TYPE_STRING;
 8002a38:	2303      	movs	r3, #3
F:\AT32-workspace\AT32F403ACGU7_clone_windows_desktop_virtual_com_port\Release/../cdc/cdc_desc.c:270
  unicode_buf[0] = (uint8_t)str_len;
 8002a3a:	f884 c000 	strb.w	ip, [r4]
F:\AT32-workspace\AT32F403ACGU7_clone_windows_desktop_virtual_com_port\Release/../cdc/cdc_desc.c:271
  unicode_buf[1] = USB_DESCIPTOR_TYPE_STRING;
 8002a3e:	7063      	strb	r3, [r4, #1]
get_device_manufacturer_string():
F:\AT32-workspace\AT32F403ACGU7_clone_windows_desktop_virtual_com_port\Release/../cdc/cdc_desc.c:384
  vp_desc.length = usbd_unicode_convert((uint8_t *)USBD_CDC_DESC_MANUFACTURER_STRING, g_usbd_desc_buffer);
 8002a40:	f8a0 c000 	strh.w	ip, [r0]
F:\AT32-workspace\AT32F403ACGU7_clone_windows_desktop_virtual_com_port\Release/../cdc/cdc_desc.c:385
  vp_desc.descriptor = g_usbd_desc_buffer;
 8002a44:	6044      	str	r4, [r0, #4]
F:\AT32-workspace\AT32F403ACGU7_clone_windows_desktop_virtual_com_port\Release/../cdc/cdc_desc.c:387
  return &vp_desc;
}
 8002a46:	bd30      	pop	{r4, r5, pc}
 8002a48:	08005204 	.word	0x08005204
 8002a4c:	2000623c 	.word	0x2000623c
 8002a50:	2000633c 	.word	0x2000633c

08002a54 <get_device_product_string>:
get_device_product_string():
F:\AT32-workspace\AT32F403ACGU7_clone_windows_desktop_virtual_com_port\Release/../cdc/cdc_desc.c:395
  * @brief  get product descriptor
  * @param  none
  * @retval usbd_desc
  */
static usbd_desc_t *get_device_product_string(void)
{
 8002a54:	b530      	push	{r4, r5, lr}
 8002a56:	2100      	movs	r1, #0
 8002a58:	4d10      	ldr	r5, [pc, #64]	; (8002a9c <get_device_product_string+0x48>)
 8002a5a:	4c11      	ldr	r4, [pc, #68]	; (8002aa0 <get_device_product_string+0x4c>)
usbd_unicode_convert():
F:\AT32-workspace\AT32F403ACGU7_clone_windows_desktop_virtual_com_port\Release/../cdc/cdc_desc.c:262
  while(*tmp_str != '\0')
 8002a5c:	2041      	movs	r0, #65	; 0x41
F:\AT32-workspace\AT32F403ACGU7_clone_windows_desktop_virtual_com_port\Release/../cdc/cdc_desc.c:259
  uint16_t str_len = 0, id_pos = 2;
 8002a5e:	2302      	movs	r3, #2
F:\AT32-workspace\AT32F403ACGU7_clone_windows_desktop_virtual_com_port\Release/../cdc/cdc_desc.c:266
    unicode_buf[id_pos ++] = 0x00;
 8002a60:	468e      	mov	lr, r1
F:\AT32-workspace\AT32F403ACGU7_clone_windows_desktop_virtual_com_port\Release/../cdc/cdc_desc.c:265
    unicode_buf[id_pos ++] = *tmp_str ++;
 8002a62:	1c5a      	adds	r2, r3, #1
 8002a64:	54e0      	strb	r0, [r4, r3]
 8002a66:	b292      	uxth	r2, r2
F:\AT32-workspace\AT32F403ACGU7_clone_windows_desktop_virtual_com_port\Release/../cdc/cdc_desc.c:262
  while(*tmp_str != '\0')
 8002a68:	f815 0f01 	ldrb.w	r0, [r5, #1]!
F:\AT32-workspace\AT32F403ACGU7_clone_windows_desktop_virtual_com_port\Release/../cdc/cdc_desc.c:266
    unicode_buf[id_pos ++] = 0x00;
 8002a6c:	f804 e002 	strb.w	lr, [r4, r2]
 8002a70:	3302      	adds	r3, #2
 8002a72:	fa1f fc81 	uxth.w	ip, r1
 8002a76:	b29b      	uxth	r3, r3
F:\AT32-workspace\AT32F403ACGU7_clone_windows_desktop_virtual_com_port\Release/../cdc/cdc_desc.c:262
  while(*tmp_str != '\0')
 8002a78:	3101      	adds	r1, #1
 8002a7a:	2800      	cmp	r0, #0
 8002a7c:	d1f1      	bne.n	8002a62 <get_device_product_string+0xe>
F:\AT32-workspace\AT32F403ACGU7_clone_windows_desktop_virtual_com_port\Release/../cdc/cdc_desc.c:269
  str_len = str_len * 2 + 2;
 8002a7e:	f10c 0c02 	add.w	ip, ip, #2
get_device_product_string():
F:\AT32-workspace\AT32F403ACGU7_clone_windows_desktop_virtual_com_port\Release/../cdc/cdc_desc.c:396
  vp_desc.length = usbd_unicode_convert((uint8_t *)USBD_CDC_DESC_PRODUCT_STRING, g_usbd_desc_buffer);
 8002a82:	4808      	ldr	r0, [pc, #32]	; (8002aa4 <get_device_product_string+0x50>)
usbd_unicode_convert():
F:\AT32-workspace\AT32F403ACGU7_clone_windows_desktop_virtual_com_port\Release/../cdc/cdc_desc.c:269
  str_len = str_len * 2 + 2;
 8002a84:	ea4f 0c4c 	mov.w	ip, ip, lsl #1
 8002a88:	fa1f fc8c 	uxth.w	ip, ip
F:\AT32-workspace\AT32F403ACGU7_clone_windows_desktop_virtual_com_port\Release/../cdc/cdc_desc.c:271
  unicode_buf[1] = USB_DESCIPTOR_TYPE_STRING;
 8002a8c:	2303      	movs	r3, #3
F:\AT32-workspace\AT32F403ACGU7_clone_windows_desktop_virtual_com_port\Release/../cdc/cdc_desc.c:270
  unicode_buf[0] = (uint8_t)str_len;
 8002a8e:	f884 c000 	strb.w	ip, [r4]
F:\AT32-workspace\AT32F403ACGU7_clone_windows_desktop_virtual_com_port\Release/../cdc/cdc_desc.c:271
  unicode_buf[1] = USB_DESCIPTOR_TYPE_STRING;
 8002a92:	7063      	strb	r3, [r4, #1]
get_device_product_string():
F:\AT32-workspace\AT32F403ACGU7_clone_windows_desktop_virtual_com_port\Release/../cdc/cdc_desc.c:396
  vp_desc.length = usbd_unicode_convert((uint8_t *)USBD_CDC_DESC_PRODUCT_STRING, g_usbd_desc_buffer);
 8002a94:	f8a0 c000 	strh.w	ip, [r0]
F:\AT32-workspace\AT32F403ACGU7_clone_windows_desktop_virtual_com_port\Release/../cdc/cdc_desc.c:397
  vp_desc.descriptor = g_usbd_desc_buffer;
 8002a98:	6044      	str	r4, [r0, #4]
F:\AT32-workspace\AT32F403ACGU7_clone_windows_desktop_virtual_com_port\Release/../cdc/cdc_desc.c:399
  return &vp_desc;
}
 8002a9a:	bd30      	pop	{r4, r5, pc}
 8002a9c:	0800520c 	.word	0x0800520c
 8002aa0:	2000623c 	.word	0x2000623c
 8002aa4:	2000633c 	.word	0x2000633c

08002aa8 <get_device_interface_string>:
get_device_interface_string():
F:\AT32-workspace\AT32F403ACGU7_clone_windows_desktop_virtual_com_port\Release/../cdc/cdc_desc.c:418
  * @brief  get interface descriptor
  * @param  none
  * @retval usbd_desc
  */
static usbd_desc_t *get_device_interface_string(void)
{
 8002aa8:	b530      	push	{r4, r5, lr}
 8002aaa:	2100      	movs	r1, #0
 8002aac:	4d10      	ldr	r5, [pc, #64]	; (8002af0 <get_device_interface_string+0x48>)
 8002aae:	4c11      	ldr	r4, [pc, #68]	; (8002af4 <get_device_interface_string+0x4c>)
usbd_unicode_convert():
F:\AT32-workspace\AT32F403ACGU7_clone_windows_desktop_virtual_com_port\Release/../cdc/cdc_desc.c:262
  while(*tmp_str != '\0')
 8002ab0:	2056      	movs	r0, #86	; 0x56
F:\AT32-workspace\AT32F403ACGU7_clone_windows_desktop_virtual_com_port\Release/../cdc/cdc_desc.c:259
  uint16_t str_len = 0, id_pos = 2;
 8002ab2:	2302      	movs	r3, #2
F:\AT32-workspace\AT32F403ACGU7_clone_windows_desktop_virtual_com_port\Release/../cdc/cdc_desc.c:266
    unicode_buf[id_pos ++] = 0x00;
 8002ab4:	468e      	mov	lr, r1
F:\AT32-workspace\AT32F403ACGU7_clone_windows_desktop_virtual_com_port\Release/../cdc/cdc_desc.c:265
    unicode_buf[id_pos ++] = *tmp_str ++;
 8002ab6:	1c5a      	adds	r2, r3, #1
 8002ab8:	54e0      	strb	r0, [r4, r3]
 8002aba:	b292      	uxth	r2, r2
F:\AT32-workspace\AT32F403ACGU7_clone_windows_desktop_virtual_com_port\Release/../cdc/cdc_desc.c:262
  while(*tmp_str != '\0')
 8002abc:	f815 0f01 	ldrb.w	r0, [r5, #1]!
F:\AT32-workspace\AT32F403ACGU7_clone_windows_desktop_virtual_com_port\Release/../cdc/cdc_desc.c:266
    unicode_buf[id_pos ++] = 0x00;
 8002ac0:	f804 e002 	strb.w	lr, [r4, r2]
 8002ac4:	3302      	adds	r3, #2
 8002ac6:	fa1f fc81 	uxth.w	ip, r1
 8002aca:	b29b      	uxth	r3, r3
F:\AT32-workspace\AT32F403ACGU7_clone_windows_desktop_virtual_com_port\Release/../cdc/cdc_desc.c:262
  while(*tmp_str != '\0')
 8002acc:	3101      	adds	r1, #1
 8002ace:	2800      	cmp	r0, #0
 8002ad0:	d1f1      	bne.n	8002ab6 <get_device_interface_string+0xe>
F:\AT32-workspace\AT32F403ACGU7_clone_windows_desktop_virtual_com_port\Release/../cdc/cdc_desc.c:269
  str_len = str_len * 2 + 2;
 8002ad2:	f10c 0c02 	add.w	ip, ip, #2
get_device_interface_string():
F:\AT32-workspace\AT32F403ACGU7_clone_windows_desktop_virtual_com_port\Release/../cdc/cdc_desc.c:419
  vp_desc.length = usbd_unicode_convert((uint8_t *)USBD_CDC_DESC_INTERFACE_STRING, g_usbd_desc_buffer);
 8002ad6:	4808      	ldr	r0, [pc, #32]	; (8002af8 <get_device_interface_string+0x50>)
usbd_unicode_convert():
F:\AT32-workspace\AT32F403ACGU7_clone_windows_desktop_virtual_com_port\Release/../cdc/cdc_desc.c:269
  str_len = str_len * 2 + 2;
 8002ad8:	ea4f 0c4c 	mov.w	ip, ip, lsl #1
 8002adc:	fa1f fc8c 	uxth.w	ip, ip
F:\AT32-workspace\AT32F403ACGU7_clone_windows_desktop_virtual_com_port\Release/../cdc/cdc_desc.c:271
  unicode_buf[1] = USB_DESCIPTOR_TYPE_STRING;
 8002ae0:	2303      	movs	r3, #3
F:\AT32-workspace\AT32F403ACGU7_clone_windows_desktop_virtual_com_port\Release/../cdc/cdc_desc.c:270
  unicode_buf[0] = (uint8_t)str_len;
 8002ae2:	f884 c000 	strb.w	ip, [r4]
F:\AT32-workspace\AT32F403ACGU7_clone_windows_desktop_virtual_com_port\Release/../cdc/cdc_desc.c:271
  unicode_buf[1] = USB_DESCIPTOR_TYPE_STRING;
 8002ae6:	7063      	strb	r3, [r4, #1]
get_device_interface_string():
F:\AT32-workspace\AT32F403ACGU7_clone_windows_desktop_virtual_com_port\Release/../cdc/cdc_desc.c:419
  vp_desc.length = usbd_unicode_convert((uint8_t *)USBD_CDC_DESC_INTERFACE_STRING, g_usbd_desc_buffer);
 8002ae8:	f8a0 c000 	strh.w	ip, [r0]
F:\AT32-workspace\AT32F403ACGU7_clone_windows_desktop_virtual_com_port\Release/../cdc/cdc_desc.c:420
  vp_desc.descriptor = g_usbd_desc_buffer;
 8002aec:	6044      	str	r4, [r0, #4]
F:\AT32-workspace\AT32F403ACGU7_clone_windows_desktop_virtual_com_port\Release/../cdc/cdc_desc.c:422
  return &vp_desc;
}
 8002aee:	bd30      	pop	{r4, r5, pc}
 8002af0:	08005224 	.word	0x08005224
 8002af4:	2000623c 	.word	0x2000623c
 8002af8:	2000633c 	.word	0x2000633c

08002afc <get_device_config_string>:
get_device_config_string():
F:\AT32-workspace\AT32F403ACGU7_clone_windows_desktop_virtual_com_port\Release/../cdc/cdc_desc.c:430
  * @brief  get device config descriptor
  * @param  none
  * @retval usbd_desc
  */
static usbd_desc_t *get_device_config_string(void)
{
 8002afc:	b530      	push	{r4, r5, lr}
 8002afe:	2100      	movs	r1, #0
 8002b00:	4d10      	ldr	r5, [pc, #64]	; (8002b44 <get_device_config_string+0x48>)
 8002b02:	4c11      	ldr	r4, [pc, #68]	; (8002b48 <get_device_config_string+0x4c>)
usbd_unicode_convert():
F:\AT32-workspace\AT32F403ACGU7_clone_windows_desktop_virtual_com_port\Release/../cdc/cdc_desc.c:262
  while(*tmp_str != '\0')
 8002b04:	2056      	movs	r0, #86	; 0x56
F:\AT32-workspace\AT32F403ACGU7_clone_windows_desktop_virtual_com_port\Release/../cdc/cdc_desc.c:259
  uint16_t str_len = 0, id_pos = 2;
 8002b06:	2302      	movs	r3, #2
F:\AT32-workspace\AT32F403ACGU7_clone_windows_desktop_virtual_com_port\Release/../cdc/cdc_desc.c:266
    unicode_buf[id_pos ++] = 0x00;
 8002b08:	468e      	mov	lr, r1
F:\AT32-workspace\AT32F403ACGU7_clone_windows_desktop_virtual_com_port\Release/../cdc/cdc_desc.c:265
    unicode_buf[id_pos ++] = *tmp_str ++;
 8002b0a:	1c5a      	adds	r2, r3, #1
 8002b0c:	54e0      	strb	r0, [r4, r3]
 8002b0e:	b292      	uxth	r2, r2
F:\AT32-workspace\AT32F403ACGU7_clone_windows_desktop_virtual_com_port\Release/../cdc/cdc_desc.c:262
  while(*tmp_str != '\0')
 8002b10:	f815 0f01 	ldrb.w	r0, [r5, #1]!
F:\AT32-workspace\AT32F403ACGU7_clone_windows_desktop_virtual_com_port\Release/../cdc/cdc_desc.c:266
    unicode_buf[id_pos ++] = 0x00;
 8002b14:	f804 e002 	strb.w	lr, [r4, r2]
 8002b18:	3302      	adds	r3, #2
 8002b1a:	fa1f fc81 	uxth.w	ip, r1
 8002b1e:	b29b      	uxth	r3, r3
F:\AT32-workspace\AT32F403ACGU7_clone_windows_desktop_virtual_com_port\Release/../cdc/cdc_desc.c:262
  while(*tmp_str != '\0')
 8002b20:	3101      	adds	r1, #1
 8002b22:	2800      	cmp	r0, #0
 8002b24:	d1f1      	bne.n	8002b0a <get_device_config_string+0xe>
F:\AT32-workspace\AT32F403ACGU7_clone_windows_desktop_virtual_com_port\Release/../cdc/cdc_desc.c:269
  str_len = str_len * 2 + 2;
 8002b26:	f10c 0c02 	add.w	ip, ip, #2
get_device_config_string():
F:\AT32-workspace\AT32F403ACGU7_clone_windows_desktop_virtual_com_port\Release/../cdc/cdc_desc.c:431
  vp_desc.length = usbd_unicode_convert((uint8_t *)USBD_CDC_DESC_CONFIGURATION_STRING, g_usbd_desc_buffer);
 8002b2a:	4808      	ldr	r0, [pc, #32]	; (8002b4c <get_device_config_string+0x50>)
usbd_unicode_convert():
F:\AT32-workspace\AT32F403ACGU7_clone_windows_desktop_virtual_com_port\Release/../cdc/cdc_desc.c:269
  str_len = str_len * 2 + 2;
 8002b2c:	ea4f 0c4c 	mov.w	ip, ip, lsl #1
 8002b30:	fa1f fc8c 	uxth.w	ip, ip
F:\AT32-workspace\AT32F403ACGU7_clone_windows_desktop_virtual_com_port\Release/../cdc/cdc_desc.c:271
  unicode_buf[1] = USB_DESCIPTOR_TYPE_STRING;
 8002b34:	2303      	movs	r3, #3
F:\AT32-workspace\AT32F403ACGU7_clone_windows_desktop_virtual_com_port\Release/../cdc/cdc_desc.c:270
  unicode_buf[0] = (uint8_t)str_len;
 8002b36:	f884 c000 	strb.w	ip, [r4]
F:\AT32-workspace\AT32F403ACGU7_clone_windows_desktop_virtual_com_port\Release/../cdc/cdc_desc.c:271
  unicode_buf[1] = USB_DESCIPTOR_TYPE_STRING;
 8002b3a:	7063      	strb	r3, [r4, #1]
get_device_config_string():
F:\AT32-workspace\AT32F403ACGU7_clone_windows_desktop_virtual_com_port\Release/../cdc/cdc_desc.c:431
  vp_desc.length = usbd_unicode_convert((uint8_t *)USBD_CDC_DESC_CONFIGURATION_STRING, g_usbd_desc_buffer);
 8002b3c:	f8a0 c000 	strh.w	ip, [r0]
F:\AT32-workspace\AT32F403ACGU7_clone_windows_desktop_virtual_com_port\Release/../cdc/cdc_desc.c:432
  vp_desc.descriptor = g_usbd_desc_buffer;
 8002b40:	6044      	str	r4, [r0, #4]
F:\AT32-workspace\AT32F403ACGU7_clone_windows_desktop_virtual_com_port\Release/../cdc/cdc_desc.c:434
  return &vp_desc;
}
 8002b42:	bd30      	pop	{r4, r5, pc}
 8002b44:	08005240 	.word	0x08005240
 8002b48:	2000623c 	.word	0x2000623c
 8002b4c:	2000633c 	.word	0x2000633c

08002b50 <get_device_serial_string>:
get_serial_num():
F:\AT32-workspace\AT32F403ACGU7_clone_windows_desktop_virtual_com_port\Release/../cdc/cdc_desc.c:313
  serial0 = *(uint32_t*)MCU_ID1;
 8002b50:	4a43      	ldr	r2, [pc, #268]	; (8002c60 <get_device_serial_string+0x110>)
 8002b52:	f8d2 17e8 	ldr.w	r1, [r2, #2024]	; 0x7e8
F:\AT32-workspace\AT32F403ACGU7_clone_windows_desktop_virtual_com_port\Release/../cdc/cdc_desc.c:317
  serial0 += serial2;
 8002b56:	f8d2 37f0 	ldr.w	r3, [r2, #2032]	; 0x7f0
F:\AT32-workspace\AT32F403ACGU7_clone_windows_desktop_virtual_com_port\Release/../cdc/cdc_desc.c:319
  if (serial0 != 0)
 8002b5a:	18cb      	adds	r3, r1, r3
 8002b5c:	d101      	bne.n	8002b62 <get_device_serial_string+0x12>
get_device_serial_string():
F:\AT32-workspace\AT32F403ACGU7_clone_windows_desktop_virtual_com_port\Release/../cdc/cdc_desc.c:410
}
 8002b5e:	4841      	ldr	r0, [pc, #260]	; (8002c64 <get_device_serial_string+0x114>)
 8002b60:	4770      	bx	lr
get_serial_num():
F:\AT32-workspace\AT32F403ACGU7_clone_windows_desktop_virtual_com_port\Release/../cdc/cdc_desc.c:314
  serial1 = *(uint32_t*)MCU_ID2;
 8002b62:	f8d2 17ec 	ldr.w	r1, [r2, #2028]	; 0x7ec
usbd_int_to_unicode():
F:\AT32-workspace\AT32F403ACGU7_clone_windows_desktop_virtual_com_port\Release/../cdc/cdc_desc.c:291
      pbuf[ 2 * idx] = (value >> 28) + '0';
 8002b66:	4a40      	ldr	r2, [pc, #256]	; (8002c68 <get_device_serial_string+0x118>)
F:\AT32-workspace\AT32F403ACGU7_clone_windows_desktop_virtual_com_port\Release/../cdc/cdc_desc.c:289
    if( ((value >> 28)) < 0xA )
 8002b68:	0f18      	lsrs	r0, r3, #28
 8002b6a:	f1b3 4f20 	cmp.w	r3, #2684354560	; 0xa0000000
F:\AT32-workspace\AT32F403ACGU7_clone_windows_desktop_virtual_com_port\Release/../cdc/cdc_desc.c:295
      pbuf[2 * idx] = (value >> 28) + 'A' - 10;
 8002b6e:	bf2c      	ite	cs
 8002b70:	3037      	addcs	r0, #55	; 0x37
F:\AT32-workspace\AT32F403ACGU7_clone_windows_desktop_virtual_com_port\Release/../cdc/cdc_desc.c:291
      pbuf[ 2 * idx] = (value >> 28) + '0';
 8002b72:	3030      	addcc	r0, #48	; 0x30
 8002b74:	7090      	strb	r0, [r2, #2]
F:\AT32-workspace\AT32F403ACGU7_clone_windows_desktop_virtual_com_port\Release/../cdc/cdc_desc.c:289
    if( ((value >> 28)) < 0xA )
 8002b76:	f3c3 6003 	ubfx	r0, r3, #24, #4
 8002b7a:	2809      	cmp	r0, #9
F:\AT32-workspace\AT32F403ACGU7_clone_windows_desktop_virtual_com_port\Release/../cdc/cdc_desc.c:295
      pbuf[2 * idx] = (value >> 28) + 'A' - 10;
 8002b7c:	bf8c      	ite	hi
 8002b7e:	3037      	addhi	r0, #55	; 0x37
F:\AT32-workspace\AT32F403ACGU7_clone_windows_desktop_virtual_com_port\Release/../cdc/cdc_desc.c:291
      pbuf[ 2 * idx] = (value >> 28) + '0';
 8002b80:	3030      	addls	r0, #48	; 0x30
 8002b82:	7110      	strb	r0, [r2, #4]
F:\AT32-workspace\AT32F403ACGU7_clone_windows_desktop_virtual_com_port\Release/../cdc/cdc_desc.c:289
    if( ((value >> 28)) < 0xA )
 8002b84:	f3c3 5003 	ubfx	r0, r3, #20, #4
 8002b88:	2809      	cmp	r0, #9
F:\AT32-workspace\AT32F403ACGU7_clone_windows_desktop_virtual_com_port\Release/../cdc/cdc_desc.c:295
      pbuf[2 * idx] = (value >> 28) + 'A' - 10;
 8002b8a:	bf8c      	ite	hi
 8002b8c:	3037      	addhi	r0, #55	; 0x37
F:\AT32-workspace\AT32F403ACGU7_clone_windows_desktop_virtual_com_port\Release/../cdc/cdc_desc.c:291
      pbuf[ 2 * idx] = (value >> 28) + '0';
 8002b8e:	3030      	addls	r0, #48	; 0x30
 8002b90:	7190      	strb	r0, [r2, #6]
F:\AT32-workspace\AT32F403ACGU7_clone_windows_desktop_virtual_com_port\Release/../cdc/cdc_desc.c:289
    if( ((value >> 28)) < 0xA )
 8002b92:	f3c3 4003 	ubfx	r0, r3, #16, #4
 8002b96:	2809      	cmp	r0, #9
F:\AT32-workspace\AT32F403ACGU7_clone_windows_desktop_virtual_com_port\Release/../cdc/cdc_desc.c:295
      pbuf[2 * idx] = (value >> 28) + 'A' - 10;
 8002b98:	bf8c      	ite	hi
 8002b9a:	3037      	addhi	r0, #55	; 0x37
F:\AT32-workspace\AT32F403ACGU7_clone_windows_desktop_virtual_com_port\Release/../cdc/cdc_desc.c:291
      pbuf[ 2 * idx] = (value >> 28) + '0';
 8002b9c:	3030      	addls	r0, #48	; 0x30
 8002b9e:	7210      	strb	r0, [r2, #8]
F:\AT32-workspace\AT32F403ACGU7_clone_windows_desktop_virtual_com_port\Release/../cdc/cdc_desc.c:289
    if( ((value >> 28)) < 0xA )
 8002ba0:	f3c3 3003 	ubfx	r0, r3, #12, #4
 8002ba4:	2809      	cmp	r0, #9
F:\AT32-workspace\AT32F403ACGU7_clone_windows_desktop_virtual_com_port\Release/../cdc/cdc_desc.c:295
      pbuf[2 * idx] = (value >> 28) + 'A' - 10;
 8002ba6:	bf8c      	ite	hi
 8002ba8:	3037      	addhi	r0, #55	; 0x37
F:\AT32-workspace\AT32F403ACGU7_clone_windows_desktop_virtual_com_port\Release/../cdc/cdc_desc.c:291
      pbuf[ 2 * idx] = (value >> 28) + '0';
 8002baa:	3030      	addls	r0, #48	; 0x30
 8002bac:	7290      	strb	r0, [r2, #10]
F:\AT32-workspace\AT32F403ACGU7_clone_windows_desktop_virtual_com_port\Release/../cdc/cdc_desc.c:289
    if( ((value >> 28)) < 0xA )
 8002bae:	f3c3 2003 	ubfx	r0, r3, #8, #4
 8002bb2:	2809      	cmp	r0, #9
F:\AT32-workspace\AT32F403ACGU7_clone_windows_desktop_virtual_com_port\Release/../cdc/cdc_desc.c:295
      pbuf[2 * idx] = (value >> 28) + 'A' - 10;
 8002bb4:	bf8c      	ite	hi
 8002bb6:	3037      	addhi	r0, #55	; 0x37
F:\AT32-workspace\AT32F403ACGU7_clone_windows_desktop_virtual_com_port\Release/../cdc/cdc_desc.c:291
      pbuf[ 2 * idx] = (value >> 28) + '0';
 8002bb8:	3030      	addls	r0, #48	; 0x30
 8002bba:	7310      	strb	r0, [r2, #12]
F:\AT32-workspace\AT32F403ACGU7_clone_windows_desktop_virtual_com_port\Release/../cdc/cdc_desc.c:289
    if( ((value >> 28)) < 0xA )
 8002bbc:	f3c3 1003 	ubfx	r0, r3, #4, #4
 8002bc0:	2809      	cmp	r0, #9
 8002bc2:	f003 030f 	and.w	r3, r3, #15
F:\AT32-workspace\AT32F403ACGU7_clone_windows_desktop_virtual_com_port\Release/../cdc/cdc_desc.c:295
      pbuf[2 * idx] = (value >> 28) + 'A' - 10;
 8002bc6:	bf8c      	ite	hi
 8002bc8:	3037      	addhi	r0, #55	; 0x37
F:\AT32-workspace\AT32F403ACGU7_clone_windows_desktop_virtual_com_port\Release/../cdc/cdc_desc.c:291
      pbuf[ 2 * idx] = (value >> 28) + '0';
 8002bca:	3030      	addls	r0, #48	; 0x30
F:\AT32-workspace\AT32F403ACGU7_clone_windows_desktop_virtual_com_port\Release/../cdc/cdc_desc.c:289
    if( ((value >> 28)) < 0xA )
 8002bcc:	2b09      	cmp	r3, #9
F:\AT32-workspace\AT32F403ACGU7_clone_windows_desktop_virtual_com_port\Release/../cdc/cdc_desc.c:291
      pbuf[ 2 * idx] = (value >> 28) + '0';
 8002bce:	bf94      	ite	ls
 8002bd0:	3330      	addls	r3, #48	; 0x30
F:\AT32-workspace\AT32F403ACGU7_clone_windows_desktop_virtual_com_port\Release/../cdc/cdc_desc.c:295
      pbuf[2 * idx] = (value >> 28) + 'A' - 10;
 8002bd2:	3337      	addhi	r3, #55	; 0x37
 8002bd4:	7413      	strb	r3, [r2, #16]
F:\AT32-workspace\AT32F403ACGU7_clone_windows_desktop_virtual_com_port\Release/../cdc/cdc_desc.c:300
    pbuf[2 * idx + 1] = 0;
 8002bd6:	2300      	movs	r3, #0
F:\AT32-workspace\AT32F403ACGU7_clone_windows_desktop_virtual_com_port\Release/../cdc/cdc_desc.c:289
    if( ((value >> 28)) < 0xA )
 8002bd8:	f1b1 4f20 	cmp.w	r1, #2684354560	; 0xa0000000
F:\AT32-workspace\AT32F403ACGU7_clone_windows_desktop_virtual_com_port\Release/../cdc/cdc_desc.c:300
    pbuf[2 * idx + 1] = 0;
 8002bdc:	7453      	strb	r3, [r2, #17]
F:\AT32-workspace\AT32F403ACGU7_clone_windows_desktop_virtual_com_port\Release/../cdc/cdc_desc.c:289
    if( ((value >> 28)) < 0xA )
 8002bde:	ea4f 7311 	mov.w	r3, r1, lsr #28
F:\AT32-workspace\AT32F403ACGU7_clone_windows_desktop_virtual_com_port\Release/../cdc/cdc_desc.c:295
      pbuf[2 * idx] = (value >> 28) + 'A' - 10;
 8002be2:	bf2c      	ite	cs
 8002be4:	3337      	addcs	r3, #55	; 0x37
F:\AT32-workspace\AT32F403ACGU7_clone_windows_desktop_virtual_com_port\Release/../cdc/cdc_desc.c:291
      pbuf[ 2 * idx] = (value >> 28) + '0';
 8002be6:	3330      	addcc	r3, #48	; 0x30
 8002be8:	7493      	strb	r3, [r2, #18]
F:\AT32-workspace\AT32F403ACGU7_clone_windows_desktop_virtual_com_port\Release/../cdc/cdc_desc.c:289
    if( ((value >> 28)) < 0xA )
 8002bea:	f3c1 6303 	ubfx	r3, r1, #24, #4
 8002bee:	2b09      	cmp	r3, #9
F:\AT32-workspace\AT32F403ACGU7_clone_windows_desktop_virtual_com_port\Release/../cdc/cdc_desc.c:295
      pbuf[2 * idx] = (value >> 28) + 'A' - 10;
 8002bf0:	bf8c      	ite	hi
 8002bf2:	3337      	addhi	r3, #55	; 0x37
F:\AT32-workspace\AT32F403ACGU7_clone_windows_desktop_virtual_com_port\Release/../cdc/cdc_desc.c:291
      pbuf[ 2 * idx] = (value >> 28) + '0';
 8002bf4:	3330      	addls	r3, #48	; 0x30
 8002bf6:	7513      	strb	r3, [r2, #20]
F:\AT32-workspace\AT32F403ACGU7_clone_windows_desktop_virtual_com_port\Release/../cdc/cdc_desc.c:289
    if( ((value >> 28)) < 0xA )
 8002bf8:	f3c1 5303 	ubfx	r3, r1, #20, #4
 8002bfc:	2b09      	cmp	r3, #9
F:\AT32-workspace\AT32F403ACGU7_clone_windows_desktop_virtual_com_port\Release/../cdc/cdc_desc.c:300
    pbuf[2 * idx + 1] = 0;
 8002bfe:	f04f 0c00 	mov.w	ip, #0
F:\AT32-workspace\AT32F403ACGU7_clone_windows_desktop_virtual_com_port\Release/../cdc/cdc_desc.c:295
      pbuf[2 * idx] = (value >> 28) + 'A' - 10;
 8002c02:	bf8c      	ite	hi
 8002c04:	3337      	addhi	r3, #55	; 0x37
F:\AT32-workspace\AT32F403ACGU7_clone_windows_desktop_virtual_com_port\Release/../cdc/cdc_desc.c:291
      pbuf[ 2 * idx] = (value >> 28) + '0';
 8002c06:	3330      	addls	r3, #48	; 0x30
F:\AT32-workspace\AT32F403ACGU7_clone_windows_desktop_virtual_com_port\Release/../cdc/cdc_desc.c:300
    pbuf[2 * idx + 1] = 0;
 8002c08:	f882 c003 	strb.w	ip, [r2, #3]
 8002c0c:	f04f 0c00 	mov.w	ip, #0
 8002c10:	f882 c005 	strb.w	ip, [r2, #5]
F:\AT32-workspace\AT32F403ACGU7_clone_windows_desktop_virtual_com_port\Release/../cdc/cdc_desc.c:291
      pbuf[ 2 * idx] = (value >> 28) + '0';
 8002c14:	7390      	strb	r0, [r2, #14]
F:\AT32-workspace\AT32F403ACGU7_clone_windows_desktop_virtual_com_port\Release/../cdc/cdc_desc.c:300
    pbuf[2 * idx + 1] = 0;
 8002c16:	f04f 0c00 	mov.w	ip, #0
 8002c1a:	2000      	movs	r0, #0
F:\AT32-workspace\AT32F403ACGU7_clone_windows_desktop_virtual_com_port\Release/../cdc/cdc_desc.c:291
      pbuf[ 2 * idx] = (value >> 28) + '0';
 8002c1c:	7593      	strb	r3, [r2, #22]
F:\AT32-workspace\AT32F403ACGU7_clone_windows_desktop_virtual_com_port\Release/../cdc/cdc_desc.c:289
    if( ((value >> 28)) < 0xA )
 8002c1e:	f3c1 4303 	ubfx	r3, r1, #16, #4
 8002c22:	2b09      	cmp	r3, #9
F:\AT32-workspace\AT32F403ACGU7_clone_windows_desktop_virtual_com_port\Release/../cdc/cdc_desc.c:300
    pbuf[2 * idx + 1] = 0;
 8002c24:	f882 c007 	strb.w	ip, [r2, #7]
 8002c28:	73d0      	strb	r0, [r2, #15]
 8002c2a:	f04f 0c00 	mov.w	ip, #0
 8002c2e:	f04f 0000 	mov.w	r0, #0
F:\AT32-workspace\AT32F403ACGU7_clone_windows_desktop_virtual_com_port\Release/../cdc/cdc_desc.c:291
      pbuf[ 2 * idx] = (value >> 28) + '0';
 8002c32:	bf94      	ite	ls
 8002c34:	3330      	addls	r3, #48	; 0x30
F:\AT32-workspace\AT32F403ACGU7_clone_windows_desktop_virtual_com_port\Release/../cdc/cdc_desc.c:295
      pbuf[2 * idx] = (value >> 28) + 'A' - 10;
 8002c36:	3337      	addhi	r3, #55	; 0x37
F:\AT32-workspace\AT32F403ACGU7_clone_windows_desktop_virtual_com_port\Release/../cdc/cdc_desc.c:300
    pbuf[2 * idx + 1] = 0;
 8002c38:	f882 c009 	strb.w	ip, [r2, #9]
 8002c3c:	74d0      	strb	r0, [r2, #19]
 8002c3e:	f04f 0c00 	mov.w	ip, #0
 8002c42:	2000      	movs	r0, #0
 8002c44:	f882 c00b 	strb.w	ip, [r2, #11]
 8002c48:	7550      	strb	r0, [r2, #21]
 8002c4a:	f04f 0c00 	mov.w	ip, #0
 8002c4e:	2000      	movs	r0, #0
F:\AT32-workspace\AT32F403ACGU7_clone_windows_desktop_virtual_com_port\Release/../cdc/cdc_desc.c:295
      pbuf[2 * idx] = (value >> 28) + 'A' - 10;
 8002c50:	7613      	strb	r3, [r2, #24]
F:\AT32-workspace\AT32F403ACGU7_clone_windows_desktop_virtual_com_port\Release/../cdc/cdc_desc.c:300
    pbuf[2 * idx + 1] = 0;
 8002c52:	2300      	movs	r3, #0
 8002c54:	75d0      	strb	r0, [r2, #23]
 8002c56:	f882 c00d 	strb.w	ip, [r2, #13]
get_device_serial_string():
F:\AT32-workspace\AT32F403ACGU7_clone_windows_desktop_virtual_com_port\Release/../cdc/cdc_desc.c:410
}
 8002c5a:	4802      	ldr	r0, [pc, #8]	; (8002c64 <get_device_serial_string+0x114>)
usbd_int_to_unicode():
F:\AT32-workspace\AT32F403ACGU7_clone_windows_desktop_virtual_com_port\Release/../cdc/cdc_desc.c:300
    pbuf[2 * idx + 1] = 0;
 8002c5c:	7653      	strb	r3, [r2, #25]
get_device_serial_string():
F:\AT32-workspace\AT32F403ACGU7_clone_windows_desktop_virtual_com_port\Release/../cdc/cdc_desc.c:410
}
 8002c5e:	4770      	bx	lr
 8002c60:	1ffff000 	.word	0x1ffff000
 8002c64:	200000f4 	.word	0x200000f4
 8002c68:	20000078 	.word	0x20000078

08002c6c <get_device_other_speed>:
get_device_other_speed():
 8002c6c:	2000      	movs	r0, #0
 8002c6e:	4770      	bx	lr

08002c70 <delay_ms>:
delay_ms():
F:\AT32-workspace\AT32F403ACGU7_clone_windows_desktop_virtual_com_port\Release/../bsp/at32f403a_407_board.c:39
  * @{
  */

void delay_ms(uint32_t ms)
{
	(void)SysTick->CTRL;
 8002c70:	f04f 23e0 	mov.w	r3, #3758153728	; 0xe000e000
F:\AT32-workspace\AT32F403ACGU7_clone_windows_desktop_virtual_com_port\Release/../bsp/at32f403a_407_board.c:40
	if(ms < 0xffffffff) {
 8002c74:	1c42      	adds	r2, r0, #1
F:\AT32-workspace\AT32F403ACGU7_clone_windows_desktop_virtual_com_port\Release/../bsp/at32f403a_407_board.c:39
	(void)SysTick->CTRL;
 8002c76:	691b      	ldr	r3, [r3, #16]
F:\AT32-workspace\AT32F403ACGU7_clone_windows_desktop_virtual_com_port\Release/../bsp/at32f403a_407_board.c:41
	    ms++;
 8002c78:	bf18      	it	ne
 8002c7a:	3001      	addne	r0, #1
F:\AT32-workspace\AT32F403ACGU7_clone_windows_desktop_virtual_com_port\Release/../bsp/at32f403a_407_board.c:44
	}
	while (ms) {
		if(SysTick->CTRL & SysTick_CTRL_COUNTFLAG_Msk) {
 8002c7c:	f04f 22e0 	mov.w	r2, #3758153728	; 0xe000e000
 8002c80:	6913      	ldr	r3, [r2, #16]
 8002c82:	03db      	lsls	r3, r3, #15
 8002c84:	d5fc      	bpl.n	8002c80 <delay_ms+0x10>
F:\AT32-workspace\AT32F403ACGU7_clone_windows_desktop_virtual_com_port\Release/../bsp/at32f403a_407_board.c:45
			ms--;
 8002c86:	3801      	subs	r0, #1
 8002c88:	d1fa      	bne.n	8002c80 <delay_ms+0x10>
F:\AT32-workspace\AT32F403ACGU7_clone_windows_desktop_virtual_com_port\Release/../bsp/at32f403a_407_board.c:48
	    }
	}
}
 8002c8a:	4770      	bx	lr

08002c8c <tjd_output>:
tjd_output():
F:\AT32-workspace\AT32F403ACGU7_clone_windows_desktop_virtual_com_port\Release/../JPEG/jpeg_chan.c:79
	return nd;
}

//Вывод блока памяти bitmap на дисплей в указанной позиции rect
static inline int tjd_output (JDEC* jd, void* bitmap, JRECT* rect)
{
 8002c8c:	b530      	push	{r4, r5, lr}
F:\AT32-workspace\AT32F403ACGU7_clone_windows_desktop_virtual_com_port\Release/../JPEG/jpeg_chan.c:80
	IODEV *iodev = (IODEV *)jd->device;
 8002c8e:	f8d0 509c 	ldr.w	r5, [r0, #156]	; 0x9c
F:\AT32-workspace\AT32F403ACGU7_clone_windows_desktop_virtual_com_port\Release/../JPEG/jpeg_chan.c:83

	//Вывод блока на дисплей
	LCD_DrawImage(iodev->lcd, rect->left + iodev->x_offs, rect->top + iodev->y_offs, rect->right - rect->left + 1,
 8002c92:	88d4      	ldrh	r4, [r2, #6]
 8002c94:	f8b2 c004 	ldrh.w	ip, [r2, #4]
 8002c98:	8810      	ldrh	r0, [r2, #0]
 8002c9a:	8853      	ldrh	r3, [r2, #2]
 8002c9c:	896a      	ldrh	r2, [r5, #10]
 8002c9e:	3401      	adds	r4, #1
 8002ca0:	eba4 040c 	sub.w	r4, r4, ip
 8002ca4:	4462      	add	r2, ip
 8002ca6:	f8b5 c008 	ldrh.w	ip, [r5, #8]
F:\AT32-workspace\AT32F403ACGU7_clone_windows_desktop_virtual_com_port\Release/../JPEG/jpeg_chan.c:79
{
 8002caa:	b085      	sub	sp, #20
F:\AT32-workspace\AT32F403ACGU7_clone_windows_desktop_virtual_com_port\Release/../JPEG/jpeg_chan.c:83
	LCD_DrawImage(iodev->lcd, rect->left + iodev->x_offs, rect->top + iodev->y_offs, rect->right - rect->left + 1,
 8002cac:	b2a4      	uxth	r4, r4
 8002cae:	3301      	adds	r3, #1
 8002cb0:	4484      	add	ip, r0
 8002cb2:	1a1b      	subs	r3, r3, r0
 8002cb4:	6868      	ldr	r0, [r5, #4]
 8002cb6:	e9cd 4100 	strd	r4, r1, [sp]
 8002cba:	2401      	movs	r4, #1
 8002cbc:	b29b      	uxth	r3, r3
 8002cbe:	b292      	uxth	r2, r2
 8002cc0:	fa1f f18c 	uxth.w	r1, ip
 8002cc4:	9402      	str	r4, [sp, #8]
 8002cc6:	f002 f94e 	bl	8004f66 <LCD_DrawImage>
F:\AT32-workspace\AT32F403ACGU7_clone_windows_desktop_virtual_com_port\Release/../JPEG/jpeg_chan.c:86
			      rect->bottom - rect->top + 1, (uint16_t*)bitmap, 1);
	return JDR_OK;
}
 8002cca:	2000      	movs	r0, #0
 8002ccc:	b005      	add	sp, #20
 8002cce:	bd30      	pop	{r4, r5, pc}

08002cd0 <tjd_input_memory>:
tjd_input_memory():
F:\AT32-workspace\AT32F403ACGU7_clone_windows_desktop_virtual_com_port\Release/../JPEG/jpeg_chan.c:64
{
 8002cd0:	b570      	push	{r4, r5, r6, lr}
F:\AT32-workspace\AT32F403ACGU7_clone_windows_desktop_virtual_com_port\Release/../JPEG/jpeg_chan.c:65
	IODEV *iodev = (IODEV *)jd->device;
 8002cd2:	f8d0 609c 	ldr.w	r6, [r0, #156]	; 0x9c
F:\AT32-workspace\AT32F403ACGU7_clone_windows_desktop_virtual_com_port\Release/../JPEG/jpeg_chan.c:66
	if (((Data_Mem_src*)iodev->file)->data_left < nd) {
 8002cd6:	6833      	ldr	r3, [r6, #0]
 8002cd8:	685d      	ldr	r5, [r3, #4]
 8002cda:	42aa      	cmp	r2, r5
 8002cdc:	bf28      	it	cs
 8002cde:	462a      	movcs	r2, r5
 8002ce0:	4614      	mov	r4, r2
F:\AT32-workspace\AT32F403ACGU7_clone_windows_desktop_virtual_com_port\Release/../JPEG/jpeg_chan.c:69
	if (buff) {
 8002ce2:	b129      	cbz	r1, 8002cf0 <tjd_input_memory+0x20>
F:\AT32-workspace\AT32F403ACGU7_clone_windows_desktop_virtual_com_port\Release/../JPEG/jpeg_chan.c:70
		memcpy(buff, ((Data_Mem_src*)iodev->file)->data, nd);
 8002ce4:	4608      	mov	r0, r1
 8002ce6:	6819      	ldr	r1, [r3, #0]
 8002ce8:	f002 f9fe 	bl	80050e8 <memcpy>
F:\AT32-workspace\AT32F403ACGU7_clone_windows_desktop_virtual_com_port\Release/../JPEG/jpeg_chan.c:72
	((Data_Mem_src*)iodev->file)->data += nd;
 8002cec:	6833      	ldr	r3, [r6, #0]
F:\AT32-workspace\AT32F403ACGU7_clone_windows_desktop_virtual_com_port\Release/../JPEG/jpeg_chan.c:73
	((Data_Mem_src*)iodev->file)->data_left -= nd;
 8002cee:	685d      	ldr	r5, [r3, #4]
F:\AT32-workspace\AT32F403ACGU7_clone_windows_desktop_virtual_com_port\Release/../JPEG/jpeg_chan.c:72
	((Data_Mem_src*)iodev->file)->data += nd;
 8002cf0:	681a      	ldr	r2, [r3, #0]
F:\AT32-workspace\AT32F403ACGU7_clone_windows_desktop_virtual_com_port\Release/../JPEG/jpeg_chan.c:73
	((Data_Mem_src*)iodev->file)->data_left -= nd;
 8002cf2:	1b2d      	subs	r5, r5, r4
F:\AT32-workspace\AT32F403ACGU7_clone_windows_desktop_virtual_com_port\Release/../JPEG/jpeg_chan.c:72
	((Data_Mem_src*)iodev->file)->data += nd;
 8002cf4:	4422      	add	r2, r4
F:\AT32-workspace\AT32F403ACGU7_clone_windows_desktop_virtual_com_port\Release/../JPEG/jpeg_chan.c:73
	((Data_Mem_src*)iodev->file)->data_left -= nd;
 8002cf6:	e9c3 2500 	strd	r2, r5, [r3]
F:\AT32-workspace\AT32F403ACGU7_clone_windows_desktop_virtual_com_port\Release/../JPEG/jpeg_chan.c:75
}
 8002cfa:	4620      	mov	r0, r4
 8002cfc:	bd70      	pop	{r4, r5, r6, pc}
 8002cfe:	bf00      	nop

08002d00 <LCD_Load_JPG_chan>:
LCD_Load_JPG_chan():
F:\AT32-workspace\AT32F403ACGU7_clone_windows_desktop_virtual_com_port\Release/../JPEG/jpeg_chan.c:91

//Вывод jpeg изображения на дисплей.
//location определяет местоположение файла (на sd карте или во Flash/RAM МК)
uint8_t LCD_Load_JPG_chan (LCD_Handler *lcd, uint16_t x, uint16_t y, uint16_t w, uint16_t h, void *image_stream, PictureLocation location)
{
 8002d00:	b530      	push	{r4, r5, lr}
 8002d02:	b0b1      	sub	sp, #196	; 0xc4
F:\AT32-workspace\AT32F403ACGU7_clone_windows_desktop_virtual_com_port\Release/../JPEG/jpeg_chan.c:99
	uint8_t scale;

	IODEV iodev;
	iodev.lcd = lcd;
	iodev.x_offs = x;
	iodev.y_offs = y;
 8002d04:	f8ad 201e 	strh.w	r2, [sp, #30]
F:\AT32-workspace\AT32F403ACGU7_clone_windows_desktop_virtual_com_port\Release/../JPEG/jpeg_chan.c:91
{
 8002d08:	f89d 20d8 	ldrb.w	r2, [sp, #216]	; 0xd8
 8002d0c:	f8bd 50d0 	ldrh.w	r5, [sp, #208]	; 0xd0
F:\AT32-workspace\AT32F403ACGU7_clone_windows_desktop_virtual_com_port\Release/../JPEG/jpeg_chan.c:97
	iodev.lcd = lcd;
 8002d10:	9006      	str	r0, [sp, #24]
F:\AT32-workspace\AT32F403ACGU7_clone_windows_desktop_virtual_com_port\Release/../JPEG/jpeg_chan.c:100
	if (location == PICTURE_IN_MEMORY)	{
 8002d12:	2a01      	cmp	r2, #1
F:\AT32-workspace\AT32F403ACGU7_clone_windows_desktop_virtual_com_port\Release/../JPEG/jpeg_chan.c:98
	iodev.x_offs = x;
 8002d14:	f8ad 101c 	strh.w	r1, [sp, #28]
F:\AT32-workspace\AT32F403ACGU7_clone_windows_desktop_virtual_com_port\Release/../JPEG/jpeg_chan.c:100
	if (location == PICTURE_IN_MEMORY)	{
 8002d18:	d002      	beq.n	8002d20 <LCD_Load_JPG_chan+0x20>
F:\AT32-workspace\AT32F403ACGU7_clone_windows_desktop_virtual_com_port\Release/../JPEG/jpeg_chan.c:108
		data.data_left = ((iPicture_jpg*)image_stream)->size;
		iodev.file = (void *)&data;
		rc = jd_prepare(&jd, tjd_input_memory, work_buffer, JPEG_CHAN_WORK_BUFFER_SIZE, &iodev);
	}
	else {
		return JDR_INP;
 8002d1a:	2002      	movs	r0, #2
F:\AT32-workspace\AT32F403ACGU7_clone_windows_desktop_virtual_com_port\Release/../JPEG/jpeg_chan.c:123
			if ((jd.width >> scale) <= w && (jd.height >> scale) <= h) break;
		}
		rc = jd_decomp(&jd, tjd_output, scale);
	}
	return rc;
}
 8002d1c:	b031      	add	sp, #196	; 0xc4
 8002d1e:	bd30      	pop	{r4, r5, pc}
F:\AT32-workspace\AT32F403ACGU7_clone_windows_desktop_virtual_com_port\Release/../JPEG/jpeg_chan.c:102
		data.data = (uint8_t *)((iPicture_jpg*)image_stream)->data;
 8002d20:	9a35      	ldr	r2, [sp, #212]	; 0xd4
F:\AT32-workspace\AT32F403ACGU7_clone_windows_desktop_virtual_com_port\Release/../JPEG/jpeg_chan.c:105
		rc = jd_prepare(&jd, tjd_input_memory, work_buffer, JPEG_CHAN_WORK_BUFFER_SIZE, &iodev);
 8002d22:	491a      	ldr	r1, [pc, #104]	; (8002d8c <LCD_Load_JPG_chan+0x8c>)
F:\AT32-workspace\AT32F403ACGU7_clone_windows_desktop_virtual_com_port\Release/../JPEG/jpeg_chan.c:102
		data.data = (uint8_t *)((iPicture_jpg*)image_stream)->data;
 8002d24:	6812      	ldr	r2, [r2, #0]
 8002d26:	9203      	str	r2, [sp, #12]
F:\AT32-workspace\AT32F403ACGU7_clone_windows_desktop_virtual_com_port\Release/../JPEG/jpeg_chan.c:103
		data.data_left = ((iPicture_jpg*)image_stream)->size;
 8002d28:	461c      	mov	r4, r3
 8002d2a:	9a35      	ldr	r2, [sp, #212]	; 0xd4
F:\AT32-workspace\AT32F403ACGU7_clone_windows_desktop_virtual_com_port\Release/../JPEG/jpeg_chan.c:105
		rc = jd_prepare(&jd, tjd_input_memory, work_buffer, JPEG_CHAN_WORK_BUFFER_SIZE, &iodev);
 8002d2c:	ab05      	add	r3, sp, #20
 8002d2e:	9300      	str	r3, [sp, #0]
F:\AT32-workspace\AT32F403ACGU7_clone_windows_desktop_virtual_com_port\Release/../JPEG/jpeg_chan.c:103
		data.data_left = ((iPicture_jpg*)image_stream)->size;
 8002d30:	6852      	ldr	r2, [r2, #4]
 8002d32:	9204      	str	r2, [sp, #16]
F:\AT32-workspace\AT32F403ACGU7_clone_windows_desktop_virtual_com_port\Release/../JPEG/jpeg_chan.c:104
		iodev.file = (void *)&data;
 8002d34:	aa03      	add	r2, sp, #12
 8002d36:	9205      	str	r2, [sp, #20]
F:\AT32-workspace\AT32F403ACGU7_clone_windows_desktop_virtual_com_port\Release/../JPEG/jpeg_chan.c:105
		rc = jd_prepare(&jd, tjd_input_memory, work_buffer, JPEG_CHAN_WORK_BUFFER_SIZE, &iodev);
 8002d38:	f642 63e0 	movw	r3, #12000	; 0x2ee0
 8002d3c:	4a14      	ldr	r2, [pc, #80]	; (8002d90 <LCD_Load_JPG_chan+0x90>)
 8002d3e:	a808      	add	r0, sp, #32
 8002d40:	f000 f82a 	bl	8002d98 <jd_prepare>
F:\AT32-workspace\AT32F403ACGU7_clone_windows_desktop_virtual_com_port\Release/../JPEG/jpeg_chan.c:116
	if (rc == JDR_OK) {
 8002d44:	2800      	cmp	r0, #0
 8002d46:	d1e9      	bne.n	8002d1c <LCD_Load_JPG_chan+0x1c>
F:\AT32-workspace\AT32F403ACGU7_clone_windows_desktop_virtual_com_port\Release/../JPEG/jpeg_chan.c:118
			if ((jd.width >> scale) <= w && (jd.height >> scale) <= h) break;
 8002d48:	f8bd 303c 	ldrh.w	r3, [sp, #60]	; 0x3c
 8002d4c:	f8bd 203e 	ldrh.w	r2, [sp, #62]	; 0x3e
 8002d50:	42a3      	cmp	r3, r4
 8002d52:	dc01      	bgt.n	8002d58 <LCD_Load_JPG_chan+0x58>
 8002d54:	42aa      	cmp	r2, r5
 8002d56:	dd09      	ble.n	8002d6c <LCD_Load_JPG_chan+0x6c>
 8002d58:	ebb4 0f53 	cmp.w	r4, r3, lsr #1
 8002d5c:	db02      	blt.n	8002d64 <LCD_Load_JPG_chan+0x64>
 8002d5e:	ebb5 0f52 	cmp.w	r5, r2, lsr #1
 8002d62:	da10      	bge.n	8002d86 <LCD_Load_JPG_chan+0x86>
 8002d64:	ebb4 0f93 	cmp.w	r4, r3, lsr #2
 8002d68:	da07      	bge.n	8002d7a <LCD_Load_JPG_chan+0x7a>
 8002d6a:	2003      	movs	r0, #3
F:\AT32-workspace\AT32F403ACGU7_clone_windows_desktop_virtual_com_port\Release/../JPEG/jpeg_chan.c:120
		rc = jd_decomp(&jd, tjd_output, scale);
 8002d6c:	4602      	mov	r2, r0
 8002d6e:	4909      	ldr	r1, [pc, #36]	; (8002d94 <LCD_Load_JPG_chan+0x94>)
 8002d70:	a808      	add	r0, sp, #32
 8002d72:	f000 fcb5 	bl	80036e0 <jd_decomp>
F:\AT32-workspace\AT32F403ACGU7_clone_windows_desktop_virtual_com_port\Release/../JPEG/jpeg_chan.c:123
}
 8002d76:	b031      	add	sp, #196	; 0xc4
 8002d78:	bd30      	pop	{r4, r5, pc}
F:\AT32-workspace\AT32F403ACGU7_clone_windows_desktop_virtual_com_port\Release/../JPEG/jpeg_chan.c:117 (discriminator 1)
		for (scale = 0; scale < 3; scale++) {
 8002d7a:	ebb5 0f92 	cmp.w	r5, r2, lsr #2
 8002d7e:	bfb4      	ite	lt
 8002d80:	2003      	movlt	r0, #3
 8002d82:	2002      	movge	r0, #2
 8002d84:	e7f2      	b.n	8002d6c <LCD_Load_JPG_chan+0x6c>
F:\AT32-workspace\AT32F403ACGU7_clone_windows_desktop_virtual_com_port\Release/../JPEG/jpeg_chan.c:117
 8002d86:	2001      	movs	r0, #1
 8002d88:	e7f0      	b.n	8002d6c <LCD_Load_JPG_chan+0x6c>
 8002d8a:	bf00      	nop
 8002d8c:	08002cd1 	.word	0x08002cd1
 8002d90:	20006344 	.word	0x20006344
 8002d94:	08002c8d 	.word	0x08002c8d

08002d98 <jd_prepare>:
jd_prepare():
F:\AT32-workspace\AT32F403ACGU7_clone_windows_desktop_virtual_com_port\Release/../JPEG/tjpgd.c:1592
	size_t (*infunc)(JDEC*, uint8_t*, size_t),	/* JPEG strem input function */
	void* pool,				/* Working buffer for the decompression session */
	size_t sz_pool,			/* Size of working buffer */
	void* dev				/* I/O device identifier for the session */
)
{
 8002d98:	e92d 4ff0 	stmdb	sp!, {r4, r5, r6, r7, r8, r9, sl, fp, lr}
 8002d9c:	b093      	sub	sp, #76	; 0x4c
 8002d9e:	4680      	mov	r8, r0
 8002da0:	460d      	mov	r5, r1
 8002da2:	4692      	mov	sl, r2
 8002da4:	981c      	ldr	r0, [sp, #112]	; 0x70
memset_8():
F:\AT32-workspace\AT32F403ACGU7_clone_windows_desktop_virtual_com_port\Release/../JPEG/tjpgd.c:188
	asm volatile (	"orrs	%[size], %[size]\n\t"
 8002da6:	22a0      	movs	r2, #160	; 0xa0
 8002da8:	f04f 0b00 	mov.w	fp, #0
 8002dac:	4641      	mov	r1, r8
 8002dae:	4312      	orrs	r2, r2
 8002db0:	d003      	beq.n	8002dba <jd_prepare+0x22>
 8002db2:	f801 bb01 	strb.w	fp, [r1], #1
 8002db6:	3a01      	subs	r2, #1
 8002db8:	d1fb      	bne.n	8002db2 <jd_prepare+0x1a>
jd_prepare():
F:\AT32-workspace\AT32F403ACGU7_clone_windows_desktop_virtual_com_port\Release/../JPEG/tjpgd.c:1605
	memset(jd, 0, sizeof (JDEC));	/* Clear decompression object (this might be a problem if machine's null pointer is not all bits zero) */
#else
	memset_8(jd, 0, sizeof (JDEC));
#endif
	/****************************** +++++++++++++++++++++++++++ ****************************/
	jd->color_format = AVI_color_mode; //записываем в переменную значение формата цвета
 8002dba:	4ab5      	ldr	r2, [pc, #724]	; (8003090 <jd_prepare+0x2f8>)
F:\AT32-workspace\AT32F403ACGU7_clone_windows_desktop_virtual_com_port\Release/../JPEG/tjpgd.c:1610
	/***************************************************************************************/
	jd->pool = pool;		/* Work memroy */
	jd->sz_pool = sz_pool;	/* Size of given work memory */
	jd->infunc = infunc;	/* Stream input function */
	jd->device = dev;		/* I/O device identifier */
 8002dbc:	f8c8 009c 	str.w	r0, [r8, #156]	; 0x9c
F:\AT32-workspace\AT32F403ACGU7_clone_windows_desktop_virtual_com_port\Release/../JPEG/tjpgd.c:1605
	jd->color_format = AVI_color_mode; //записываем в переменную значение формата цвета
 8002dc0:	7812      	ldrb	r2, [r2, #0]
F:\AT32-workspace\AT32F403ACGU7_clone_windows_desktop_virtual_com_port\Release/../JPEG/tjpgd.c:1609
	jd->infunc = infunc;	/* Stream input function */
 8002dc2:	f8c8 5098 	str.w	r5, [r8, #152]	; 0x98
alloc_pool():
F:\AT32-workspace\AT32F403ACGU7_clone_windows_desktop_virtual_com_port\Release/../JPEG/tjpgd.c:494
	if (jd->sz_pool >= ndata) {
 8002dc6:	f5b3 6f80 	cmp.w	r3, #1024	; 0x400
jd_prepare():
F:\AT32-workspace\AT32F403ACGU7_clone_windows_desktop_virtual_com_port\Release/../JPEG/tjpgd.c:1608
	jd->sz_pool = sz_pool;	/* Size of given work memory */
 8002dca:	e9c8 a324 	strd	sl, r3, [r8, #144]	; 0x90
F:\AT32-workspace\AT32F403ACGU7_clone_windows_desktop_virtual_com_port\Release/../JPEG/tjpgd.c:1605
	jd->color_format = AVI_color_mode; //записываем в переменную значение формата цвета
 8002dce:	f888 2088 	strb.w	r2, [r8, #136]	; 0x88
alloc_pool():
F:\AT32-workspace\AT32F403ACGU7_clone_windows_desktop_virtual_com_port\Release/../JPEG/tjpgd.c:494
	if (jd->sz_pool >= ndata) {
 8002dd2:	f0c0 80bf 	bcc.w	8002f54 <jd_prepare+0x1bc>
F:\AT32-workspace\AT32F403ACGU7_clone_windows_desktop_virtual_com_port\Release/../JPEG/tjpgd.c:495
		jd->sz_pool -= ndata;
 8002dd6:	f5a3 6380 	sub.w	r3, r3, #1024	; 0x400
 8002dda:	f8c8 3094 	str.w	r3, [r8, #148]	; 0x94
F:\AT32-workspace\AT32F403ACGU7_clone_windows_desktop_virtual_com_port\Release/../JPEG/tjpgd.c:497
		jd->pool = (void*)(rp + ndata);	/* Allocate requierd bytes */
 8002dde:	f50a 6380 	add.w	r3, sl, #1024	; 0x400
 8002de2:	f8c8 3090 	str.w	r3, [r8, #144]	; 0x90
jd_prepare():
F:\AT32-workspace\AT32F403ACGU7_clone_windows_desktop_virtual_com_port\Release/../JPEG/tjpgd.c:1612

	jd->inbuf = seg = alloc_pool(jd, JD_SZBUF);		/* Allocate stream input buffer */
 8002de6:	f8c8 a008 	str.w	sl, [r8, #8]
F:\AT32-workspace\AT32F403ACGU7_clone_windows_desktop_virtual_com_port\Release/../JPEG/tjpgd.c:1613
	if (!seg) return JDR_MEM1;
 8002dea:	f1ba 0f00 	cmp.w	sl, #0
 8002dee:	f000 812d 	beq.w	800304c <jd_prepare+0x2b4>
F:\AT32-workspace\AT32F403ACGU7_clone_windows_desktop_virtual_com_port\Release/../JPEG/tjpgd.c:1615

	ofs = marker = 0;		/* Find SOI marker */
 8002df2:	465c      	mov	r4, fp
F:\AT32-workspace\AT32F403ACGU7_clone_windows_desktop_virtual_com_port\Release/../JPEG/tjpgd.c:1620
	do {
		if (jd->infunc(jd, seg, 1) != 1) return JDR_INP;	/* Err: SOI was not detected */
		ofs++;
		marker = marker << 8 | seg[0];
	} while (marker != 0xFFD8);
 8002df4:	f64f 76d8 	movw	r6, #65496	; 0xffd8
 8002df8:	e008      	b.n	8002e0c <jd_prepare+0x74>
F:\AT32-workspace\AT32F403ACGU7_clone_windows_desktop_virtual_com_port\Release/../JPEG/tjpgd.c:1619
		marker = marker << 8 | seg[0];
 8002dfa:	f89a 3000 	ldrb.w	r3, [sl]
 8002dfe:	ea43 2404 	orr.w	r4, r3, r4, lsl #8
 8002e02:	b2a4      	uxth	r4, r4
F:\AT32-workspace\AT32F403ACGU7_clone_windows_desktop_virtual_com_port\Release/../JPEG/tjpgd.c:1620
	} while (marker != 0xFFD8);
 8002e04:	42b4      	cmp	r4, r6
 8002e06:	d00d      	beq.n	8002e24 <jd_prepare+0x8c>
F:\AT32-workspace\AT32F403ACGU7_clone_windows_desktop_virtual_com_port\Release/../JPEG/tjpgd.c:1617
		if (jd->infunc(jd, seg, 1) != 1) return JDR_INP;	/* Err: SOI was not detected */
 8002e08:	f8d8 5098 	ldr.w	r5, [r8, #152]	; 0x98
 8002e0c:	2201      	movs	r2, #1
 8002e0e:	4651      	mov	r1, sl
 8002e10:	4640      	mov	r0, r8
 8002e12:	47a8      	blx	r5
 8002e14:	2801      	cmp	r0, #1
F:\AT32-workspace\AT32F403ACGU7_clone_windows_desktop_virtual_com_port\Release/../JPEG/tjpgd.c:1618
		ofs++;
 8002e16:	f10b 0b01 	add.w	fp, fp, #1
F:\AT32-workspace\AT32F403ACGU7_clone_windows_desktop_virtual_com_port\Release/../JPEG/tjpgd.c:1617
		if (jd->infunc(jd, seg, 1) != 1) return JDR_INP;	/* Err: SOI was not detected */
 8002e1a:	d0ee      	beq.n	8002dfa <jd_prepare+0x62>
F:\AT32-workspace\AT32F403ACGU7_clone_windows_desktop_virtual_com_port\Release/../JPEG/tjpgd.c:1674
			if (rc) return rc;
			break;

		case 0xDB:	/* DQT - Define Quaitizer Tables */
			if (len > JD_SZBUF) return JDR_MEM2;
			if (jd->infunc(jd, seg, len) != len) return JDR_INP;	/* Load segment data */
 8002e1c:	2002      	movs	r0, #2
F:\AT32-workspace\AT32F403ACGU7_clone_windows_desktop_virtual_com_port\Release/../JPEG/tjpgd.c:1746
			/* Skip segment data (null pointer specifies to remove data from the stream) */
			if (jd->infunc(jd, 0, len) != len) return JDR_INP;
		}
	}
	return JDR_PAR;
}
 8002e1e:	b013      	add	sp, #76	; 0x4c
 8002e20:	e8bd 8ff0 	ldmia.w	sp!, {r4, r5, r6, r7, r8, r9, sl, fp, pc}
 8002e24:	f8df 926c 	ldr.w	r9, [pc, #620]	; 8003094 <jd_prepare+0x2fc>
 8002e28:	f8cd b00c 	str.w	fp, [sp, #12]
 8002e2c:	46d3      	mov	fp, sl
F:\AT32-workspace\AT32F403ACGU7_clone_windows_desktop_virtual_com_port\Release/../JPEG/tjpgd.c:1624
		if (jd->infunc(jd, seg, 4) != 4) return JDR_INP;
 8002e2e:	f8d8 3098 	ldr.w	r3, [r8, #152]	; 0x98
 8002e32:	2204      	movs	r2, #4
 8002e34:	4659      	mov	r1, fp
 8002e36:	4640      	mov	r0, r8
 8002e38:	4798      	blx	r3
 8002e3a:	2804      	cmp	r0, #4
 8002e3c:	d1ee      	bne.n	8002e1c <jd_prepare+0x84>
F:\AT32-workspace\AT32F403ACGU7_clone_windows_desktop_virtual_com_port\Release/../JPEG/tjpgd.c:1626
		len = LDB_WORD(seg + 2);	/* Length field */
 8002e3e:	f8bb 2002 	ldrh.w	r2, [fp, #2]
 8002e42:	f8bb 3000 	ldrh.w	r3, [fp]
 8002e46:	ba52      	rev16	r2, r2
 8002e48:	b292      	uxth	r2, r2
 8002e4a:	ba5b      	rev16	r3, r3
F:\AT32-workspace\AT32F403ACGU7_clone_windows_desktop_virtual_com_port\Release/../JPEG/tjpgd.c:1627
		if (len <= 2 || (marker >> 8) != 0xFF) return JDR_FMT1;
 8002e4c:	2a02      	cmp	r2, #2
 8002e4e:	b29b      	uxth	r3, r3
 8002e50:	f240 8225 	bls.w	800329e <jd_prepare+0x506>
F:\AT32-workspace\AT32F403ACGU7_clone_windows_desktop_virtual_com_port\Release/../JPEG/tjpgd.c:1627 (discriminator 2)
 8002e54:	0a19      	lsrs	r1, r3, #8
 8002e56:	29ff      	cmp	r1, #255	; 0xff
 8002e58:	f040 8221 	bne.w	800329e <jd_prepare+0x506>
F:\AT32-workspace\AT32F403ACGU7_clone_windows_desktop_virtual_com_port\Release/../JPEG/tjpgd.c:1629
		ofs += 4 + len;		/* Number of bytes loaded */
 8002e5c:	9803      	ldr	r0, [sp, #12]
F:\AT32-workspace\AT32F403ACGU7_clone_windows_desktop_virtual_com_port\Release/../JPEG/tjpgd.c:1631
		switch (marker & 0xFF) {
 8002e5e:	b2db      	uxtb	r3, r3
F:\AT32-workspace\AT32F403ACGU7_clone_windows_desktop_virtual_com_port\Release/../JPEG/tjpgd.c:1629
		ofs += 4 + len;		/* Number of bytes loaded */
 8002e60:	1c91      	adds	r1, r2, #2
 8002e62:	4408      	add	r0, r1
F:\AT32-workspace\AT32F403ACGU7_clone_windows_desktop_virtual_com_port\Release/../JPEG/tjpgd.c:1631
		switch (marker & 0xFF) {
 8002e64:	3bc0      	subs	r3, #192	; 0xc0
F:\AT32-workspace\AT32F403ACGU7_clone_windows_desktop_virtual_com_port\Release/../JPEG/tjpgd.c:1629
		ofs += 4 + len;		/* Number of bytes loaded */
 8002e66:	9003      	str	r0, [sp, #12]
F:\AT32-workspace\AT32F403ACGU7_clone_windows_desktop_virtual_com_port\Release/../JPEG/tjpgd.c:1628
		len -= 2;			/* Segent content size */
 8002e68:	f1a2 0a02 	sub.w	sl, r2, #2
F:\AT32-workspace\AT32F403ACGU7_clone_windows_desktop_virtual_com_port\Release/../JPEG/tjpgd.c:1631
		switch (marker & 0xFF) {
 8002e6c:	2b1d      	cmp	r3, #29
 8002e6e:	f200 80f1 	bhi.w	8003054 <jd_prepare+0x2bc>
 8002e72:	e8df f013 	tbh	[pc, r3, lsl #1]
 8002e76:	001e      	.short	0x001e
 8002e78:	006b006b 	.word	0x006b006b
 8002e7c:	0075006b 	.word	0x0075006b
 8002e80:	006b006b 	.word	0x006b006b
 8002e84:	00ef006b 	.word	0x00ef006b
 8002e88:	006b006b 	.word	0x006b006b
 8002e8c:	00ef006b 	.word	0x00ef006b
 8002e90:	006b006b 	.word	0x006b006b
 8002e94:	00ef006b 	.word	0x00ef006b
 8002e98:	00ef00ef 	.word	0x00ef00ef
 8002e9c:	00ef00ef 	.word	0x00ef00ef
 8002ea0:	00ef00ef 	.word	0x00ef00ef
 8002ea4:	00ef00ef 	.word	0x00ef00ef
 8002ea8:	0159006b 	.word	0x0159006b
 8002eac:	00ef0111 	.word	0x00ef0111
 8002eb0:	00f9      	.short	0x00f9
F:\AT32-workspace\AT32F403ACGU7_clone_windows_desktop_virtual_com_port\Release/../JPEG/tjpgd.c:1633
			if (len > JD_SZBUF) return JDR_MEM2;
 8002eb2:	f5ba 6f80 	cmp.w	sl, #1024	; 0x400
 8002eb6:	f200 83b5 	bhi.w	8003624 <jd_prepare+0x88c>
F:\AT32-workspace\AT32F403ACGU7_clone_windows_desktop_virtual_com_port\Release/../JPEG/tjpgd.c:1634
			if (jd->infunc(jd, seg, len) != len) return JDR_INP;	/* Load segment data */
 8002eba:	f8d8 3098 	ldr.w	r3, [r8, #152]	; 0x98
 8002ebe:	4652      	mov	r2, sl
 8002ec0:	4659      	mov	r1, fp
 8002ec2:	4640      	mov	r0, r8
 8002ec4:	4798      	blx	r3
 8002ec6:	4550      	cmp	r0, sl
 8002ec8:	d1a8      	bne.n	8002e1c <jd_prepare+0x84>
F:\AT32-workspace\AT32F403ACGU7_clone_windows_desktop_virtual_com_port\Release/../JPEG/tjpgd.c:1636
			jd->width = LDB_WORD(&seg[3]);		/* Image width in unit of pixel */
 8002eca:	f8bb 3003 	ldrh.w	r3, [fp, #3]
 8002ece:	ba5b      	rev16	r3, r3
 8002ed0:	f8a8 301c 	strh.w	r3, [r8, #28]
F:\AT32-workspace\AT32F403ACGU7_clone_windows_desktop_virtual_com_port\Release/../JPEG/tjpgd.c:1637
			jd->height = LDB_WORD(&seg[1]);		/* Image height in unit of pixel */
 8002ed4:	f8bb 3001 	ldrh.w	r3, [fp, #1]
 8002ed8:	ba5b      	rev16	r3, r3
 8002eda:	f8a8 301e 	strh.w	r3, [r8, #30]
F:\AT32-workspace\AT32F403ACGU7_clone_windows_desktop_virtual_com_port\Release/../JPEG/tjpgd.c:1638
			jd->ncomp = seg[5];					/* Number of color components */
 8002ede:	f89b 2005 	ldrb.w	r2, [fp, #5]
 8002ee2:	f888 2013 	strb.w	r2, [r8, #19]
F:\AT32-workspace\AT32F403ACGU7_clone_windows_desktop_virtual_com_port\Release/../JPEG/tjpgd.c:1639
			if (jd->ncomp != 3 && jd->ncomp != 1) return JDR_FMT3;	/* Err: Supports only Grayscale and Y/Cb/Cr */
 8002ee6:	f002 03fd 	and.w	r3, r2, #253	; 0xfd
 8002eea:	2b01      	cmp	r3, #1
 8002eec:	d12e      	bne.n	8002f4c <jd_prepare+0x1b4>
F:\AT32-workspace\AT32F403ACGU7_clone_windows_desktop_virtual_com_port\Release/../JPEG/tjpgd.c:1643
				b = seg[7 + 3 * i];							/* Get sampling factor */
 8002eee:	f89b 3007 	ldrb.w	r3, [fp, #7]
F:\AT32-workspace\AT32F403ACGU7_clone_windows_desktop_virtual_com_port\Release/../JPEG/tjpgd.c:1645
					if (b != 0x11 && b != 0x22 && b != 0x21) {	/* Check sampling factor */
 8002ef2:	2b11      	cmp	r3, #17
 8002ef4:	d003      	beq.n	8002efe <jd_prepare+0x166>
 8002ef6:	f1a3 0121 	sub.w	r1, r3, #33	; 0x21
 8002efa:	2901      	cmp	r1, #1
 8002efc:	d826      	bhi.n	8002f4c <jd_prepare+0x1b4>
F:\AT32-workspace\AT32F403ACGU7_clone_windows_desktop_virtual_com_port\Release/../JPEG/tjpgd.c:1648
					jd->msx = b >> 4; jd->msy = b & 15;		/* Size of MCU [blocks] */
 8002efe:	0919      	lsrs	r1, r3, #4
 8002f00:	f003 030f 	and.w	r3, r3, #15
 8002f04:	f888 100e 	strb.w	r1, [r8, #14]
 8002f08:	f888 300f 	strb.w	r3, [r8, #15]
F:\AT32-workspace\AT32F403ACGU7_clone_windows_desktop_virtual_com_port\Release/../JPEG/tjpgd.c:1652
				jd->qtid[i] = seg[8 + 3 * i];				/* Get dequantizer table ID for this component */
 8002f0c:	f89b 3008 	ldrb.w	r3, [fp, #8]
 8002f10:	f888 3010 	strb.w	r3, [r8, #16]
F:\AT32-workspace\AT32F403ACGU7_clone_windows_desktop_virtual_com_port\Release/../JPEG/tjpgd.c:1653
				if (jd->qtid[i] > 3) return JDR_FMT3;		/* Err: Invalid ID */
 8002f14:	2b03      	cmp	r3, #3
 8002f16:	d819      	bhi.n	8002f4c <jd_prepare+0x1b4>
F:\AT32-workspace\AT32F403ACGU7_clone_windows_desktop_virtual_com_port\Release/../JPEG/tjpgd.c:1642
			for (i = 0; i < jd->ncomp; i++) {
 8002f18:	2a01      	cmp	r2, #1
 8002f1a:	d088      	beq.n	8002e2e <jd_prepare+0x96>
F:\AT32-workspace\AT32F403ACGU7_clone_windows_desktop_virtual_com_port\Release/../JPEG/tjpgd.c:1650
					if (b != 0x11) return JDR_FMT3;			/* Err: Sampling factor of Cb/Cr must be 1 */
 8002f1c:	f89b 300a 	ldrb.w	r3, [fp, #10]
 8002f20:	2b11      	cmp	r3, #17
 8002f22:	d113      	bne.n	8002f4c <jd_prepare+0x1b4>
F:\AT32-workspace\AT32F403ACGU7_clone_windows_desktop_virtual_com_port\Release/../JPEG/tjpgd.c:1652
				jd->qtid[i] = seg[8 + 3 * i];				/* Get dequantizer table ID for this component */
 8002f24:	f89b 300b 	ldrb.w	r3, [fp, #11]
 8002f28:	f888 3011 	strb.w	r3, [r8, #17]
F:\AT32-workspace\AT32F403ACGU7_clone_windows_desktop_virtual_com_port\Release/../JPEG/tjpgd.c:1653
				if (jd->qtid[i] > 3) return JDR_FMT3;		/* Err: Invalid ID */
 8002f2c:	2b03      	cmp	r3, #3
 8002f2e:	d80d      	bhi.n	8002f4c <jd_prepare+0x1b4>
F:\AT32-workspace\AT32F403ACGU7_clone_windows_desktop_virtual_com_port\Release/../JPEG/tjpgd.c:1642
			for (i = 0; i < jd->ncomp; i++) {
 8002f30:	2a03      	cmp	r2, #3
 8002f32:	f47f af7c 	bne.w	8002e2e <jd_prepare+0x96>
F:\AT32-workspace\AT32F403ACGU7_clone_windows_desktop_virtual_com_port\Release/../JPEG/tjpgd.c:1650
					if (b != 0x11) return JDR_FMT3;			/* Err: Sampling factor of Cb/Cr must be 1 */
 8002f36:	f89b 300d 	ldrb.w	r3, [fp, #13]
 8002f3a:	2b11      	cmp	r3, #17
 8002f3c:	d106      	bne.n	8002f4c <jd_prepare+0x1b4>
F:\AT32-workspace\AT32F403ACGU7_clone_windows_desktop_virtual_com_port\Release/../JPEG/tjpgd.c:1652
				jd->qtid[i] = seg[8 + 3 * i];				/* Get dequantizer table ID for this component */
 8002f3e:	f89b 300e 	ldrb.w	r3, [fp, #14]
 8002f42:	f888 3012 	strb.w	r3, [r8, #18]
F:\AT32-workspace\AT32F403ACGU7_clone_windows_desktop_virtual_com_port\Release/../JPEG/tjpgd.c:1653
				if (jd->qtid[i] > 3) return JDR_FMT3;		/* Err: Invalid ID */
 8002f46:	2b03      	cmp	r3, #3
 8002f48:	f67f af71 	bls.w	8002e2e <jd_prepare+0x96>
F:\AT32-workspace\AT32F403ACGU7_clone_windows_desktop_virtual_com_port\Release/../JPEG/tjpgd.c:1685
			if (seg[0] != jd->ncomp) return JDR_FMT3;		/* Err: Wrong color components */
 8002f4c:	2008      	movs	r0, #8
F:\AT32-workspace\AT32F403ACGU7_clone_windows_desktop_virtual_com_port\Release/../JPEG/tjpgd.c:1746
}
 8002f4e:	b013      	add	sp, #76	; 0x4c
 8002f50:	e8bd 8ff0 	ldmia.w	sp!, {r4, r5, r6, r7, r8, r9, sl, fp, pc}
F:\AT32-workspace\AT32F403ACGU7_clone_windows_desktop_virtual_com_port\Release/../JPEG/tjpgd.c:1613
	if (!seg) return JDR_MEM1;
 8002f54:	2003      	movs	r0, #3
F:\AT32-workspace\AT32F403ACGU7_clone_windows_desktop_virtual_com_port\Release/../JPEG/tjpgd.c:1612
	jd->inbuf = seg = alloc_pool(jd, JD_SZBUF);		/* Allocate stream input buffer */
 8002f56:	f8c8 b008 	str.w	fp, [r8, #8]
F:\AT32-workspace\AT32F403ACGU7_clone_windows_desktop_virtual_com_port\Release/../JPEG/tjpgd.c:1746
}
 8002f5a:	b013      	add	sp, #76	; 0x4c
 8002f5c:	e8bd 8ff0 	ldmia.w	sp!, {r4, r5, r6, r7, r8, r9, sl, fp, pc}
F:\AT32-workspace\AT32F403ACGU7_clone_windows_desktop_virtual_com_port\Release/../JPEG/tjpgd.c:1665
			if (len > JD_SZBUF) return JDR_MEM2;
 8002f60:	f5ba 6f80 	cmp.w	sl, #1024	; 0x400
 8002f64:	f200 835e 	bhi.w	8003624 <jd_prepare+0x88c>
F:\AT32-workspace\AT32F403ACGU7_clone_windows_desktop_virtual_com_port\Release/../JPEG/tjpgd.c:1666
			if (jd->infunc(jd, seg, len) != len) return JDR_INP;	/* Load segment data */
 8002f68:	f8d8 3098 	ldr.w	r3, [r8, #152]	; 0x98
 8002f6c:	4652      	mov	r2, sl
 8002f6e:	4659      	mov	r1, fp
 8002f70:	4640      	mov	r0, r8
 8002f72:	4798      	blx	r3
 8002f74:	4550      	cmp	r0, sl
 8002f76:	f47f af51 	bne.w	8002e1c <jd_prepare+0x84>
 8002f7a:	f8cd b020 	str.w	fp, [sp, #32]
 8002f7e:	f8cd a02c 	str.w	sl, [sp, #44]	; 0x2c
 8002f82:	f8cd 8024 	str.w	r8, [sp, #36]	; 0x24
 8002f86:	f8cd b040 	str.w	fp, [sp, #64]	; 0x40
create_huffman_tbl():
F:\AT32-workspace\AT32F403ACGU7_clone_windows_desktop_virtual_com_port\Release/../JPEG/tjpgd.c:557
		if (ndata < 17) return JDR_FMT1;	/* Err: wrong data size */
 8002f8a:	9b0b      	ldr	r3, [sp, #44]	; 0x2c
 8002f8c:	2b10      	cmp	r3, #16
 8002f8e:	f240 8186 	bls.w	800329e <jd_prepare+0x506>
F:\AT32-workspace\AT32F403ACGU7_clone_windows_desktop_virtual_com_port\Release/../JPEG/tjpgd.c:559
		d = *data++;						/* Get table number and class */
 8002f92:	9b08      	ldr	r3, [sp, #32]
 8002f94:	7819      	ldrb	r1, [r3, #0]
F:\AT32-workspace\AT32F403ACGU7_clone_windows_desktop_virtual_com_port\Release/../JPEG/tjpgd.c:560
		if (d & 0xEE) return JDR_FMT1;		/* Err: invalid class/number */
 8002f96:	f011 02ee 	ands.w	r2, r1, #238	; 0xee
 8002f9a:	f040 8180 	bne.w	800329e <jd_prepare+0x506>
alloc_pool():
F:\AT32-workspace\AT32F403ACGU7_clone_windows_desktop_virtual_com_port\Release/../JPEG/tjpgd.c:494
	if (jd->sz_pool >= ndata) {
 8002f9e:	9b09      	ldr	r3, [sp, #36]	; 0x24
 8002fa0:	f8d3 3094 	ldr.w	r3, [r3, #148]	; 0x94
 8002fa4:	2b0f      	cmp	r3, #15
 8002fa6:	d951      	bls.n	800304c <jd_prepare+0x2b4>
F:\AT32-workspace\AT32F403ACGU7_clone_windows_desktop_virtual_com_port\Release/../JPEG/tjpgd.c:495
		jd->sz_pool -= ndata;
 8002fa8:	9d09      	ldr	r5, [sp, #36]	; 0x24
 8002faa:	3b10      	subs	r3, #16
 8002fac:	f8c5 3094 	str.w	r3, [r5, #148]	; 0x94
F:\AT32-workspace\AT32F403ACGU7_clone_windows_desktop_virtual_com_port\Release/../JPEG/tjpgd.c:496
		rp = (char*)jd->pool;			/* Get start of available memory pool */
 8002fb0:	f8d5 3090 	ldr.w	r3, [r5, #144]	; 0x90
F:\AT32-workspace\AT32F403ACGU7_clone_windows_desktop_virtual_com_port\Release/../JPEG/tjpgd.c:497
		jd->pool = (void*)(rp + ndata);	/* Allocate requierd bytes */
 8002fb4:	f103 0010 	add.w	r0, r3, #16
 8002fb8:	f8c5 0090 	str.w	r0, [r5, #144]	; 0x90
create_huffman_tbl():
F:\AT32-workspace\AT32F403ACGU7_clone_windows_desktop_virtual_com_port\Release/../JPEG/tjpgd.c:563
		if (!pb) return JDR_MEM1;			/* Err: not enough memory */
 8002fbc:	2b00      	cmp	r3, #0
 8002fbe:	d045      	beq.n	800304c <jd_prepare+0x2b4>
F:\AT32-workspace\AT32F403ACGU7_clone_windows_desktop_virtual_com_port\Release/../JPEG/tjpgd.c:561
		cls = d >> 4; num = d & 0x0F;		/* class = dc(0)/ac(1), table number = 0/1 */
 8002fc0:	0908      	lsrs	r0, r1, #4
 8002fc2:	2402      	movs	r4, #2
 8002fc4:	f001 010f 	and.w	r1, r1, #15
 8002fc8:	910e      	str	r1, [sp, #56]	; 0x38
F:\AT32-workspace\AT32F403ACGU7_clone_windows_desktop_virtual_com_port\Release/../JPEG/tjpgd.c:564
		jd->huffbits[num][cls] = pb;
 8002fca:	fb14 0101 	smlabb	r1, r4, r1, r0
 8002fce:	eb05 0681 	add.w	r6, r5, r1, lsl #2
F:\AT32-workspace\AT32F403ACGU7_clone_windows_desktop_virtual_com_port\Release/../JPEG/tjpgd.c:566
			np += (pb[i] = *data++);		/* Get sum of code words for each code */
 8002fd2:	9c08      	ldr	r4, [sp, #32]
F:\AT32-workspace\AT32F403ACGU7_clone_windows_desktop_virtual_com_port\Release/../JPEG/tjpgd.c:564
		jd->huffbits[num][cls] = pb;
 8002fd4:	6233      	str	r3, [r6, #32]
F:\AT32-workspace\AT32F403ACGU7_clone_windows_desktop_virtual_com_port\Release/../JPEG/tjpgd.c:566
			np += (pb[i] = *data++);		/* Get sum of code words for each code */
 8002fd6:	7861      	ldrb	r1, [r4, #1]
 8002fd8:	7019      	strb	r1, [r3, #0]
F:\AT32-workspace\AT32F403ACGU7_clone_windows_desktop_virtual_com_port\Release/../JPEG/tjpgd.c:561
		cls = d >> 4; num = d & 0x0F;		/* class = dc(0)/ac(1), table number = 0/1 */
 8002fda:	900a      	str	r0, [sp, #40]	; 0x28
F:\AT32-workspace\AT32F403ACGU7_clone_windows_desktop_virtual_com_port\Release/../JPEG/tjpgd.c:566
			np += (pb[i] = *data++);		/* Get sum of code words for each code */
 8002fdc:	78a0      	ldrb	r0, [r4, #2]
 8002fde:	7058      	strb	r0, [r3, #1]
 8002fe0:	4408      	add	r0, r1
 8002fe2:	78e1      	ldrb	r1, [r4, #3]
 8002fe4:	7099      	strb	r1, [r3, #2]
 8002fe6:	4408      	add	r0, r1
 8002fe8:	7921      	ldrb	r1, [r4, #4]
 8002fea:	70d9      	strb	r1, [r3, #3]
 8002fec:	4408      	add	r0, r1
 8002fee:	7961      	ldrb	r1, [r4, #5]
 8002ff0:	7119      	strb	r1, [r3, #4]
 8002ff2:	4408      	add	r0, r1
 8002ff4:	79a1      	ldrb	r1, [r4, #6]
 8002ff6:	7159      	strb	r1, [r3, #5]
 8002ff8:	4408      	add	r0, r1
 8002ffa:	79e1      	ldrb	r1, [r4, #7]
 8002ffc:	7199      	strb	r1, [r3, #6]
 8002ffe:	4408      	add	r0, r1
 8003000:	7a21      	ldrb	r1, [r4, #8]
 8003002:	71d9      	strb	r1, [r3, #7]
 8003004:	4408      	add	r0, r1
 8003006:	7a61      	ldrb	r1, [r4, #9]
 8003008:	7219      	strb	r1, [r3, #8]
 800300a:	4408      	add	r0, r1
 800300c:	7aa1      	ldrb	r1, [r4, #10]
 800300e:	7259      	strb	r1, [r3, #9]
 8003010:	4408      	add	r0, r1
 8003012:	7ae1      	ldrb	r1, [r4, #11]
 8003014:	7299      	strb	r1, [r3, #10]
 8003016:	4408      	add	r0, r1
 8003018:	7b21      	ldrb	r1, [r4, #12]
 800301a:	72d9      	strb	r1, [r3, #11]
 800301c:	4408      	add	r0, r1
 800301e:	7b61      	ldrb	r1, [r4, #13]
 8003020:	7319      	strb	r1, [r3, #12]
 8003022:	4408      	add	r0, r1
 8003024:	7ba1      	ldrb	r1, [r4, #14]
 8003026:	960f      	str	r6, [sp, #60]	; 0x3c
 8003028:	4408      	add	r0, r1
 800302a:	7359      	strb	r1, [r3, #13]
 800302c:	7be1      	ldrb	r1, [r4, #15]
 800302e:	7399      	strb	r1, [r3, #14]
 8003030:	4401      	add	r1, r0
 8003032:	7c20      	ldrb	r0, [r4, #16]
 8003034:	73d8      	strb	r0, [r3, #15]
 8003036:	1841      	adds	r1, r0, r1
 8003038:	910c      	str	r1, [sp, #48]	; 0x30
F:\AT32-workspace\AT32F403ACGU7_clone_windows_desktop_virtual_com_port\Release/../JPEG/tjpgd.c:568
		ph = alloc_pool(jd, np * sizeof (uint16_t));/* Allocate a memory block for the code word table */
 800303a:	0049      	lsls	r1, r1, #1
alloc_pool():
F:\AT32-workspace\AT32F403ACGU7_clone_windows_desktop_virtual_com_port\Release/../JPEG/tjpgd.c:494
	if (jd->sz_pool >= ndata) {
 800303c:	f8d5 0094 	ldr.w	r0, [r5, #148]	; 0x94
F:\AT32-workspace\AT32F403ACGU7_clone_windows_desktop_virtual_com_port\Release/../JPEG/tjpgd.c:492
	ndata = (ndata + 3) & ~3;			/* Align block size to the word boundary */
 8003040:	3103      	adds	r1, #3
 8003042:	f021 0103 	bic.w	r1, r1, #3
F:\AT32-workspace\AT32F403ACGU7_clone_windows_desktop_virtual_com_port\Release/../JPEG/tjpgd.c:494
	if (jd->sz_pool >= ndata) {
 8003046:	4281      	cmp	r1, r0
 8003048:	f240 812e 	bls.w	80032a8 <jd_prepare+0x510>
jd_prepare():
F:\AT32-workspace\AT32F403ACGU7_clone_windows_desktop_virtual_com_port\Release/../JPEG/tjpgd.c:1713
			if (!jd->workbuf) return JDR_MEM1;			/* Err: not enough memory */
 800304c:	2003      	movs	r0, #3
F:\AT32-workspace\AT32F403ACGU7_clone_windows_desktop_virtual_com_port\Release/../JPEG/tjpgd.c:1746
}
 800304e:	b013      	add	sp, #76	; 0x4c
 8003050:	e8bd 8ff0 	ldmia.w	sp!, {r4, r5, r6, r7, r8, r9, sl, fp, pc}
F:\AT32-workspace\AT32F403ACGU7_clone_windows_desktop_virtual_com_port\Release/../JPEG/tjpgd.c:1742
			if (jd->infunc(jd, 0, len) != len) return JDR_INP;
 8003054:	f8d8 3098 	ldr.w	r3, [r8, #152]	; 0x98
 8003058:	4652      	mov	r2, sl
 800305a:	2100      	movs	r1, #0
 800305c:	4640      	mov	r0, r8
 800305e:	4798      	blx	r3
 8003060:	4550      	cmp	r0, sl
 8003062:	f43f aee4 	beq.w	8002e2e <jd_prepare+0x96>
 8003066:	e6d9      	b.n	8002e1c <jd_prepare+0x84>
F:\AT32-workspace\AT32F403ACGU7_clone_windows_desktop_virtual_com_port\Release/../JPEG/tjpgd.c:1658
			if (len > JD_SZBUF) return JDR_MEM2;
 8003068:	f5ba 6f80 	cmp.w	sl, #1024	; 0x400
 800306c:	f200 82da 	bhi.w	8003624 <jd_prepare+0x88c>
F:\AT32-workspace\AT32F403ACGU7_clone_windows_desktop_virtual_com_port\Release/../JPEG/tjpgd.c:1659
			if (jd->infunc(jd, seg, len) != len) return JDR_INP;	/* Load segment data */
 8003070:	f8d8 3098 	ldr.w	r3, [r8, #152]	; 0x98
 8003074:	4652      	mov	r2, sl
 8003076:	4659      	mov	r1, fp
 8003078:	4640      	mov	r0, r8
 800307a:	4798      	blx	r3
 800307c:	4550      	cmp	r0, sl
 800307e:	f47f aecd 	bne.w	8002e1c <jd_prepare+0x84>
F:\AT32-workspace\AT32F403ACGU7_clone_windows_desktop_virtual_com_port\Release/../JPEG/tjpgd.c:1661
			jd->nrst = LDB_WORD(seg);	/* Get restart interval (MCUs) */
 8003082:	f8bb 3000 	ldrh.w	r3, [fp]
 8003086:	ba5b      	rev16	r3, r3
 8003088:	f8a8 301a 	strh.w	r3, [r8, #26]
F:\AT32-workspace\AT32F403ACGU7_clone_windows_desktop_virtual_com_port\Release/../JPEG/tjpgd.c:1662
			break;
 800308c:	e6cf      	b.n	8002e2e <jd_prepare+0x96>
 800308e:	bf00      	nop
 8003090:	200000fc 	.word	0x200000fc
 8003094:	08005258 	.word	0x08005258
F:\AT32-workspace\AT32F403ACGU7_clone_windows_desktop_virtual_com_port\Release/../JPEG/tjpgd.c:1673
			if (len > JD_SZBUF) return JDR_MEM2;
 8003098:	f5ba 6f80 	cmp.w	sl, #1024	; 0x400
 800309c:	f200 82c2 	bhi.w	8003624 <jd_prepare+0x88c>
F:\AT32-workspace\AT32F403ACGU7_clone_windows_desktop_virtual_com_port\Release/../JPEG/tjpgd.c:1674
			if (jd->infunc(jd, seg, len) != len) return JDR_INP;	/* Load segment data */
 80030a0:	f8d8 3098 	ldr.w	r3, [r8, #152]	; 0x98
 80030a4:	4652      	mov	r2, sl
 80030a6:	4659      	mov	r1, fp
 80030a8:	4640      	mov	r0, r8
 80030aa:	4798      	blx	r3
 80030ac:	4550      	cmp	r0, sl
 80030ae:	f47f aeb5 	bne.w	8002e1c <jd_prepare+0x84>
 80030b2:	f10b 0702 	add.w	r7, fp, #2
create_qt_tbl():
F:\AT32-workspace\AT32F403ACGU7_clone_windows_desktop_virtual_com_port\Release/../JPEG/tjpgd.c:520
		if (ndata < 65) return JDR_FMT1;	/* Err: table size is unaligned */
 80030b6:	f1ba 0f40 	cmp.w	sl, #64	; 0x40
 80030ba:	f240 80f0 	bls.w	800329e <jd_prepare+0x506>
F:\AT32-workspace\AT32F403ACGU7_clone_windows_desktop_virtual_com_port\Release/../JPEG/tjpgd.c:522
		d = *data++;							/* Get table property */
 80030be:	f817 3c02 	ldrb.w	r3, [r7, #-2]
F:\AT32-workspace\AT32F403ACGU7_clone_windows_desktop_virtual_com_port\Release/../JPEG/tjpgd.c:523
		if (d & 0xF0) return JDR_FMT1;			/* Err: not 8-bit resolution */
 80030c2:	f013 0ff0 	tst.w	r3, #240	; 0xf0
 80030c6:	4638      	mov	r0, r7
 80030c8:	f040 80e9 	bne.w	800329e <jd_prepare+0x506>
alloc_pool():
F:\AT32-workspace\AT32F403ACGU7_clone_windows_desktop_virtual_com_port\Release/../JPEG/tjpgd.c:494
	if (jd->sz_pool >= ndata) {
 80030cc:	f8d8 2094 	ldr.w	r2, [r8, #148]	; 0x94
 80030d0:	2aff      	cmp	r2, #255	; 0xff
 80030d2:	d9bb      	bls.n	800304c <jd_prepare+0x2b4>
F:\AT32-workspace\AT32F403ACGU7_clone_windows_desktop_virtual_com_port\Release/../JPEG/tjpgd.c:496
		rp = (char*)jd->pool;			/* Get start of available memory pool */
 80030d4:	f8d8 5090 	ldr.w	r5, [r8, #144]	; 0x90
F:\AT32-workspace\AT32F403ACGU7_clone_windows_desktop_virtual_com_port\Release/../JPEG/tjpgd.c:495
		jd->sz_pool -= ndata;
 80030d8:	f5a2 7280 	sub.w	r2, r2, #256	; 0x100
 80030dc:	f8c8 2094 	str.w	r2, [r8, #148]	; 0x94
F:\AT32-workspace\AT32F403ACGU7_clone_windows_desktop_virtual_com_port\Release/../JPEG/tjpgd.c:497
		jd->pool = (void*)(rp + ndata);	/* Allocate requierd bytes */
 80030e0:	f505 7280 	add.w	r2, r5, #256	; 0x100
 80030e4:	f8c8 2090 	str.w	r2, [r8, #144]	; 0x90
create_qt_tbl():
F:\AT32-workspace\AT32F403ACGU7_clone_windows_desktop_virtual_com_port\Release/../JPEG/tjpgd.c:526
		if (!pb) return JDR_MEM1;				/* Err: not enough memory */
 80030e8:	2d00      	cmp	r5, #0
 80030ea:	d0af      	beq.n	800304c <jd_prepare+0x2b4>
F:\AT32-workspace\AT32F403ACGU7_clone_windows_desktop_virtual_com_port\Release/../JPEG/tjpgd.c:524
		i = d & 3;								/* Get table ID */
 80030ec:	f003 0303 	and.w	r3, r3, #3
F:\AT32-workspace\AT32F403ACGU7_clone_windows_desktop_virtual_com_port\Release/../JPEG/tjpgd.c:527
		jd->qttbl[i] = pb;						/* Register the table */
 80030f0:	3314      	adds	r3, #20
 80030f2:	4a6c      	ldr	r2, [pc, #432]	; (80032a4 <jd_prepare+0x50c>)
 80030f4:	f848 5023 	str.w	r5, [r8, r3, lsl #2]
F:\AT32-workspace\AT32F403ACGU7_clone_windows_desktop_virtual_com_port\Release/../JPEG/tjpgd.c:530
			pb[zi] = (int32_t)((uint32_t)*data++ * Ipsf[zi]);	/* Apply scale factor of Arai algorithm to the de-quantizers */
 80030f8:	f817 3c01 	ldrb.w	r3, [r7, #-1]
 80030fc:	035b      	lsls	r3, r3, #13
 80030fe:	602b      	str	r3, [r5, #0]
F:\AT32-workspace\AT32F403ACGU7_clone_windows_desktop_virtual_com_port\Release/../JPEG/tjpgd.c:528
		for (i = 0; i < 64; i++) {				/* Load the table */
 8003100:	f102 063f 	add.w	r6, r2, #63	; 0x3f
F:\AT32-workspace\AT32F403ACGU7_clone_windows_desktop_virtual_com_port\Release/../JPEG/tjpgd.c:529
			zi = Zig[i];						/* Zigzag-order to raster-order conversion */
 8003104:	f812 1f01 	ldrb.w	r1, [r2, #1]!
F:\AT32-workspace\AT32F403ACGU7_clone_windows_desktop_virtual_com_port\Release/../JPEG/tjpgd.c:530
			pb[zi] = (int32_t)((uint32_t)*data++ * Ipsf[zi]);	/* Apply scale factor of Arai algorithm to the de-quantizers */
 8003108:	f810 3b01 	ldrb.w	r3, [r0], #1
 800310c:	f839 4011 	ldrh.w	r4, [r9, r1, lsl #1]
F:\AT32-workspace\AT32F403ACGU7_clone_windows_desktop_virtual_com_port\Release/../JPEG/tjpgd.c:528
		for (i = 0; i < 64; i++) {				/* Load the table */
 8003110:	42b2      	cmp	r2, r6
F:\AT32-workspace\AT32F403ACGU7_clone_windows_desktop_virtual_com_port\Release/../JPEG/tjpgd.c:530
			pb[zi] = (int32_t)((uint32_t)*data++ * Ipsf[zi]);	/* Apply scale factor of Arai algorithm to the de-quantizers */
 8003112:	fb04 f303 	mul.w	r3, r4, r3
 8003116:	f845 3021 	str.w	r3, [r5, r1, lsl #2]
F:\AT32-workspace\AT32F403ACGU7_clone_windows_desktop_virtual_com_port\Release/../JPEG/tjpgd.c:528
		for (i = 0; i < 64; i++) {				/* Load the table */
 800311a:	d1f3      	bne.n	8003104 <jd_prepare+0x36c>
F:\AT32-workspace\AT32F403ACGU7_clone_windows_desktop_virtual_com_port\Release/../JPEG/tjpgd.c:519
	while (ndata) {	/* Process all tables in the segment */
 800311c:	f1ba 0a41 	subs.w	sl, sl, #65	; 0x41
 8003120:	f107 0741 	add.w	r7, r7, #65	; 0x41
 8003124:	d1c7      	bne.n	80030b6 <jd_prepare+0x31e>
 8003126:	e682      	b.n	8002e2e <jd_prepare+0x96>
jd_prepare():
F:\AT32-workspace\AT32F403ACGU7_clone_windows_desktop_virtual_com_port\Release/../JPEG/tjpgd.c:1681
			if (len > JD_SZBUF) return JDR_MEM2;
 8003128:	4652      	mov	r2, sl
 800312a:	f5b2 6f80 	cmp.w	r2, #1024	; 0x400
 800312e:	46da      	mov	sl, fp
 8003130:	f8dd b00c 	ldr.w	fp, [sp, #12]
 8003134:	f200 8276 	bhi.w	8003624 <jd_prepare+0x88c>
F:\AT32-workspace\AT32F403ACGU7_clone_windows_desktop_virtual_com_port\Release/../JPEG/tjpgd.c:1682
			if (jd->infunc(jd, seg, len) != len) return JDR_INP;	/* Load segment data */
 8003138:	f8d8 3098 	ldr.w	r3, [r8, #152]	; 0x98
 800313c:	4651      	mov	r1, sl
 800313e:	4640      	mov	r0, r8
 8003140:	4614      	mov	r4, r2
 8003142:	4798      	blx	r3
 8003144:	42a0      	cmp	r0, r4
 8003146:	f47f ae69 	bne.w	8002e1c <jd_prepare+0x84>
F:\AT32-workspace\AT32F403ACGU7_clone_windows_desktop_virtual_com_port\Release/../JPEG/tjpgd.c:1684
			if (!jd->width || !jd->height) return JDR_FMT1;	/* Err: Invalid image size */
 800314a:	f8b8 301c 	ldrh.w	r3, [r8, #28]
 800314e:	2b00      	cmp	r3, #0
 8003150:	f000 80a5 	beq.w	800329e <jd_prepare+0x506>
F:\AT32-workspace\AT32F403ACGU7_clone_windows_desktop_virtual_com_port\Release/../JPEG/tjpgd.c:1684 (discriminator 2)
 8003154:	f8b8 301e 	ldrh.w	r3, [r8, #30]
 8003158:	2b00      	cmp	r3, #0
 800315a:	f000 80a0 	beq.w	800329e <jd_prepare+0x506>
F:\AT32-workspace\AT32F403ACGU7_clone_windows_desktop_virtual_com_port\Release/../JPEG/tjpgd.c:1685
			if (seg[0] != jd->ncomp) return JDR_FMT3;		/* Err: Wrong color components */
 800315e:	f898 2013 	ldrb.w	r2, [r8, #19]
 8003162:	f89a 3000 	ldrb.w	r3, [sl]
 8003166:	4293      	cmp	r3, r2
 8003168:	f47f aef0 	bne.w	8002f4c <jd_prepare+0x1b4>
F:\AT32-workspace\AT32F403ACGU7_clone_windows_desktop_virtual_com_port\Release/../JPEG/tjpgd.c:1688
			for (i = 0; i < jd->ncomp; i++) {
 800316c:	2b00      	cmp	r3, #0
 800316e:	d03f      	beq.n	80031f0 <jd_prepare+0x458>
F:\AT32-workspace\AT32F403ACGU7_clone_windows_desktop_virtual_com_port\Release/../JPEG/tjpgd.c:1689
				b = seg[2 + 2 * i];	/* Get huffman table ID */
 8003170:	f89a 2002 	ldrb.w	r2, [sl, #2]
F:\AT32-workspace\AT32F403ACGU7_clone_windows_desktop_virtual_com_port\Release/../JPEG/tjpgd.c:1690
				if (b != 0x00 && b != 0x11)	return JDR_FMT3;	/* Err: Different table number for DC/AC element */
 8003174:	b112      	cbz	r2, 800317c <jd_prepare+0x3e4>
 8003176:	2a11      	cmp	r2, #17
 8003178:	f47f aee8 	bne.w	8002f4c <jd_prepare+0x1b4>
F:\AT32-workspace\AT32F403ACGU7_clone_windows_desktop_virtual_com_port\Release/../JPEG/tjpgd.c:1692
				if (!jd->huffbits[n][0] || !jd->huffbits[n][1]) {	/* Check huffman table for this component */
 800317c:	f8d8 2020 	ldr.w	r2, [r8, #32]
 8003180:	2a00      	cmp	r2, #0
 8003182:	f000 808c 	beq.w	800329e <jd_prepare+0x506>
 8003186:	f8d8 2024 	ldr.w	r2, [r8, #36]	; 0x24
 800318a:	2a00      	cmp	r2, #0
 800318c:	f000 8087 	beq.w	800329e <jd_prepare+0x506>
F:\AT32-workspace\AT32F403ACGU7_clone_windows_desktop_virtual_com_port\Release/../JPEG/tjpgd.c:1695
				if (!jd->qttbl[jd->qtid[i]]) {			/* Check dequantizer table for this component */
 8003190:	f898 2010 	ldrb.w	r2, [r8, #16]
 8003194:	3214      	adds	r2, #20
 8003196:	f858 2022 	ldr.w	r2, [r8, r2, lsl #2]
 800319a:	2a00      	cmp	r2, #0
 800319c:	d07f      	beq.n	800329e <jd_prepare+0x506>
F:\AT32-workspace\AT32F403ACGU7_clone_windows_desktop_virtual_com_port\Release/../JPEG/tjpgd.c:1688
			for (i = 0; i < jd->ncomp; i++) {
 800319e:	2b01      	cmp	r3, #1
 80031a0:	d026      	beq.n	80031f0 <jd_prepare+0x458>
F:\AT32-workspace\AT32F403ACGU7_clone_windows_desktop_virtual_com_port\Release/../JPEG/tjpgd.c:1689
				b = seg[2 + 2 * i];	/* Get huffman table ID */
 80031a2:	f89a 2004 	ldrb.w	r2, [sl, #4]
F:\AT32-workspace\AT32F403ACGU7_clone_windows_desktop_virtual_com_port\Release/../JPEG/tjpgd.c:1690
				if (b != 0x00 && b != 0x11)	return JDR_FMT3;	/* Err: Different table number for DC/AC element */
 80031a6:	b112      	cbz	r2, 80031ae <jd_prepare+0x416>
 80031a8:	2a11      	cmp	r2, #17
 80031aa:	f47f aecf 	bne.w	8002f4c <jd_prepare+0x1b4>
F:\AT32-workspace\AT32F403ACGU7_clone_windows_desktop_virtual_com_port\Release/../JPEG/tjpgd.c:1692
				if (!jd->huffbits[n][0] || !jd->huffbits[n][1]) {	/* Check huffman table for this component */
 80031ae:	f8d8 2028 	ldr.w	r2, [r8, #40]	; 0x28
 80031b2:	2a00      	cmp	r2, #0
 80031b4:	d073      	beq.n	800329e <jd_prepare+0x506>
 80031b6:	f8d8 202c 	ldr.w	r2, [r8, #44]	; 0x2c
 80031ba:	2a00      	cmp	r2, #0
 80031bc:	d06f      	beq.n	800329e <jd_prepare+0x506>
F:\AT32-workspace\AT32F403ACGU7_clone_windows_desktop_virtual_com_port\Release/../JPEG/tjpgd.c:1695
				if (!jd->qttbl[jd->qtid[i]]) {			/* Check dequantizer table for this component */
 80031be:	f898 2011 	ldrb.w	r2, [r8, #17]
 80031c2:	3214      	adds	r2, #20
 80031c4:	f858 2022 	ldr.w	r2, [r8, r2, lsl #2]
 80031c8:	2a00      	cmp	r2, #0
 80031ca:	d068      	beq.n	800329e <jd_prepare+0x506>
F:\AT32-workspace\AT32F403ACGU7_clone_windows_desktop_virtual_com_port\Release/../JPEG/tjpgd.c:1688
			for (i = 0; i < jd->ncomp; i++) {
 80031cc:	2b02      	cmp	r3, #2
 80031ce:	d00f      	beq.n	80031f0 <jd_prepare+0x458>
F:\AT32-workspace\AT32F403ACGU7_clone_windows_desktop_virtual_com_port\Release/../JPEG/tjpgd.c:1689
				b = seg[2 + 2 * i];	/* Get huffman table ID */
 80031d0:	f89a 2006 	ldrb.w	r2, [sl, #6]
F:\AT32-workspace\AT32F403ACGU7_clone_windows_desktop_virtual_com_port\Release/../JPEG/tjpgd.c:1690
				if (b != 0x00 && b != 0x11)	return JDR_FMT3;	/* Err: Different table number for DC/AC element */
 80031d4:	b112      	cbz	r2, 80031dc <jd_prepare+0x444>
 80031d6:	2a11      	cmp	r2, #17
 80031d8:	f47f aeb8 	bne.w	8002f4c <jd_prepare+0x1b4>
F:\AT32-workspace\AT32F403ACGU7_clone_windows_desktop_virtual_com_port\Release/../JPEG/tjpgd.c:1695
				if (!jd->qttbl[jd->qtid[i]]) {			/* Check dequantizer table for this component */
 80031dc:	f898 2012 	ldrb.w	r2, [r8, #18]
 80031e0:	3214      	adds	r2, #20
 80031e2:	f858 2022 	ldr.w	r2, [r8, r2, lsl #2]
 80031e6:	2a00      	cmp	r2, #0
 80031e8:	d059      	beq.n	800329e <jd_prepare+0x506>
F:\AT32-workspace\AT32F403ACGU7_clone_windows_desktop_virtual_com_port\Release/../JPEG/tjpgd.c:1688 (discriminator 1)
			for (i = 0; i < jd->ncomp; i++) {
 80031ea:	2b03      	cmp	r3, #3
 80031ec:	f47f aeae 	bne.w	8002f4c <jd_prepare+0x1b4>
F:\AT32-workspace\AT32F403ACGU7_clone_windows_desktop_virtual_com_port\Release/../JPEG/tjpgd.c:1701
			n = jd->msy * jd->msx;						/* Number of Y blocks in the MCU */
 80031f0:	f898 300f 	ldrb.w	r3, [r8, #15]
 80031f4:	f898 200e 	ldrb.w	r2, [r8, #14]
 80031f8:	fb13 f302 	smulbb	r3, r3, r2
F:\AT32-workspace\AT32F403ACGU7_clone_windows_desktop_virtual_com_port\Release/../JPEG/tjpgd.c:1702
			if (!n) return JDR_FMT1;					/* Err: SOF0 has not been loaded */
 80031fc:	2b00      	cmp	r3, #0
 80031fe:	d04e      	beq.n	800329e <jd_prepare+0x506>
F:\AT32-workspace\AT32F403ACGU7_clone_windows_desktop_virtual_com_port\Release/../JPEG/tjpgd.c:1703
			len = n * 64 * 2 + 64;						/* Allocate buffer for IDCT and RGB output */
 8003200:	01db      	lsls	r3, r3, #7
 8003202:	f103 0040 	add.w	r0, r3, #64	; 0x40
F:\AT32-workspace\AT32F403ACGU7_clone_windows_desktop_virtual_com_port\Release/../JPEG/tjpgd.c:1704
			if (len < 256) len = 256;					/* but at least 256 byte is required for IDCT */
 8003206:	f5b0 7f80 	cmp.w	r0, #256	; 0x100
alloc_pool():
F:\AT32-workspace\AT32F403ACGU7_clone_windows_desktop_virtual_com_port\Release/../JPEG/tjpgd.c:494
	if (jd->sz_pool >= ndata) {
 800320a:	f8d8 2094 	ldr.w	r2, [r8, #148]	; 0x94
 800320e:	bf38      	it	cc
 8003210:	f44f 7080 	movcc.w	r0, #256	; 0x100
 8003214:	ebb2 0f40 	cmp.w	r2, r0, lsl #1
F:\AT32-workspace\AT32F403ACGU7_clone_windows_desktop_virtual_com_port\Release/../JPEG/tjpgd.c:492
	ndata = (ndata + 3) & ~3;			/* Align block size to the word boundary */
 8003218:	ea4f 0140 	mov.w	r1, r0, lsl #1
F:\AT32-workspace\AT32F403ACGU7_clone_windows_desktop_virtual_com_port\Release/../JPEG/tjpgd.c:494
	if (jd->sz_pool >= ndata) {
 800321c:	f0c0 8257 	bcc.w	80036ce <jd_prepare+0x936>
jd_prepare():
F:\AT32-workspace\AT32F403ACGU7_clone_windows_desktop_virtual_com_port\Release/../JPEG/tjpgd.c:1709
			jd->offset_value = len;
 8003220:	f8c8 0084 	str.w	r0, [r8, #132]	; 0x84
alloc_pool():
F:\AT32-workspace\AT32F403ACGU7_clone_windows_desktop_virtual_com_port\Release/../JPEG/tjpgd.c:496
		rp = (char*)jd->pool;			/* Get start of available memory pool */
 8003224:	f8d8 0090 	ldr.w	r0, [r8, #144]	; 0x90
jd_prepare():
F:\AT32-workspace\AT32F403ACGU7_clone_windows_desktop_virtual_com_port\Release/../JPEG/tjpgd.c:1708
			jd->workbuf = alloc_pool(jd, 2 * len);		/* and it may occupy a part of following MCU working buffer for RGB output */
 8003228:	f8c8 007c 	str.w	r0, [r8, #124]	; 0x7c
alloc_pool():
F:\AT32-workspace\AT32F403ACGU7_clone_windows_desktop_virtual_com_port\Release/../JPEG/tjpgd.c:495
		jd->sz_pool -= ndata;
 800322c:	1a52      	subs	r2, r2, r1
jd_prepare():
F:\AT32-workspace\AT32F403ACGU7_clone_windows_desktop_virtual_com_port\Release/../JPEG/tjpgd.c:1710
			jd->offset = 0;
 800322e:	2400      	movs	r4, #0
alloc_pool():
F:\AT32-workspace\AT32F403ACGU7_clone_windows_desktop_virtual_com_port\Release/../JPEG/tjpgd.c:497
		jd->pool = (void*)(rp + ndata);	/* Allocate requierd bytes */
 8003230:	4401      	add	r1, r0
F:\AT32-workspace\AT32F403ACGU7_clone_windows_desktop_virtual_com_port\Release/../JPEG/tjpgd.c:495
		jd->sz_pool -= ndata;
 8003232:	f8c8 2094 	str.w	r2, [r8, #148]	; 0x94
F:\AT32-workspace\AT32F403ACGU7_clone_windows_desktop_virtual_com_port\Release/../JPEG/tjpgd.c:497
		jd->pool = (void*)(rp + ndata);	/* Allocate requierd bytes */
 8003236:	f8c8 1090 	str.w	r1, [r8, #144]	; 0x90
jd_prepare():
F:\AT32-workspace\AT32F403ACGU7_clone_windows_desktop_virtual_com_port\Release/../JPEG/tjpgd.c:1710
			jd->offset = 0;
 800323a:	f8c8 4080 	str.w	r4, [r8, #128]	; 0x80
F:\AT32-workspace\AT32F403ACGU7_clone_windows_desktop_virtual_com_port\Release/../JPEG/tjpgd.c:1713
			if (!jd->workbuf) return JDR_MEM1;			/* Err: not enough memory */
 800323e:	2800      	cmp	r0, #0
 8003240:	f43f af04 	beq.w	800304c <jd_prepare+0x2b4>
alloc_pool():
F:\AT32-workspace\AT32F403ACGU7_clone_windows_desktop_virtual_com_port\Release/../JPEG/tjpgd.c:492
	ndata = (ndata + 3) & ~3;			/* Align block size to the word boundary */
 8003244:	f503 7380 	add.w	r3, r3, #256	; 0x100
F:\AT32-workspace\AT32F403ACGU7_clone_windows_desktop_virtual_com_port\Release/../JPEG/tjpgd.c:494
	if (jd->sz_pool >= ndata) {
 8003248:	429a      	cmp	r2, r3
 800324a:	f0c0 823b 	bcc.w	80036c4 <jd_prepare+0x92c>
F:\AT32-workspace\AT32F403ACGU7_clone_windows_desktop_virtual_com_port\Release/../JPEG/tjpgd.c:495
		jd->sz_pool -= ndata;
 800324e:	1ad2      	subs	r2, r2, r3
 8003250:	f8c8 2094 	str.w	r2, [r8, #148]	; 0x94
F:\AT32-workspace\AT32F403ACGU7_clone_windows_desktop_virtual_com_port\Release/../JPEG/tjpgd.c:497
		jd->pool = (void*)(rp + ndata);	/* Allocate requierd bytes */
 8003254:	440b      	add	r3, r1
jd_prepare():
F:\AT32-workspace\AT32F403ACGU7_clone_windows_desktop_virtual_com_port\Release/../JPEG/tjpgd.c:1718
			if (ofs %= JD_SZBUF) {
 8003256:	f3cb 0209 	ubfx	r2, fp, #0, #10
F:\AT32-workspace\AT32F403ACGU7_clone_windows_desktop_virtual_com_port\Release/../JPEG/tjpgd.c:1714
			jd->mcubuf = alloc_pool(jd, (n + 2) * 64 * sizeof (jd_yuv_t));	/* Allocate MCU working buffer */
 800325a:	e9c8 1323 	strd	r1, r3, [r8, #140]	; 0x8c
F:\AT32-workspace\AT32F403ACGU7_clone_windows_desktop_virtual_com_port\Release/../JPEG/tjpgd.c:1718
			if (ofs %= JD_SZBUF) {
 800325e:	b14a      	cbz	r2, 8003274 <jd_prepare+0x4dc>
F:\AT32-workspace\AT32F403ACGU7_clone_windows_desktop_virtual_com_port\Release/../JPEG/tjpgd.c:1719
				jd->dctr = jd->infunc(jd, seg + ofs, (size_t)(JD_SZBUF - ofs));
 8003260:	4492      	add	sl, r2
 8003262:	f8d8 3098 	ldr.w	r3, [r8, #152]	; 0x98
 8003266:	f5c2 6280 	rsb	r2, r2, #1024	; 0x400
 800326a:	4651      	mov	r1, sl
 800326c:	4640      	mov	r0, r8
 800326e:	4798      	blx	r3
 8003270:	f8c8 0000 	str.w	r0, [r8]
F:\AT32-workspace\AT32F403ACGU7_clone_windows_desktop_virtual_com_port\Release/../JPEG/tjpgd.c:1721
			jd->dptr = seg + ofs - (JD_FASTDECODE ? 0 : 1);
 8003274:	f8c8 a004 	str.w	sl, [r8, #4]
F:\AT32-workspace\AT32F403ACGU7_clone_windows_desktop_virtual_com_port\Release/../JPEG/tjpgd.c:1723
			return JDR_OK;		/* Initialization succeeded. Ready to decompress the JPEG image. */
 8003278:	2000      	movs	r0, #0
 800327a:	e5d0      	b.n	8002e1e <jd_prepare+0x86>
 800327c:	460a      	mov	r2, r1
 800327e:	3211      	adds	r2, #17
 8003280:	4620      	mov	r0, r4
 8003282:	4410      	add	r0, r2
 8003284:	9a0d      	ldr	r2, [sp, #52]	; 0x34
 8003286:	9008      	str	r0, [sp, #32]
 8003288:	1e51      	subs	r1, r2, #1
 800328a:	e004      	b.n	8003296 <jd_prepare+0x4fe>
create_huffman_tbl():
F:\AT32-workspace\AT32F403ACGU7_clone_windows_desktop_virtual_com_port\Release/../JPEG/tjpgd.c:583
		for (i = 0; i < np; i++) {			/* Load decoded data corresponds to each code word */
 800328c:	4283      	cmp	r3, r0
F:\AT32-workspace\AT32F403ACGU7_clone_windows_desktop_virtual_com_port\Release/../JPEG/tjpgd.c:586
			pd[i] = d;
 800328e:	f801 2f01 	strb.w	r2, [r1, #1]!
F:\AT32-workspace\AT32F403ACGU7_clone_windows_desktop_virtual_com_port\Release/../JPEG/tjpgd.c:583
		for (i = 0; i < np; i++) {			/* Load decoded data corresponds to each code word */
 8003292:	f000 8124 	beq.w	80034de <jd_prepare+0x746>
F:\AT32-workspace\AT32F403ACGU7_clone_windows_desktop_virtual_com_port\Release/../JPEG/tjpgd.c:584
			d = *data++;
 8003296:	f813 2b01 	ldrb.w	r2, [r3], #1
F:\AT32-workspace\AT32F403ACGU7_clone_windows_desktop_virtual_com_port\Release/../JPEG/tjpgd.c:585
			if (!cls && d > 11) return JDR_FMT1;
 800329a:	2a0b      	cmp	r2, #11
 800329c:	d9f6      	bls.n	800328c <jd_prepare+0x4f4>
jd_prepare():
F:\AT32-workspace\AT32F403ACGU7_clone_windows_desktop_virtual_com_port\Release/../JPEG/tjpgd.c:1627
		if (len <= 2 || (marker >> 8) != 0xFF) return JDR_FMT1;
 800329e:	2006      	movs	r0, #6
 80032a0:	e5bd      	b.n	8002e1e <jd_prepare+0x86>
 80032a2:	bf00      	nop
 80032a4:	080052d8 	.word	0x080052d8
alloc_pool():
F:\AT32-workspace\AT32F403ACGU7_clone_windows_desktop_virtual_com_port\Release/../JPEG/tjpgd.c:496
		rp = (char*)jd->pool;			/* Get start of available memory pool */
 80032a8:	f8d5 7090 	ldr.w	r7, [r5, #144]	; 0x90
F:\AT32-workspace\AT32F403ACGU7_clone_windows_desktop_virtual_com_port\Release/../JPEG/tjpgd.c:495
		jd->sz_pool -= ndata;
 80032ac:	1a40      	subs	r0, r0, r1
F:\AT32-workspace\AT32F403ACGU7_clone_windows_desktop_virtual_com_port\Release/../JPEG/tjpgd.c:497
		jd->pool = (void*)(rp + ndata);	/* Allocate requierd bytes */
 80032ae:	1879      	adds	r1, r7, r1
F:\AT32-workspace\AT32F403ACGU7_clone_windows_desktop_virtual_com_port\Release/../JPEG/tjpgd.c:495
		jd->sz_pool -= ndata;
 80032b0:	9011      	str	r0, [sp, #68]	; 0x44
 80032b2:	f8c5 0094 	str.w	r0, [r5, #148]	; 0x94
F:\AT32-workspace\AT32F403ACGU7_clone_windows_desktop_virtual_com_port\Release/../JPEG/tjpgd.c:497
		jd->pool = (void*)(rp + ndata);	/* Allocate requierd bytes */
 80032b6:	910d      	str	r1, [sp, #52]	; 0x34
 80032b8:	f8c5 1090 	str.w	r1, [r5, #144]	; 0x90
create_huffman_tbl():
F:\AT32-workspace\AT32F403ACGU7_clone_windows_desktop_virtual_com_port\Release/../JPEG/tjpgd.c:569
		if (!ph) return JDR_MEM1;			/* Err: not enough memory */
 80032bc:	2f00      	cmp	r7, #0
 80032be:	f43f aec5 	beq.w	800304c <jd_prepare+0x2b4>
F:\AT32-workspace\AT32F403ACGU7_clone_windows_desktop_virtual_com_port\Release/../JPEG/tjpgd.c:570
		jd->huffcode[num][cls] = ph;
 80032c2:	1e59      	subs	r1, r3, #1
 80032c4:	330f      	adds	r3, #15
 80032c6:	6337      	str	r7, [r6, #48]	; 0x30
F:\AT32-workspace\AT32F403ACGU7_clone_windows_desktop_virtual_com_port\Release/../JPEG/tjpgd.c:572
		for (j = i = 0; i < 16; i++) {		/* Re-build huffman code word table */
 80032c8:	9107      	str	r1, [sp, #28]
 80032ca:	9306      	str	r3, [sp, #24]
F:\AT32-workspace\AT32F403ACGU7_clone_windows_desktop_virtual_com_port\Release/../JPEG/tjpgd.c:570
		jd->huffcode[num][cls] = ph;
 80032cc:	9101      	str	r1, [sp, #4]
F:\AT32-workspace\AT32F403ACGU7_clone_windows_desktop_virtual_com_port\Release/../JPEG/tjpgd.c:572
		for (j = i = 0; i < 16; i++) {		/* Re-build huffman code word table */
 80032ce:	4693      	mov	fp, r2
 80032d0:	46be      	mov	lr, r7
F:\AT32-workspace\AT32F403ACGU7_clone_windows_desktop_virtual_com_port\Release/../JPEG/tjpgd.c:573
			b = pb[i];
 80032d2:	9b01      	ldr	r3, [sp, #4]
 80032d4:	f813 8f01 	ldrb.w	r8, [r3, #1]!
 80032d8:	9301      	str	r3, [sp, #4]
F:\AT32-workspace\AT32F403ACGU7_clone_windows_desktop_virtual_com_port\Release/../JPEG/tjpgd.c:574
			while (b--) ph[j++] = hc++;
 80032da:	f108 34ff 	add.w	r4, r8, #4294967295
 80032de:	9404      	str	r4, [sp, #16]
 80032e0:	f1b8 0f00 	cmp.w	r8, #0
 80032e4:	f000 80a4 	beq.w	8003430 <jd_prepare+0x698>
 80032e8:	eb0e 014b 	add.w	r1, lr, fp, lsl #1
 80032ec:	084b      	lsrs	r3, r1, #1
 80032ee:	425b      	negs	r3, r3
 80032f0:	2c09      	cmp	r4, #9
 80032f2:	f003 0303 	and.w	r3, r3, #3
 80032f6:	ea4f 004b 	mov.w	r0, fp, lsl #1
 80032fa:	f240 818d 	bls.w	8003618 <jd_prepare+0x880>
 80032fe:	2b00      	cmp	r3, #0
 8003300:	f000 815a 	beq.w	80035b8 <jd_prepare+0x820>
 8003304:	f82e 2000 	strh.w	r2, [lr, r0]
 8003308:	1c50      	adds	r0, r2, #1
 800330a:	9005      	str	r0, [sp, #20]
 800330c:	b286      	uxth	r6, r0
 800330e:	2b01      	cmp	r3, #1
 8003310:	f1a8 0002 	sub.w	r0, r8, #2
 8003314:	f10b 0701 	add.w	r7, fp, #1
 8003318:	9002      	str	r0, [sp, #8]
 800331a:	d011      	beq.n	8003340 <jd_prepare+0x5a8>
 800331c:	804e      	strh	r6, [r1, #2]
 800331e:	f1a8 0003 	sub.w	r0, r8, #3
 8003322:	1c96      	adds	r6, r2, #2
 8003324:	2b03      	cmp	r3, #3
 8003326:	b2b6      	uxth	r6, r6
 8003328:	f10b 0702 	add.w	r7, fp, #2
 800332c:	9002      	str	r0, [sp, #8]
 800332e:	d107      	bne.n	8003340 <jd_prepare+0x5a8>
 8003330:	808e      	strh	r6, [r1, #4]
 8003332:	1cd6      	adds	r6, r2, #3
 8003334:	f1a8 0204 	sub.w	r2, r8, #4
 8003338:	b2b6      	uxth	r6, r6
 800333a:	f10b 0703 	add.w	r7, fp, #3
 800333e:	9202      	str	r2, [sp, #8]
 8003340:	2200      	movs	r2, #0
 8003342:	4611      	mov	r1, r2
 8003344:	1cb0      	adds	r0, r6, #2
 8003346:	f360 010f 	bfi	r1, r0, #0, #16
 800334a:	eba8 0a03 	sub.w	sl, r8, r3
 800334e:	1c70      	adds	r0, r6, #1
 8003350:	f366 020f 	bfi	r2, r6, #0, #16
 8003354:	445b      	add	r3, fp
 8003356:	eb0e 0343 	add.w	r3, lr, r3, lsl #1
 800335a:	f360 421f 	bfi	r2, r0, #16, #16
 800335e:	ea4f 0c9a 	mov.w	ip, sl, lsr #2
 8003362:	1cf0      	adds	r0, r6, #3
 8003364:	f360 411f 	bfi	r1, r0, #16, #16
 8003368:	eb03 0ccc 	add.w	ip, r3, ip, lsl #3
 800336c:	1d15      	adds	r5, r2, #4
 800336e:	2000      	movs	r0, #0
 8003370:	4604      	mov	r4, r0
 8003372:	f365 000f 	bfi	r0, r5, #0, #16
 8003376:	f3c2 450f 	ubfx	r5, r2, #16, #16
 800337a:	601a      	str	r2, [r3, #0]
 800337c:	1d2a      	adds	r2, r5, #4
 800337e:	f362 401f 	bfi	r0, r2, #16, #16
 8003382:	4602      	mov	r2, r0
 8003384:	1d08      	adds	r0, r1, #4
 8003386:	f360 040f 	bfi	r4, r0, #0, #16
 800338a:	f3c1 400f 	ubfx	r0, r1, #16, #16
 800338e:	6059      	str	r1, [r3, #4]
 8003390:	1d01      	adds	r1, r0, #4
 8003392:	3308      	adds	r3, #8
 8003394:	f361 441f 	bfi	r4, r1, #16, #16
 8003398:	4563      	cmp	r3, ip
 800339a:	4621      	mov	r1, r4
 800339c:	d1e6      	bne.n	800336c <jd_prepare+0x5d4>
 800339e:	f02a 0203 	bic.w	r2, sl, #3
 80033a2:	9b02      	ldr	r3, [sp, #8]
 80033a4:	4416      	add	r6, r2
 80033a6:	4592      	cmp	sl, r2
 80033a8:	b2b6      	uxth	r6, r6
 80033aa:	4417      	add	r7, r2
 80033ac:	eba3 0102 	sub.w	r1, r3, r2
 80033b0:	d038      	beq.n	8003424 <jd_prepare+0x68c>
 80033b2:	1c73      	adds	r3, r6, #1
 80033b4:	f82e 6017 	strh.w	r6, [lr, r7, lsl #1]
 80033b8:	b29a      	uxth	r2, r3
 80033ba:	007f      	lsls	r7, r7, #1
 80033bc:	2900      	cmp	r1, #0
 80033be:	d031      	beq.n	8003424 <jd_prepare+0x68c>
 80033c0:	eb0e 0307 	add.w	r3, lr, r7
 80033c4:	2901      	cmp	r1, #1
 80033c6:	805a      	strh	r2, [r3, #2]
 80033c8:	f106 0202 	add.w	r2, r6, #2
 80033cc:	b292      	uxth	r2, r2
 80033ce:	d029      	beq.n	8003424 <jd_prepare+0x68c>
 80033d0:	809a      	strh	r2, [r3, #4]
 80033d2:	2902      	cmp	r1, #2
 80033d4:	f106 0203 	add.w	r2, r6, #3
 80033d8:	b292      	uxth	r2, r2
 80033da:	d023      	beq.n	8003424 <jd_prepare+0x68c>
 80033dc:	80da      	strh	r2, [r3, #6]
 80033de:	2903      	cmp	r1, #3
 80033e0:	f106 0204 	add.w	r2, r6, #4
 80033e4:	b292      	uxth	r2, r2
 80033e6:	d01d      	beq.n	8003424 <jd_prepare+0x68c>
 80033e8:	811a      	strh	r2, [r3, #8]
 80033ea:	2904      	cmp	r1, #4
 80033ec:	f106 0205 	add.w	r2, r6, #5
 80033f0:	b292      	uxth	r2, r2
 80033f2:	d017      	beq.n	8003424 <jd_prepare+0x68c>
 80033f4:	815a      	strh	r2, [r3, #10]
 80033f6:	2905      	cmp	r1, #5
 80033f8:	f106 0206 	add.w	r2, r6, #6
 80033fc:	b292      	uxth	r2, r2
 80033fe:	d011      	beq.n	8003424 <jd_prepare+0x68c>
 8003400:	819a      	strh	r2, [r3, #12]
 8003402:	2906      	cmp	r1, #6
 8003404:	f106 0207 	add.w	r2, r6, #7
 8003408:	b292      	uxth	r2, r2
 800340a:	d00b      	beq.n	8003424 <jd_prepare+0x68c>
 800340c:	81da      	strh	r2, [r3, #14]
 800340e:	2907      	cmp	r1, #7
 8003410:	f106 0208 	add.w	r2, r6, #8
 8003414:	b292      	uxth	r2, r2
 8003416:	d005      	beq.n	8003424 <jd_prepare+0x68c>
 8003418:	3609      	adds	r6, #9
 800341a:	b2b6      	uxth	r6, r6
 800341c:	2908      	cmp	r1, #8
 800341e:	821a      	strh	r2, [r3, #16]
 8003420:	bf18      	it	ne
 8003422:	825e      	strhne	r6, [r3, #18]
 8003424:	e9dd 2304 	ldrd	r2, r3, [sp, #16]
 8003428:	fa12 f683 	uxtah	r6, r2, r3
 800342c:	44c3      	add	fp, r8
 800342e:	b2b2      	uxth	r2, r6
F:\AT32-workspace\AT32F403ACGU7_clone_windows_desktop_virtual_com_port\Release/../JPEG/tjpgd.c:572
		for (j = i = 0; i < 16; i++) {		/* Re-build huffman code word table */
 8003430:	9b01      	ldr	r3, [sp, #4]
 8003432:	9906      	ldr	r1, [sp, #24]
F:\AT32-workspace\AT32F403ACGU7_clone_windows_desktop_virtual_com_port\Release/../JPEG/tjpgd.c:575
			hc <<= 1;
 8003434:	0056      	lsls	r6, r2, #1
F:\AT32-workspace\AT32F403ACGU7_clone_windows_desktop_virtual_com_port\Release/../JPEG/tjpgd.c:572
		for (j = i = 0; i < 16; i++) {		/* Re-build huffman code word table */
 8003436:	428b      	cmp	r3, r1
F:\AT32-workspace\AT32F403ACGU7_clone_windows_desktop_virtual_com_port\Release/../JPEG/tjpgd.c:575
			hc <<= 1;
 8003438:	b2b2      	uxth	r2, r6
F:\AT32-workspace\AT32F403ACGU7_clone_windows_desktop_virtual_com_port\Release/../JPEG/tjpgd.c:572
		for (j = i = 0; i < 16; i++) {		/* Re-build huffman code word table */
 800343a:	f47f af4a 	bne.w	80032d2 <jd_prepare+0x53a>
F:\AT32-workspace\AT32F403ACGU7_clone_windows_desktop_virtual_com_port\Release/../JPEG/tjpgd.c:558
		ndata -= 17;
 800343e:	9b0b      	ldr	r3, [sp, #44]	; 0x2c
F:\AT32-workspace\AT32F403ACGU7_clone_windows_desktop_virtual_com_port\Release/../JPEG/tjpgd.c:578
		if (ndata < np) return JDR_FMT1;	/* Err: wrong data size */
 8003440:	990c      	ldr	r1, [sp, #48]	; 0x30
F:\AT32-workspace\AT32F403ACGU7_clone_windows_desktop_virtual_com_port\Release/../JPEG/tjpgd.c:558
		ndata -= 17;
 8003442:	3b11      	subs	r3, #17
F:\AT32-workspace\AT32F403ACGU7_clone_windows_desktop_virtual_com_port\Release/../JPEG/tjpgd.c:578
		if (ndata < np) return JDR_FMT1;	/* Err: wrong data size */
 8003444:	428b      	cmp	r3, r1
F:\AT32-workspace\AT32F403ACGU7_clone_windows_desktop_virtual_com_port\Release/../JPEG/tjpgd.c:558
		ndata -= 17;
 8003446:	4677      	mov	r7, lr
 8003448:	9305      	str	r3, [sp, #20]
F:\AT32-workspace\AT32F403ACGU7_clone_windows_desktop_virtual_com_port\Release/../JPEG/tjpgd.c:578
		if (ndata < np) return JDR_FMT1;	/* Err: wrong data size */
 800344a:	f4ff af28 	bcc.w	800329e <jd_prepare+0x506>
alloc_pool():
F:\AT32-workspace\AT32F403ACGU7_clone_windows_desktop_virtual_com_port\Release/../JPEG/tjpgd.c:494
	if (jd->sz_pool >= ndata) {
 800344e:	9a11      	ldr	r2, [sp, #68]	; 0x44
F:\AT32-workspace\AT32F403ACGU7_clone_windows_desktop_virtual_com_port\Release/../JPEG/tjpgd.c:492
	ndata = (ndata + 3) & ~3;			/* Align block size to the word boundary */
 8003450:	1ccb      	adds	r3, r1, #3
 8003452:	f023 0303 	bic.w	r3, r3, #3
F:\AT32-workspace\AT32F403ACGU7_clone_windows_desktop_virtual_com_port\Release/../JPEG/tjpgd.c:494
	if (jd->sz_pool >= ndata) {
 8003456:	429a      	cmp	r2, r3
 8003458:	f4ff adf8 	bcc.w	800304c <jd_prepare+0x2b4>
F:\AT32-workspace\AT32F403ACGU7_clone_windows_desktop_virtual_com_port\Release/../JPEG/tjpgd.c:497
		jd->pool = (void*)(rp + ndata);	/* Allocate requierd bytes */
 800345c:	980d      	ldr	r0, [sp, #52]	; 0x34
 800345e:	9c09      	ldr	r4, [sp, #36]	; 0x24
F:\AT32-workspace\AT32F403ACGU7_clone_windows_desktop_virtual_com_port\Release/../JPEG/tjpgd.c:495
		jd->sz_pool -= ndata;
 8003460:	1ad2      	subs	r2, r2, r3
F:\AT32-workspace\AT32F403ACGU7_clone_windows_desktop_virtual_com_port\Release/../JPEG/tjpgd.c:497
		jd->pool = (void*)(rp + ndata);	/* Allocate requierd bytes */
 8003462:	4403      	add	r3, r0
F:\AT32-workspace\AT32F403ACGU7_clone_windows_desktop_virtual_com_port\Release/../JPEG/tjpgd.c:495
		jd->sz_pool -= ndata;
 8003464:	e9c4 3224 	strd	r3, r2, [r4, #144]	; 0x90
create_huffman_tbl():
F:\AT32-workspace\AT32F403ACGU7_clone_windows_desktop_virtual_com_port\Release/../JPEG/tjpgd.c:581
		if (!pd) return JDR_MEM1;			/* Err: not enough memory */
 8003468:	2800      	cmp	r0, #0
 800346a:	f43f adef 	beq.w	800304c <jd_prepare+0x2b4>
F:\AT32-workspace\AT32F403ACGU7_clone_windows_desktop_virtual_com_port\Release/../JPEG/tjpgd.c:582
		jd->huffdata[num][cls] = pd;
 800346e:	9b0f      	ldr	r3, [sp, #60]	; 0x3c
F:\AT32-workspace\AT32F403ACGU7_clone_windows_desktop_virtual_com_port\Release/../JPEG/tjpgd.c:566
			np += (pb[i] = *data++);		/* Get sum of code words for each code */
 8003470:	9c08      	ldr	r4, [sp, #32]
F:\AT32-workspace\AT32F403ACGU7_clone_windows_desktop_virtual_com_port\Release/../JPEG/tjpgd.c:582
		jd->huffdata[num][cls] = pd;
 8003472:	6418      	str	r0, [r3, #64]	; 0x40
F:\AT32-workspace\AT32F403ACGU7_clone_windows_desktop_virtual_com_port\Release/../JPEG/tjpgd.c:566
			np += (pb[i] = *data++);		/* Get sum of code words for each code */
 8003474:	f104 0311 	add.w	r3, r4, #17
F:\AT32-workspace\AT32F403ACGU7_clone_windows_desktop_virtual_com_port\Release/../JPEG/tjpgd.c:583
		for (i = 0; i < np; i++) {			/* Load decoded data corresponds to each code word */
 8003478:	2900      	cmp	r1, #0
 800347a:	f000 8121 	beq.w	80036c0 <jd_prepare+0x928>
 800347e:	9a0a      	ldr	r2, [sp, #40]	; 0x28
 8003480:	2a00      	cmp	r2, #0
 8003482:	f43f aefb 	beq.w	800327c <jd_prepare+0x4e4>
 8003486:	f104 0212 	add.w	r2, r4, #18
 800348a:	1a82      	subs	r2, r0, r2
 800348c:	2a02      	cmp	r2, #2
 800348e:	f240 8107 	bls.w	80036a0 <jd_prepare+0x908>
 8003492:	1e4a      	subs	r2, r1, #1
 8003494:	2a07      	cmp	r2, #7
 8003496:	f240 8103 	bls.w	80036a0 <jd_prepare+0x908>
 800349a:	088c      	lsrs	r4, r1, #2
 800349c:	eb00 0484 	add.w	r4, r0, r4, lsl #2
 80034a0:	4602      	mov	r2, r0
 80034a2:	4619      	mov	r1, r3
F:\AT32-workspace\AT32F403ACGU7_clone_windows_desktop_virtual_com_port\Release/../JPEG/tjpgd.c:584
			d = *data++;
 80034a4:	f851 0b04 	ldr.w	r0, [r1], #4
F:\AT32-workspace\AT32F403ACGU7_clone_windows_desktop_virtual_com_port\Release/../JPEG/tjpgd.c:586
			pd[i] = d;
 80034a8:	f842 0b04 	str.w	r0, [r2], #4
F:\AT32-workspace\AT32F403ACGU7_clone_windows_desktop_virtual_com_port\Release/../JPEG/tjpgd.c:583
		for (i = 0; i < np; i++) {			/* Load decoded data corresponds to each code word */
 80034ac:	42a2      	cmp	r2, r4
 80034ae:	d1f9      	bne.n	80034a4 <jd_prepare+0x70c>
 80034b0:	9d0c      	ldr	r5, [sp, #48]	; 0x30
 80034b2:	f025 0203 	bic.w	r2, r5, #3
 80034b6:	42aa      	cmp	r2, r5
 80034b8:	eb03 0102 	add.w	r1, r3, r2
 80034bc:	d00c      	beq.n	80034d8 <jd_prepare+0x740>
F:\AT32-workspace\AT32F403ACGU7_clone_windows_desktop_virtual_com_port\Release/../JPEG/tjpgd.c:586
			pd[i] = d;
 80034be:	9e0d      	ldr	r6, [sp, #52]	; 0x34
F:\AT32-workspace\AT32F403ACGU7_clone_windows_desktop_virtual_com_port\Release/../JPEG/tjpgd.c:584
			d = *data++;
 80034c0:	5c98      	ldrb	r0, [r3, r2]
F:\AT32-workspace\AT32F403ACGU7_clone_windows_desktop_virtual_com_port\Release/../JPEG/tjpgd.c:586
			pd[i] = d;
 80034c2:	54b0      	strb	r0, [r6, r2]
F:\AT32-workspace\AT32F403ACGU7_clone_windows_desktop_virtual_com_port\Release/../JPEG/tjpgd.c:583
		for (i = 0; i < np; i++) {			/* Load decoded data corresponds to each code word */
 80034c4:	1c50      	adds	r0, r2, #1
 80034c6:	4285      	cmp	r5, r0
 80034c8:	d906      	bls.n	80034d8 <jd_prepare+0x740>
 80034ca:	3202      	adds	r2, #2
F:\AT32-workspace\AT32F403ACGU7_clone_windows_desktop_virtual_com_port\Release/../JPEG/tjpgd.c:584
			d = *data++;
 80034cc:	784c      	ldrb	r4, [r1, #1]
F:\AT32-workspace\AT32F403ACGU7_clone_windows_desktop_virtual_com_port\Release/../JPEG/tjpgd.c:586
			pd[i] = d;
 80034ce:	5434      	strb	r4, [r6, r0]
F:\AT32-workspace\AT32F403ACGU7_clone_windows_desktop_virtual_com_port\Release/../JPEG/tjpgd.c:583
		for (i = 0; i < np; i++) {			/* Load decoded data corresponds to each code word */
 80034d0:	4295      	cmp	r5, r2
 80034d2:	d901      	bls.n	80034d8 <jd_prepare+0x740>
F:\AT32-workspace\AT32F403ACGU7_clone_windows_desktop_virtual_com_port\Release/../JPEG/tjpgd.c:584
			d = *data++;
 80034d4:	7889      	ldrb	r1, [r1, #2]
F:\AT32-workspace\AT32F403ACGU7_clone_windows_desktop_virtual_com_port\Release/../JPEG/tjpgd.c:586
			pd[i] = d;
 80034d6:	54b1      	strb	r1, [r6, r2]
F:\AT32-workspace\AT32F403ACGU7_clone_windows_desktop_virtual_com_port\Release/../JPEG/tjpgd.c:584
			d = *data++;
 80034d8:	9a0c      	ldr	r2, [sp, #48]	; 0x30
 80034da:	4413      	add	r3, r2
 80034dc:	9308      	str	r3, [sp, #32]
alloc_pool():
F:\AT32-workspace\AT32F403ACGU7_clone_windows_desktop_virtual_com_port\Release/../JPEG/tjpgd.c:494
	if (jd->sz_pool >= ndata) {
 80034de:	9b09      	ldr	r3, [sp, #36]	; 0x24
 80034e0:	f8d3 2094 	ldr.w	r2, [r3, #148]	; 0x94
create_huffman_tbl():
F:\AT32-workspace\AT32F403ACGU7_clone_windows_desktop_virtual_com_port\Release/../JPEG/tjpgd.c:596
			if (cls) {
 80034e4:	9b0a      	ldr	r3, [sp, #40]	; 0x28
 80034e6:	2b00      	cmp	r3, #0
 80034e8:	f000 80b3 	beq.w	8003652 <jd_prepare+0x8ba>
alloc_pool():
F:\AT32-workspace\AT32F403ACGU7_clone_windows_desktop_virtual_com_port\Release/../JPEG/tjpgd.c:494
	if (jd->sz_pool >= ndata) {
 80034ec:	f5b2 6f00 	cmp.w	r2, #2048	; 0x800
 80034f0:	f4ff adac 	bcc.w	800304c <jd_prepare+0x2b4>
F:\AT32-workspace\AT32F403ACGU7_clone_windows_desktop_virtual_com_port\Release/../JPEG/tjpgd.c:495
		jd->sz_pool -= ndata;
 80034f4:	9b09      	ldr	r3, [sp, #36]	; 0x24
 80034f6:	f5a2 6200 	sub.w	r2, r2, #2048	; 0x800
F:\AT32-workspace\AT32F403ACGU7_clone_windows_desktop_virtual_com_port\Release/../JPEG/tjpgd.c:496
		rp = (char*)jd->pool;			/* Get start of available memory pool */
 80034fa:	f8d3 b090 	ldr.w	fp, [r3, #144]	; 0x90
F:\AT32-workspace\AT32F403ACGU7_clone_windows_desktop_virtual_com_port\Release/../JPEG/tjpgd.c:495
		jd->sz_pool -= ndata;
 80034fe:	f8c3 2094 	str.w	r2, [r3, #148]	; 0x94
F:\AT32-workspace\AT32F403ACGU7_clone_windows_desktop_virtual_com_port\Release/../JPEG/tjpgd.c:496
		rp = (char*)jd->pool;			/* Get start of available memory pool */
 8003502:	461a      	mov	r2, r3
F:\AT32-workspace\AT32F403ACGU7_clone_windows_desktop_virtual_com_port\Release/../JPEG/tjpgd.c:497
		jd->pool = (void*)(rp + ndata);	/* Allocate requierd bytes */
 8003504:	f50b 6300 	add.w	r3, fp, #2048	; 0x800
 8003508:	f8c2 3090 	str.w	r3, [r2, #144]	; 0x90
create_huffman_tbl():
F:\AT32-workspace\AT32F403ACGU7_clone_windows_desktop_virtual_com_port\Release/../JPEG/tjpgd.c:598
				if (!tbl_ac) return JDR_MEM1;		/* Err: not enough memory */
 800350c:	f1bb 0f00 	cmp.w	fp, #0
 8003510:	f43f ad9c 	beq.w	800304c <jd_prepare+0x2b4>
F:\AT32-workspace\AT32F403ACGU7_clone_windows_desktop_virtual_com_port\Release/../JPEG/tjpgd.c:599
				jd->hufflut_ac[num] = tbl_ac;
 8003514:	9b0e      	ldr	r3, [sp, #56]	; 0x38
 8003516:	eb02 0383 	add.w	r3, r2, r3, lsl #2
memset_32():
F:\AT32-workspace\AT32F403ACGU7_clone_windows_desktop_virtual_com_port\Release/../JPEG/tjpgd.c:152
	asm volatile (	"orrs	%[size], %[size]\n\t"
 800351a:	f04f 31ff 	mov.w	r1, #4294967295
create_huffman_tbl():
F:\AT32-workspace\AT32F403ACGU7_clone_windows_desktop_virtual_com_port\Release/../JPEG/tjpgd.c:599
				jd->hufflut_ac[num] = tbl_ac;
 800351e:	f8c3 b06c 	str.w	fp, [r3, #108]	; 0x6c
memset_32():
F:\AT32-workspace\AT32F403ACGU7_clone_windows_desktop_virtual_com_port\Release/../JPEG/tjpgd.c:152
	asm volatile (	"orrs	%[size], %[size]\n\t"
 8003522:	f44f 7200 	mov.w	r2, #512	; 0x200
 8003526:	465b      	mov	r3, fp
 8003528:	4312      	orrs	r2, r2
 800352a:	d003      	beq.n	8003534 <jd_prepare+0x79c>
 800352c:	f843 1b04 	str.w	r1, [r3], #4
 8003530:	3a01      	subs	r2, #1
 8003532:	d1fb      	bne.n	800352c <jd_prepare+0x794>
create_huffman_tbl():
F:\AT32-workspace\AT32F403ACGU7_clone_windows_desktop_virtual_com_port\Release/../JPEG/tjpgd.c:595
			uint8_t *tbl_dc = 0;
 8003534:	f04f 0c00 	mov.w	ip, #0
F:\AT32-workspace\AT32F403ACGU7_clone_windows_desktop_virtual_com_port\Release/../JPEG/tjpgd.c:594
			uint16_t *tbl_ac = 0;
 8003538:	2301      	movs	r3, #1
 800353a:	9e0d      	ldr	r6, [sp, #52]	; 0x34
 800353c:	9701      	str	r7, [sp, #4]
F:\AT32-workspace\AT32F403ACGU7_clone_windows_desktop_virtual_com_port\Release/../JPEG/tjpgd.c:615
			for (i = b = 0; b < HUFF_BIT; b++) {	/* Create LUT */
 800353e:	2000      	movs	r0, #0
 8003540:	f8cd b010 	str.w	fp, [sp, #16]
 8003544:	469e      	mov	lr, r3
F:\AT32-workspace\AT32F403ACGU7_clone_windows_desktop_virtual_com_port\Release/../JPEG/tjpgd.c:616
				for (j = pb[b]; j; j--) {
 8003546:	9b07      	ldr	r3, [sp, #28]
 8003548:	f813 4f01 	ldrb.w	r4, [r3, #1]!
 800354c:	9307      	str	r3, [sp, #28]
 800354e:	b364      	cbz	r4, 80035aa <jd_prepare+0x812>
F:\AT32-workspace\AT32F403ACGU7_clone_windows_desktop_virtual_com_port\Release/../JPEG/tjpgd.c:630
						memset_8(&tbl_dc[ti], (uint8_t)td, 1 << (HUFF_BIT - 1 - b)); //оптимизация
 8003550:	2301      	movs	r3, #1
F:\AT32-workspace\AT32F403ACGU7_clone_windows_desktop_virtual_com_port\Release/../JPEG/tjpgd.c:617
					ti = ph[i] << (HUFF_BIT - 1 - b) & HUFF_MASK;	/* Index of input pattern for the code */
 8003552:	f1ce 050a 	rsb	r5, lr, #10
F:\AT32-workspace\AT32F403ACGU7_clone_windows_desktop_virtual_com_port\Release/../JPEG/tjpgd.c:630
						memset_8(&tbl_dc[ti], (uint8_t)td, 1 << (HUFF_BIT - 1 - b)); //оптимизация
 8003556:	fa03 f705 	lsl.w	r7, r3, r5
 800355a:	9b0a      	ldr	r3, [sp, #40]	; 0x28
 800355c:	ea4f 1a0e 	mov.w	sl, lr, lsl #4
 8003560:	ea4f 2b0e 	mov.w	fp, lr, lsl #8
 8003564:	bb7b      	cbnz	r3, 80035c6 <jd_prepare+0x82e>
 8003566:	9b01      	ldr	r3, [sp, #4]
 8003568:	f100 4b00 	add.w	fp, r0, #2147483648	; 0x80000000
 800356c:	f10b 3bff 	add.w	fp, fp, #4294967295
 8003570:	f100 38ff 	add.w	r8, r0, #4294967295
 8003574:	eb03 0b4b 	add.w	fp, r3, fp, lsl #1
 8003578:	44b0      	add	r8, r6
F:\AT32-workspace\AT32F403ACGU7_clone_windows_desktop_virtual_com_port\Release/../JPEG/tjpgd.c:617
					ti = ph[i] << (HUFF_BIT - 1 - b) & HUFF_MASK;	/* Index of input pattern for the code */
 800357a:	f83b 3f02 	ldrh.w	r3, [fp, #2]!
F:\AT32-workspace\AT32F403ACGU7_clone_windows_desktop_virtual_com_port\Release/../JPEG/tjpgd.c:626
						td = pd[i++] | ((b + 1) << 4);	/* b7..b4: code length, b3..b0: data length */
 800357e:	f818 2f01 	ldrb.w	r2, [r8, #1]!
F:\AT32-workspace\AT32F403ACGU7_clone_windows_desktop_virtual_com_port\Release/../JPEG/tjpgd.c:617
					ti = ph[i] << (HUFF_BIT - 1 - b) & HUFF_MASK;	/* Index of input pattern for the code */
 8003582:	40ab      	lsls	r3, r5
 8003584:	f3c3 0309 	ubfx	r3, r3, #0, #10
F:\AT32-workspace\AT32F403ACGU7_clone_windows_desktop_virtual_com_port\Release/../JPEG/tjpgd.c:630
						memset_8(&tbl_dc[ti], (uint8_t)td, 1 << (HUFF_BIT - 1 - b)); //оптимизация
 8003588:	4463      	add	r3, ip
F:\AT32-workspace\AT32F403ACGU7_clone_windows_desktop_virtual_com_port\Release/../JPEG/tjpgd.c:626
						td = pd[i++] | ((b + 1) << 4);	/* b7..b4: code length, b3..b0: data length */
 800358a:	ea42 020a 	orr.w	r2, r2, sl
memset_8():
F:\AT32-workspace\AT32F403ACGU7_clone_windows_desktop_virtual_com_port\Release/../JPEG/tjpgd.c:188
	asm volatile (	"orrs	%[size], %[size]\n\t"
 800358e:	4639      	mov	r1, r7
 8003590:	4309      	orrs	r1, r1
 8003592:	d003      	beq.n	800359c <jd_prepare+0x804>
 8003594:	f803 2b01 	strb.w	r2, [r3], #1
 8003598:	3901      	subs	r1, #1
 800359a:	d1fb      	bne.n	8003594 <jd_prepare+0x7fc>
create_huffman_tbl():
F:\AT32-workspace\AT32F403ACGU7_clone_windows_desktop_virtual_com_port\Release/../JPEG/tjpgd.c:616
				for (j = pb[b]; j; j--) {
 800359c:	ea6f 0308 	mvn.w	r3, r8
 80035a0:	4433      	add	r3, r6
 80035a2:	4403      	add	r3, r0
 80035a4:	42e3      	cmn	r3, r4
 80035a6:	d1e8      	bne.n	800357a <jd_prepare+0x7e2>
 80035a8:	4420      	add	r0, r4
F:\AT32-workspace\AT32F403ACGU7_clone_windows_desktop_virtual_com_port\Release/../JPEG/tjpgd.c:615
			for (i = b = 0; b < HUFF_BIT; b++) {	/* Create LUT */
 80035aa:	f1be 0f0a 	cmp.w	lr, #10
 80035ae:	f10e 0301 	add.w	r3, lr, #1
 80035b2:	d03a      	beq.n	800362a <jd_prepare+0x892>
 80035b4:	469e      	mov	lr, r3
 80035b6:	e7c6      	b.n	8003546 <jd_prepare+0x7ae>
F:\AT32-workspace\AT32F403ACGU7_clone_windows_desktop_virtual_com_port\Release/../JPEG/tjpgd.c:574
			while (b--) ph[j++] = hc++;
 80035b8:	4616      	mov	r6, r2
 80035ba:	9a04      	ldr	r2, [sp, #16]
 80035bc:	9202      	str	r2, [sp, #8]
 80035be:	1c72      	adds	r2, r6, #1
 80035c0:	465f      	mov	r7, fp
 80035c2:	9205      	str	r2, [sp, #20]
 80035c4:	e6bc      	b.n	8003340 <jd_prepare+0x5a8>
 80035c6:	9b01      	ldr	r3, [sp, #4]
 80035c8:	f8cd c008 	str.w	ip, [sp, #8]
 80035cc:	f100 4a00 	add.w	sl, r0, #2147483648	; 0x80000000
 80035d0:	f10a 3aff 	add.w	sl, sl, #4294967295
 80035d4:	f100 38ff 	add.w	r8, r0, #4294967295
 80035d8:	f8dd c010 	ldr.w	ip, [sp, #16]
 80035dc:	eb03 0a4a 	add.w	sl, r3, sl, lsl #1
 80035e0:	44b0      	add	r8, r6
F:\AT32-workspace\AT32F403ACGU7_clone_windows_desktop_virtual_com_port\Release/../JPEG/tjpgd.c:617
					ti = ph[i] << (HUFF_BIT - 1 - b) & HUFF_MASK;	/* Index of input pattern for the code */
 80035e2:	f83a 3f02 	ldrh.w	r3, [sl, #2]!
F:\AT32-workspace\AT32F403ACGU7_clone_windows_desktop_virtual_com_port\Release/../JPEG/tjpgd.c:619
						td = pd[i++] | ((b + 1) << 8);	/* b15..b8: code length, b7..b0: zero run and data length */
 80035e6:	f818 2f01 	ldrb.w	r2, [r8, #1]!
F:\AT32-workspace\AT32F403ACGU7_clone_windows_desktop_virtual_com_port\Release/../JPEG/tjpgd.c:617
					ti = ph[i] << (HUFF_BIT - 1 - b) & HUFF_MASK;	/* Index of input pattern for the code */
 80035ea:	40ab      	lsls	r3, r5
 80035ec:	f3c3 0309 	ubfx	r3, r3, #0, #10
F:\AT32-workspace\AT32F403ACGU7_clone_windows_desktop_virtual_com_port\Release/../JPEG/tjpgd.c:623
						memset_16(&tbl_ac[ti], (uint16_t)td, 1 << (HUFF_BIT - 1 - b)); //оптимизация
 80035f0:	eb0c 0343 	add.w	r3, ip, r3, lsl #1
F:\AT32-workspace\AT32F403ACGU7_clone_windows_desktop_virtual_com_port\Release/../JPEG/tjpgd.c:619
						td = pd[i++] | ((b + 1) << 8);	/* b15..b8: code length, b7..b0: zero run and data length */
 80035f4:	ea42 020b 	orr.w	r2, r2, fp
memset_16():
F:\AT32-workspace\AT32F403ACGU7_clone_windows_desktop_virtual_com_port\Release/../JPEG/tjpgd.c:170
	asm volatile (	"orrs	%[size], %[size]\n\t"
 80035f8:	4639      	mov	r1, r7
 80035fa:	4309      	orrs	r1, r1
 80035fc:	d003      	beq.n	8003606 <jd_prepare+0x86e>
 80035fe:	f823 2b02 	strh.w	r2, [r3], #2
 8003602:	3901      	subs	r1, #1
 8003604:	d1fb      	bne.n	80035fe <jd_prepare+0x866>
create_huffman_tbl():
F:\AT32-workspace\AT32F403ACGU7_clone_windows_desktop_virtual_com_port\Release/../JPEG/tjpgd.c:616
				for (j = pb[b]; j; j--) {
 8003606:	ea6f 0308 	mvn.w	r3, r8
 800360a:	4433      	add	r3, r6
 800360c:	4403      	add	r3, r0
 800360e:	42e3      	cmn	r3, r4
 8003610:	d1e7      	bne.n	80035e2 <jd_prepare+0x84a>
 8003612:	f8dd c008 	ldr.w	ip, [sp, #8]
 8003616:	e7c7      	b.n	80035a8 <jd_prepare+0x810>
 8003618:	1c53      	adds	r3, r2, #1
 800361a:	4621      	mov	r1, r4
F:\AT32-workspace\AT32F403ACGU7_clone_windows_desktop_virtual_com_port\Release/../JPEG/tjpgd.c:574
			while (b--) ph[j++] = hc++;
 800361c:	4616      	mov	r6, r2
 800361e:	465f      	mov	r7, fp
 8003620:	9305      	str	r3, [sp, #20]
 8003622:	e6c6      	b.n	80033b2 <jd_prepare+0x61a>
jd_prepare():
F:\AT32-workspace\AT32F403ACGU7_clone_windows_desktop_virtual_com_port\Release/../JPEG/tjpgd.c:1673
			if (len > JD_SZBUF) return JDR_MEM2;
 8003624:	2004      	movs	r0, #4
 8003626:	f7ff bbfa 	b.w	8002e1e <jd_prepare+0x86>
create_huffman_tbl():
F:\AT32-workspace\AT32F403ACGU7_clone_windows_desktop_virtual_com_port\Release/../JPEG/tjpgd.c:635
			jd->longofs[num][cls] = i;	/* Code table offset for long code */
 800362a:	9a0e      	ldr	r2, [sp, #56]	; 0x38
 800362c:	9b09      	ldr	r3, [sp, #36]	; 0x24
 800362e:	eb03 0342 	add.w	r3, r3, r2, lsl #1
 8003632:	9a0a      	ldr	r2, [sp, #40]	; 0x28
 8003634:	4413      	add	r3, r2
F:\AT32-workspace\AT32F403ACGU7_clone_windows_desktop_virtual_com_port\Release/../JPEG/tjpgd.c:556
	while (ndata) {	/* Process all tables in the segment */
 8003636:	9a0c      	ldr	r2, [sp, #48]	; 0x30
F:\AT32-workspace\AT32F403ACGU7_clone_windows_desktop_virtual_com_port\Release/../JPEG/tjpgd.c:635
			jd->longofs[num][cls] = i;	/* Code table offset for long code */
 8003638:	f883 0065 	strb.w	r0, [r3, #101]	; 0x65
F:\AT32-workspace\AT32F403ACGU7_clone_windows_desktop_virtual_com_port\Release/../JPEG/tjpgd.c:556
	while (ndata) {	/* Process all tables in the segment */
 800363c:	9b05      	ldr	r3, [sp, #20]
 800363e:	1a9b      	subs	r3, r3, r2
 8003640:	930b      	str	r3, [sp, #44]	; 0x2c
 8003642:	f47f aca2 	bne.w	8002f8a <jd_prepare+0x1f2>
 8003646:	f8dd 8024 	ldr.w	r8, [sp, #36]	; 0x24
 800364a:	f8dd b040 	ldr.w	fp, [sp, #64]	; 0x40
 800364e:	f7ff bbee 	b.w	8002e2e <jd_prepare+0x96>
alloc_pool():
F:\AT32-workspace\AT32F403ACGU7_clone_windows_desktop_virtual_com_port\Release/../JPEG/tjpgd.c:494
	if (jd->sz_pool >= ndata) {
 8003652:	f5b2 6f80 	cmp.w	r2, #1024	; 0x400
 8003656:	f4ff acf9 	bcc.w	800304c <jd_prepare+0x2b4>
F:\AT32-workspace\AT32F403ACGU7_clone_windows_desktop_virtual_com_port\Release/../JPEG/tjpgd.c:495
		jd->sz_pool -= ndata;
 800365a:	9b09      	ldr	r3, [sp, #36]	; 0x24
 800365c:	f5a2 6280 	sub.w	r2, r2, #1024	; 0x400
F:\AT32-workspace\AT32F403ACGU7_clone_windows_desktop_virtual_com_port\Release/../JPEG/tjpgd.c:496
		rp = (char*)jd->pool;			/* Get start of available memory pool */
 8003660:	f8d3 c090 	ldr.w	ip, [r3, #144]	; 0x90
F:\AT32-workspace\AT32F403ACGU7_clone_windows_desktop_virtual_com_port\Release/../JPEG/tjpgd.c:495
		jd->sz_pool -= ndata;
 8003664:	f8c3 2094 	str.w	r2, [r3, #148]	; 0x94
F:\AT32-workspace\AT32F403ACGU7_clone_windows_desktop_virtual_com_port\Release/../JPEG/tjpgd.c:496
		rp = (char*)jd->pool;			/* Get start of available memory pool */
 8003668:	461a      	mov	r2, r3
F:\AT32-workspace\AT32F403ACGU7_clone_windows_desktop_virtual_com_port\Release/../JPEG/tjpgd.c:497
		jd->pool = (void*)(rp + ndata);	/* Allocate requierd bytes */
 800366a:	f50c 6380 	add.w	r3, ip, #1024	; 0x400
 800366e:	f8c2 3090 	str.w	r3, [r2, #144]	; 0x90
create_huffman_tbl():
F:\AT32-workspace\AT32F403ACGU7_clone_windows_desktop_virtual_com_port\Release/../JPEG/tjpgd.c:607
				if (!tbl_dc) return JDR_MEM1;		/* Err: not enough memory */
 8003672:	f1bc 0f00 	cmp.w	ip, #0
 8003676:	f43f ace9 	beq.w	800304c <jd_prepare+0x2b4>
F:\AT32-workspace\AT32F403ACGU7_clone_windows_desktop_virtual_com_port\Release/../JPEG/tjpgd.c:608
				jd->hufflut_dc[num] = tbl_dc;
 800367a:	9b0e      	ldr	r3, [sp, #56]	; 0x38
 800367c:	eb02 0383 	add.w	r3, r2, r3, lsl #2
memset_32():
F:\AT32-workspace\AT32F403ACGU7_clone_windows_desktop_virtual_com_port\Release/../JPEG/tjpgd.c:152
	asm volatile (	"orrs	%[size], %[size]\n\t"
 8003680:	f04f 31ff 	mov.w	r1, #4294967295
create_huffman_tbl():
F:\AT32-workspace\AT32F403ACGU7_clone_windows_desktop_virtual_com_port\Release/../JPEG/tjpgd.c:608
				jd->hufflut_dc[num] = tbl_dc;
 8003684:	f8c3 c074 	str.w	ip, [r3, #116]	; 0x74
memset_32():
F:\AT32-workspace\AT32F403ACGU7_clone_windows_desktop_virtual_com_port\Release/../JPEG/tjpgd.c:152
	asm volatile (	"orrs	%[size], %[size]\n\t"
 8003688:	f44f 7280 	mov.w	r2, #256	; 0x100
 800368c:	4663      	mov	r3, ip
 800368e:	4312      	orrs	r2, r2
 8003690:	d003      	beq.n	800369a <jd_prepare+0x902>
 8003692:	f843 1b04 	str.w	r1, [r3], #4
 8003696:	3a01      	subs	r2, #1
 8003698:	d1fb      	bne.n	8003692 <jd_prepare+0x8fa>
create_huffman_tbl():
F:\AT32-workspace\AT32F403ACGU7_clone_windows_desktop_virtual_com_port\Release/../JPEG/tjpgd.c:594
			uint16_t *tbl_ac = 0;
 800369a:	f8dd b028 	ldr.w	fp, [sp, #40]	; 0x28
memset_32():
F:\AT32-workspace\AT32F403ACGU7_clone_windows_desktop_virtual_com_port\Release/../JPEG/tjpgd.c:161
}
 800369e:	e74b      	b.n	8003538 <jd_prepare+0x7a0>
 80036a0:	9a0c      	ldr	r2, [sp, #48]	; 0x30
 80036a2:	f102 0011 	add.w	r0, r2, #17
 80036a6:	9a08      	ldr	r2, [sp, #32]
 80036a8:	4402      	add	r2, r0
 80036aa:	4610      	mov	r0, r2
 80036ac:	9a0d      	ldr	r2, [sp, #52]	; 0x34
 80036ae:	1e51      	subs	r1, r2, #1
create_huffman_tbl():
F:\AT32-workspace\AT32F403ACGU7_clone_windows_desktop_virtual_com_port\Release/../JPEG/tjpgd.c:566
			np += (pb[i] = *data++);		/* Get sum of code words for each code */
 80036b0:	461a      	mov	r2, r3
F:\AT32-workspace\AT32F403ACGU7_clone_windows_desktop_virtual_com_port\Release/../JPEG/tjpgd.c:584
			d = *data++;
 80036b2:	f812 4b01 	ldrb.w	r4, [r2], #1
F:\AT32-workspace\AT32F403ACGU7_clone_windows_desktop_virtual_com_port\Release/../JPEG/tjpgd.c:586
			pd[i] = d;
 80036b6:	f801 4f01 	strb.w	r4, [r1, #1]!
F:\AT32-workspace\AT32F403ACGU7_clone_windows_desktop_virtual_com_port\Release/../JPEG/tjpgd.c:583
		for (i = 0; i < np; i++) {			/* Load decoded data corresponds to each code word */
 80036ba:	4282      	cmp	r2, r0
 80036bc:	d1f9      	bne.n	80036b2 <jd_prepare+0x91a>
 80036be:	e70b      	b.n	80034d8 <jd_prepare+0x740>
F:\AT32-workspace\AT32F403ACGU7_clone_windows_desktop_virtual_com_port\Release/../JPEG/tjpgd.c:566
			np += (pb[i] = *data++);		/* Get sum of code words for each code */
 80036c0:	9308      	str	r3, [sp, #32]
 80036c2:	e70f      	b.n	80034e4 <jd_prepare+0x74c>
jd_prepare():
F:\AT32-workspace\AT32F403ACGU7_clone_windows_desktop_virtual_com_port\Release/../JPEG/tjpgd.c:1714
			jd->mcubuf = alloc_pool(jd, (n + 2) * 64 * sizeof (jd_yuv_t));	/* Allocate MCU working buffer */
 80036c4:	f8c8 408c 	str.w	r4, [r8, #140]	; 0x8c
F:\AT32-workspace\AT32F403ACGU7_clone_windows_desktop_virtual_com_port\Release/../JPEG/tjpgd.c:1715
			if (!jd->mcubuf) return JDR_MEM1;			/* Err: not enough memory */
 80036c8:	2003      	movs	r0, #3
 80036ca:	f7ff bba8 	b.w	8002e1e <jd_prepare+0x86>
F:\AT32-workspace\AT32F403ACGU7_clone_windows_desktop_virtual_com_port\Release/../JPEG/tjpgd.c:1708
			jd->workbuf = alloc_pool(jd, 2 * len);		/* and it may occupy a part of following MCU working buffer for RGB output */
 80036ce:	2300      	movs	r3, #0
F:\AT32-workspace\AT32F403ACGU7_clone_windows_desktop_virtual_com_port\Release/../JPEG/tjpgd.c:1710
			jd->offset = 0;
 80036d0:	e9c8 3020 	strd	r3, r0, [r8, #128]	; 0x80
F:\AT32-workspace\AT32F403ACGU7_clone_windows_desktop_virtual_com_port\Release/../JPEG/tjpgd.c:1708
			jd->workbuf = alloc_pool(jd, 2 * len);		/* and it may occupy a part of following MCU working buffer for RGB output */
 80036d4:	f8c8 307c 	str.w	r3, [r8, #124]	; 0x7c
F:\AT32-workspace\AT32F403ACGU7_clone_windows_desktop_virtual_com_port\Release/../JPEG/tjpgd.c:1713
			if (!jd->workbuf) return JDR_MEM1;			/* Err: not enough memory */
 80036d8:	2003      	movs	r0, #3
 80036da:	f7ff bba0 	b.w	8002e1e <jd_prepare+0x86>
 80036de:	bf00      	nop

080036e0 <jd_decomp>:
jd_decomp():
F:\AT32-workspace\AT32F403ACGU7_clone_windows_desktop_virtual_com_port\Release/../JPEG/tjpgd.c:1760
JRESULT jd_decomp (
	JDEC* jd,								/* Initialized decompression object */
	int (*outfunc)(JDEC*, void*, JRECT*),	/* RGB output function */
	uint8_t scale							/* Output de-scaling factor (0 to 3) */
)
{
 80036e0:	e92d 4ff0 	stmdb	sp!, {r4, r5, r6, r7, r8, r9, sl, fp, lr}
 80036e4:	b09b      	sub	sp, #108	; 0x6c
F:\AT32-workspace\AT32F403ACGU7_clone_windows_desktop_virtual_com_port\Release/../JPEG/tjpgd.c:1766
	unsigned int x, y, mx, my;
	uint16_t rst, rsc;
	JRESULT rc;


	if (scale > (JD_USE_SCALE ? 3 : 0)) return JDR_PAR;
 80036e6:	2a03      	cmp	r2, #3
F:\AT32-workspace\AT32F403ACGU7_clone_windows_desktop_virtual_com_port\Release/../JPEG/tjpgd.c:1760
{
 80036e8:	9001      	str	r0, [sp, #4]
 80036ea:	9117      	str	r1, [sp, #92]	; 0x5c
F:\AT32-workspace\AT32F403ACGU7_clone_windows_desktop_virtual_com_port\Release/../JPEG/tjpgd.c:1766
	if (scale > (JD_USE_SCALE ? 3 : 0)) return JDR_PAR;
 80036ec:	f200 878a 	bhi.w	8004604 <jd_decomp+0xf24>
F:\AT32-workspace\AT32F403ACGU7_clone_windows_desktop_virtual_com_port\Release/../JPEG/tjpgd.c:1769
	jd->scale = scale;

	mx = jd->msx * 8; my = jd->msy * 8;			/* Size of the MCU (pixel) */
 80036f0:	7b81      	ldrb	r1, [r0, #14]
 80036f2:	7bc3      	ldrb	r3, [r0, #15]
F:\AT32-workspace\AT32F403ACGU7_clone_windows_desktop_virtual_com_port\Release/../JPEG/tjpgd.c:1767
	jd->scale = scale;
 80036f4:	7342      	strb	r2, [r0, #13]
F:\AT32-workspace\AT32F403ACGU7_clone_windows_desktop_virtual_com_port\Release/../JPEG/tjpgd.c:1769
	mx = jd->msx * 8; my = jd->msy * 8;			/* Size of the MCU (pixel) */
 80036f6:	00ca      	lsls	r2, r1, #3
 80036f8:	00db      	lsls	r3, r3, #3
 80036fa:	9212      	str	r2, [sp, #72]	; 0x48
F:\AT32-workspace\AT32F403ACGU7_clone_windows_desktop_virtual_com_port\Release/../JPEG/tjpgd.c:1775

	jd->dcv[2] = jd->dcv[1] = jd->dcv[0] = 0;	/* Initialize DC values */
	rst = rsc = 0;

	rc = JDR_OK;
	for (y = 0; y < jd->height; y += my) {		/* Vertical loop of MCUs */
 80036fc:	8bc2      	ldrh	r2, [r0, #30]
F:\AT32-workspace\AT32F403ACGU7_clone_windows_desktop_virtual_com_port\Release/../JPEG/tjpgd.c:1769
	mx = jd->msx * 8; my = jd->msy * 8;			/* Size of the MCU (pixel) */
 80036fe:	9315      	str	r3, [sp, #84]	; 0x54
F:\AT32-workspace\AT32F403ACGU7_clone_windows_desktop_virtual_com_port\Release/../JPEG/tjpgd.c:1771
	jd->dcv[2] = jd->dcv[1] = jd->dcv[0] = 0;	/* Initialize DC values */
 8003700:	2300      	movs	r3, #0
 8003702:	6143      	str	r3, [r0, #20]
 8003704:	8303      	strh	r3, [r0, #24]
F:\AT32-workspace\AT32F403ACGU7_clone_windows_desktop_virtual_com_port\Release/../JPEG/tjpgd.c:1775
	for (y = 0; y < jd->height; y += my) {		/* Vertical loop of MCUs */
 8003706:	2a00      	cmp	r2, #0
 8003708:	f000 8113 	beq.w	8003932 <jd_decomp+0x252>
F:\AT32-workspace\AT32F403ACGU7_clone_windows_desktop_virtual_com_port\Release/../JPEG/tjpgd.c:1776
		for (x = 0; x < jd->width; x += mx) {	/* Horizontal loop of MCUs */
 800370c:	8b81      	ldrh	r1, [r0, #28]
F:\AT32-workspace\AT32F403ACGU7_clone_windows_desktop_virtual_com_port\Release/../JPEG/tjpgd.c:1772
	rst = rsc = 0;
 800370e:	9313      	str	r3, [sp, #76]	; 0x4c
 8003710:	9311      	str	r3, [sp, #68]	; 0x44
F:\AT32-workspace\AT32F403ACGU7_clone_windows_desktop_virtual_com_port\Release/../JPEG/tjpgd.c:1775
	for (y = 0; y < jd->height; y += my) {		/* Vertical loop of MCUs */
 8003712:	930e      	str	r3, [sp, #56]	; 0x38
F:\AT32-workspace\AT32F403ACGU7_clone_windows_desktop_virtual_com_port\Release/../JPEG/tjpgd.c:1776
		for (x = 0; x < jd->width; x += mx) {	/* Horizontal loop of MCUs */
 8003714:	2900      	cmp	r1, #0
 8003716:	f000 8105 	beq.w	8003924 <jd_decomp+0x244>
 800371a:	2300      	movs	r3, #0
 800371c:	930b      	str	r3, [sp, #44]	; 0x2c
F:\AT32-workspace\AT32F403ACGU7_clone_windows_desktop_virtual_com_port\Release/../JPEG/tjpgd.c:1777
			if (jd->nrst && rst++ == jd->nrst) {	/* Process restart interval if enabled */
 800371e:	9b01      	ldr	r3, [sp, #4]
 8003720:	8b5a      	ldrh	r2, [r3, #26]
 8003722:	b132      	cbz	r2, 8003732 <jd_decomp+0x52>
F:\AT32-workspace\AT32F403ACGU7_clone_windows_desktop_virtual_com_port\Release/../JPEG/tjpgd.c:1777 (discriminator 1)
 8003724:	9911      	ldr	r1, [sp, #68]	; 0x44
 8003726:	1c4b      	adds	r3, r1, #1
 8003728:	428a      	cmp	r2, r1
 800372a:	b29b      	uxth	r3, r3
 800372c:	f000 84ad 	beq.w	800408a <jd_decomp+0x9aa>
F:\AT32-workspace\AT32F403ACGU7_clone_windows_desktop_virtual_com_port\Release/../JPEG/tjpgd.c:1777
 8003730:	9311      	str	r3, [sp, #68]	; 0x44
mcu_load():
F:\AT32-workspace\AT32F403ACGU7_clone_windows_desktop_virtual_com_port\Release/../JPEG/tjpgd.c:1071
	nby = jd->msx * jd->msy;	/* Number of Y blocks (1, 2 or 4) */
 8003732:	9c01      	ldr	r4, [sp, #4]
F:\AT32-workspace\AT32F403ACGU7_clone_windows_desktop_virtual_com_port\Release/../JPEG/tjpgd.c:1064
	int32_t *tmp = (int32_t*)(jd->workbuf + jd->offset);
 8003734:	e9d4 231f 	ldrd	r2, r3, [r4, #124]	; 0x7c
F:\AT32-workspace\AT32F403ACGU7_clone_windows_desktop_virtual_com_port\Release/../JPEG/tjpgd.c:1071
	nby = jd->msx * jd->msy;	/* Number of Y blocks (1, 2 or 4) */
 8003738:	7ba0      	ldrb	r0, [r4, #14]
 800373a:	7be1      	ldrb	r1, [r4, #15]
F:\AT32-workspace\AT32F403ACGU7_clone_windows_desktop_virtual_com_port\Release/../JPEG/tjpgd.c:1064
	int32_t *tmp = (int32_t*)(jd->workbuf + jd->offset);
 800373c:	18d3      	adds	r3, r2, r3
F:\AT32-workspace\AT32F403ACGU7_clone_windows_desktop_virtual_com_port\Release/../JPEG/tjpgd.c:1071
	nby = jd->msx * jd->msy;	/* Number of Y blocks (1, 2 or 4) */
 800373e:	fb10 f101 	smulbb	r1, r0, r1
F:\AT32-workspace\AT32F403ACGU7_clone_windows_desktop_virtual_com_port\Release/../JPEG/tjpgd.c:1064
	int32_t *tmp = (int32_t*)(jd->workbuf + jd->offset);
 8003742:	9307      	str	r3, [sp, #28]
F:\AT32-workspace\AT32F403ACGU7_clone_windows_desktop_virtual_com_port\Release/../JPEG/tjpgd.c:1074
	for (blk = 0; blk < nby + 2; blk++) {	/* Get nby Y blocks and two C blocks */
 8003744:	f1c1 0301 	rsb	r3, r1, #1
F:\AT32-workspace\AT32F403ACGU7_clone_windows_desktop_virtual_com_port\Release/../JPEG/tjpgd.c:1072
	bp = jd->mcubuf;			/* Pointer to the first block of MCU */
 8003748:	f8d4 008c 	ldr.w	r0, [r4, #140]	; 0x8c
 800374c:	930a      	str	r3, [sp, #40]	; 0x28
 800374e:	1e4b      	subs	r3, r1, #1
F:\AT32-workspace\AT32F403ACGU7_clone_windows_desktop_virtual_com_port\Release/../JPEG/tjpgd.c:1071
	nby = jd->msx * jd->msy;	/* Number of Y blocks (1, 2 or 4) */
 8003750:	910d      	str	r1, [sp, #52]	; 0x34
F:\AT32-workspace\AT32F403ACGU7_clone_windows_desktop_virtual_com_port\Release/../JPEG/tjpgd.c:1072
	bp = jd->mcubuf;			/* Pointer to the first block of MCU */
 8003752:	900c      	str	r0, [sp, #48]	; 0x30
 8003754:	930f      	str	r3, [sp, #60]	; 0x3c
F:\AT32-workspace\AT32F403ACGU7_clone_windows_desktop_virtual_com_port\Release/../JPEG/tjpgd.c:1075
		cmp = (blk < nby) ? 0 : blk - nby + 1;	/* Component number 0:Y, 1:Cb, 2:Cr */
 8003756:	9b0f      	ldr	r3, [sp, #60]	; 0x3c
 8003758:	9a0a      	ldr	r2, [sp, #40]	; 0x28
 800375a:	990d      	ldr	r1, [sp, #52]	; 0x34
 800375c:	4413      	add	r3, r2
 800375e:	4299      	cmp	r1, r3
 8003760:	f200 80e9 	bhi.w	8003936 <jd_decomp+0x256>
F:\AT32-workspace\AT32F403ACGU7_clone_windows_desktop_virtual_com_port\Release/../JPEG/tjpgd.c:1077
		if (cmp && jd->ncomp != 3) {		/* Clear C blocks if not exist (monochrome image) */
 8003764:	2a00      	cmp	r2, #0
 8003766:	f000 846a 	beq.w	800403e <jd_decomp+0x95e>
 800376a:	9b01      	ldr	r3, [sp, #4]
 800376c:	7cdb      	ldrb	r3, [r3, #19]
 800376e:	2b03      	cmp	r3, #3
 8003770:	f000 8480 	beq.w	8004074 <jd_decomp+0x994>
memset_32():
F:\AT32-workspace\AT32F403ACGU7_clone_windows_desktop_virtual_com_port\Release/../JPEG/tjpgd.c:152
	asm volatile (	"orrs	%[size], %[size]\n\t"
 8003774:	2320      	movs	r3, #32
 8003776:	f04f 1180 	mov.w	r1, #8388736	; 0x800080
 800377a:	9a0c      	ldr	r2, [sp, #48]	; 0x30
 800377c:	431b      	orrs	r3, r3
 800377e:	d003      	beq.n	8003788 <jd_decomp+0xa8>
 8003780:	f842 1b04 	str.w	r1, [r2], #4
 8003784:	3b01      	subs	r3, #1
 8003786:	d1fb      	bne.n	8003780 <jd_decomp+0xa0>
mcu_load():
F:\AT32-workspace\AT32F403ACGU7_clone_windows_desktop_virtual_com_port\Release/../JPEG/tjpgd.c:1074
	for (blk = 0; blk < nby + 2; blk++) {	/* Get nby Y blocks and two C blocks */
 8003788:	9b0a      	ldr	r3, [sp, #40]	; 0x28
F:\AT32-workspace\AT32F403ACGU7_clone_windows_desktop_virtual_com_port\Release/../JPEG/tjpgd.c:1149
		bp += 64;				/* Next block */
 800378a:	9a0c      	ldr	r2, [sp, #48]	; 0x30
F:\AT32-workspace\AT32F403ACGU7_clone_windows_desktop_virtual_com_port\Release/../JPEG/tjpgd.c:1074
	for (blk = 0; blk < nby + 2; blk++) {	/* Get nby Y blocks and two C blocks */
 800378c:	3301      	adds	r3, #1
F:\AT32-workspace\AT32F403ACGU7_clone_windows_desktop_virtual_com_port\Release/../JPEG/tjpgd.c:1149
		bp += 64;				/* Next block */
 800378e:	3280      	adds	r2, #128	; 0x80
F:\AT32-workspace\AT32F403ACGU7_clone_windows_desktop_virtual_com_port\Release/../JPEG/tjpgd.c:1074
	for (blk = 0; blk < nby + 2; blk++) {	/* Get nby Y blocks and two C blocks */
 8003790:	2b03      	cmp	r3, #3
 8003792:	930a      	str	r3, [sp, #40]	; 0x28
F:\AT32-workspace\AT32F403ACGU7_clone_windows_desktop_virtual_com_port\Release/../JPEG/tjpgd.c:1149
		bp += 64;				/* Next block */
 8003794:	920c      	str	r2, [sp, #48]	; 0x30
F:\AT32-workspace\AT32F403ACGU7_clone_windows_desktop_virtual_com_port\Release/../JPEG/tjpgd.c:1074
	for (blk = 0; blk < nby + 2; blk++) {	/* Get nby Y blocks and two C blocks */
 8003796:	d1de      	bne.n	8003756 <jd_decomp+0x76>
mcu_output():
F:\AT32-workspace\AT32F403ACGU7_clone_windows_desktop_virtual_com_port\Release/../JPEG/tjpgd.c:1176
	mx = jd->msx * 8; my = jd->msy * 8;					//Ширина и высота блока изображения, пиксели
 8003798:	9a01      	ldr	r2, [sp, #4]
F:\AT32-workspace\AT32F403ACGU7_clone_windows_desktop_virtual_com_port\Release/../JPEG/tjpgd.c:1177
	rx = (x + mx <= jd->width) ? mx : jd->width - x;	//Ширина и высота блока изображения для вывода в буфер кадра (на дисплей)
 800379a:	980b      	ldr	r0, [sp, #44]	; 0x2c
F:\AT32-workspace\AT32F403ACGU7_clone_windows_desktop_virtual_com_port\Release/../JPEG/tjpgd.c:1176
	mx = jd->msx * 8; my = jd->msy * 8;					//Ширина и высота блока изображения, пиксели
 800379c:	7b93      	ldrb	r3, [r2, #14]
 800379e:	7bd4      	ldrb	r4, [r2, #15]
F:\AT32-workspace\AT32F403ACGU7_clone_windows_desktop_virtual_com_port\Release/../JPEG/tjpgd.c:1177
	rx = (x + mx <= jd->width) ? mx : jd->width - x;	//Ширина и высота блока изображения для вывода в буфер кадра (на дисплей)
 80037a0:	8b91      	ldrh	r1, [r2, #28]
F:\AT32-workspace\AT32F403ACGU7_clone_windows_desktop_virtual_com_port\Release/../JPEG/tjpgd.c:1167
	void *workbuf = jd->workbuf + jd->offset;
 80037a2:	f8d2 2080 	ldr.w	r2, [r2, #128]	; 0x80
F:\AT32-workspace\AT32F403ACGU7_clone_windows_desktop_virtual_com_port\Release/../JPEG/tjpgd.c:1177
	rx = (x + mx <= jd->width) ? mx : jd->width - x;	//Ширина и высота блока изображения для вывода в буфер кадра (на дисплей)
 80037a6:	eb00 00c3 	add.w	r0, r0, r3, lsl #3
F:\AT32-workspace\AT32F403ACGU7_clone_windows_desktop_virtual_com_port\Release/../JPEG/tjpgd.c:1176
	mx = jd->msx * 8; my = jd->msy * 8;					//Ширина и высота блока изображения, пиксели
 80037aa:	ea4f 0bc3 	mov.w	fp, r3, lsl #3
F:\AT32-workspace\AT32F403ACGU7_clone_windows_desktop_virtual_com_port\Release/../JPEG/tjpgd.c:1177
	rx = (x + mx <= jd->width) ? mx : jd->width - x;	//Ширина и высота блока изображения для вывода в буфер кадра (на дисплей)
 80037ae:	4288      	cmp	r0, r1
F:\AT32-workspace\AT32F403ACGU7_clone_windows_desktop_virtual_com_port\Release/../JPEG/tjpgd.c:1176
	mx = jd->msx * 8; my = jd->msy * 8;					//Ширина и высота блока изображения, пиксели
 80037b0:	ea4f 03c4 	mov.w	r3, r4, lsl #3
 80037b4:	930a      	str	r3, [sp, #40]	; 0x28
F:\AT32-workspace\AT32F403ACGU7_clone_windows_desktop_virtual_com_port\Release/../JPEG/tjpgd.c:1177
	rx = (x + mx <= jd->width) ? mx : jd->width - x;	//Ширина и высота блока изображения для вывода в буфер кадра (на дисплей)
 80037b6:	f200 843e 	bhi.w	8004036 <jd_decomp+0x956>
F:\AT32-workspace\AT32F403ACGU7_clone_windows_desktop_virtual_com_port\Release/../JPEG/tjpgd.c:1176
	mx = jd->msx * 8; my = jd->msy * 8;					//Ширина и высота блока изображения, пиксели
 80037ba:	4658      	mov	r0, fp
F:\AT32-workspace\AT32F403ACGU7_clone_windows_desktop_virtual_com_port\Release/../JPEG/tjpgd.c:1178
	ry = (y + my <= jd->height) ? my : jd->height - y;	//Возможно, потребуется "подрезка" блока, если он выходит за границы изображения
 80037bc:	9b01      	ldr	r3, [sp, #4]
 80037be:	9d0e      	ldr	r5, [sp, #56]	; 0x38
 80037c0:	9c0a      	ldr	r4, [sp, #40]	; 0x28
 80037c2:	8bdb      	ldrh	r3, [r3, #30]
 80037c4:	442c      	add	r4, r5
 80037c6:	429c      	cmp	r4, r3
F:\AT32-workspace\AT32F403ACGU7_clone_windows_desktop_virtual_com_port\Release/../JPEG/tjpgd.c:1180
		rx >>= jd->scale; ry >>= jd->scale;				//Масштабируем размеры блока для вывода в буфер кадра (на дисплей)
 80037c8:	9c01      	ldr	r4, [sp, #4]
F:\AT32-workspace\AT32F403ACGU7_clone_windows_desktop_virtual_com_port\Release/../JPEG/tjpgd.c:1176
	mx = jd->msx * 8; my = jd->msy * 8;					//Ширина и высота блока изображения, пиксели
 80037ca:	bf98      	it	ls
 80037cc:	9b0a      	ldrls	r3, [sp, #40]	; 0x28
F:\AT32-workspace\AT32F403ACGU7_clone_windows_desktop_virtual_com_port\Release/../JPEG/tjpgd.c:1180
		rx >>= jd->scale; ry >>= jd->scale;				//Масштабируем размеры блока для вывода в буфер кадра (на дисплей)
 80037ce:	f894 800d 	ldrb.w	r8, [r4, #13]
F:\AT32-workspace\AT32F403ACGU7_clone_windows_desktop_virtual_com_port\Release/../JPEG/tjpgd.c:1178
	ry = (y + my <= jd->height) ? my : jd->height - y;	//Возможно, потребуется "подрезка" блока, если он выходит за границы изображения
 80037d2:	bf88      	it	hi
 80037d4:	1b5b      	subhi	r3, r3, r5
F:\AT32-workspace\AT32F403ACGU7_clone_windows_desktop_virtual_com_port\Release/../JPEG/tjpgd.c:1181
		if (!rx || !ry) return JDR_OK;					//Если ширина или высота блока для вывода в буфер кадра (на дисплей) равна 0, выходим.
 80037d6:	fa30 f008 	lsrs.w	r0, r0, r8
 80037da:	900d      	str	r0, [sp, #52]	; 0x34
 80037dc:	f000 8092 	beq.w	8003904 <jd_decomp+0x224>
 80037e0:	fa33 f608 	lsrs.w	r6, r3, r8
 80037e4:	960f      	str	r6, [sp, #60]	; 0x3c
 80037e6:	f000 808d 	beq.w	8003904 <jd_decomp+0x224>
F:\AT32-workspace\AT32F403ACGU7_clone_windows_desktop_virtual_com_port\Release/../JPEG/tjpgd.c:1182
			x >>= jd->scale; y >>= jd->scale;			//Масштабируем координаты блока.
 80037ea:	9b0b      	ldr	r3, [sp, #44]	; 0x2c
 80037ec:	fa23 f308 	lsr.w	r3, r3, r8
F:\AT32-workspace\AT32F403ACGU7_clone_windows_desktop_virtual_com_port\Release/../JPEG/tjpgd.c:1185
	rect.left = x; rect.right = x + rx - 1;				//Формируем параметры (координаты левого верхнего и правого нижнего углов)
 80037f0:	b29b      	uxth	r3, r3
 80037f2:	f8ad 3060 	strh.w	r3, [sp, #96]	; 0x60
 80037f6:	3b01      	subs	r3, #1
 80037f8:	4403      	add	r3, r0
 80037fa:	f8ad 3062 	strh.w	r3, [sp, #98]	; 0x62
F:\AT32-workspace\AT32F403ACGU7_clone_windows_desktop_virtual_com_port\Release/../JPEG/tjpgd.c:1182
			x >>= jd->scale; y >>= jd->scale;			//Масштабируем координаты блока.
 80037fe:	9b0e      	ldr	r3, [sp, #56]	; 0x38
 8003800:	fa23 f308 	lsr.w	r3, r3, r8
F:\AT32-workspace\AT32F403ACGU7_clone_windows_desktop_virtual_com_port\Release/../JPEG/tjpgd.c:1186
	rect.top = y; rect.bottom = y + ry - 1;				//прямоугольной области с изображением в буфере кадра (на дисплее)
 8003804:	b29b      	uxth	r3, r3
 8003806:	f8ad 3064 	strh.w	r3, [sp, #100]	; 0x64
 800380a:	3b01      	subs	r3, #1
 800380c:	4433      	add	r3, r6
 800380e:	f8ad 3066 	strh.w	r3, [sp, #102]	; 0x66
F:\AT32-workspace\AT32F403ACGU7_clone_windows_desktop_virtual_com_port\Release/../JPEG/tjpgd.c:1167
	void *workbuf = jd->workbuf + jd->offset;
 8003812:	6fe3      	ldr	r3, [r4, #124]	; 0x7c
 8003814:	4621      	mov	r1, r4
F:\AT32-workspace\AT32F403ACGU7_clone_windows_desktop_virtual_com_port\Release/../JPEG/tjpgd.c:1188
	if (!JD_USE_SCALE || jd->scale != 3) {	//Не для масштабирования 1/8
 8003816:	f1b8 0f03 	cmp.w	r8, #3
F:\AT32-workspace\AT32F403ACGU7_clone_windows_desktop_virtual_com_port\Release/../JPEG/tjpgd.c:1167
	void *workbuf = jd->workbuf + jd->offset;
 800381a:	eb03 0402 	add.w	r4, r3, r2
 800381e:	940c      	str	r4, [sp, #48]	; 0x30
F:\AT32-workspace\AT32F403ACGU7_clone_windows_desktop_virtual_com_port\Release/../JPEG/tjpgd.c:1188
	if (!JD_USE_SCALE || jd->scale != 3) {	//Не для масштабирования 1/8
 8003820:	f000 8624 	beq.w	800446c <jd_decomp+0xd8c>
F:\AT32-workspace\AT32F403ACGU7_clone_windows_desktop_virtual_com_port\Release/../JPEG/tjpgd.c:1189
		if (jd->color_format == 0 || jd->color_format == 1) {
 8003824:	f891 e088 	ldrb.w	lr, [r1, #136]	; 0x88
 8003828:	f1be 0f01 	cmp.w	lr, #1
 800382c:	f240 8470 	bls.w	8004110 <jd_decomp+0xa30>
F:\AT32-workspace\AT32F403ACGU7_clone_windows_desktop_virtual_com_port\Release/../JPEG/tjpgd.c:1225
			asm volatile (	"movs 	r3, #0						\n\t" // инициализация счетчика в r3(iy) = 0
 8003830:	9b01      	ldr	r3, [sp, #4]
 8003832:	9d0a      	ldr	r5, [sp, #40]	; 0x28
 8003834:	4626      	mov	r6, r4
 8003836:	f8d3 408c 	ldr.w	r4, [r3, #140]	; 0x8c
 800383a:	2300      	movs	r3, #0
 800383c:	eb04 1203 	add.w	r2, r4, r3, lsl #4
 8003840:	2d10      	cmp	r5, #16
 8003842:	d102      	bne.n	800384a <jd_decomp+0x16a>
 8003844:	2b08      	cmp	r3, #8
 8003846:	bf28      	it	cs
 8003848:	3280      	addcs	r2, #128	; 0x80
 800384a:	2100      	movs	r1, #0
 800384c:	f1bb 0f10 	cmp.w	fp, #16
 8003850:	d102      	bne.n	8003858 <jd_decomp+0x178>
 8003852:	2908      	cmp	r1, #8
 8003854:	bf08      	it	eq
 8003856:	3270      	addeq	r2, #112	; 0x70
 8003858:	f932 0b02 	ldrsh.w	r0, [r2], #2
 800385c:	f1be 0f02 	cmp.w	lr, #2
 8003860:	d104      	bne.n	800386c <jd_decomp+0x18c>
 8003862:	f380 0008 	usat	r0, #8, r0
 8003866:	f806 0b01 	strb.w	r0, [r6], #1
 800386a:	e007      	b.n	800387c <jd_decomp+0x19c>
 800386c:	f3a0 00c5 	usat	r0, #5, r0, asr #3
 8003870:	ea40 1080 	orr.w	r0, r0, r0, lsl #6
 8003874:	ea40 20c0 	orr.w	r0, r0, r0, lsl #11
 8003878:	f826 0b02 	strh.w	r0, [r6], #2
 800387c:	3101      	adds	r1, #1
 800387e:	4559      	cmp	r1, fp
 8003880:	d3e4      	bcc.n	800384c <jd_decomp+0x16c>
 8003882:	3301      	adds	r3, #1
 8003884:	42ab      	cmp	r3, r5
 8003886:	d3d9      	bcc.n	800383c <jd_decomp+0x15c>
F:\AT32-workspace\AT32F403ACGU7_clone_windows_desktop_virtual_com_port\Release/../JPEG/tjpgd.c:1277
		if (JD_USE_SCALE && jd->scale) {
 8003888:	f1b8 0f00 	cmp.w	r8, #0
 800388c:	f040 8685 	bne.w	800459a <jd_decomp+0xeba>
F:\AT32-workspace\AT32F403ACGU7_clone_windows_desktop_virtual_com_port\Release/../JPEG/tjpgd.c:1377
	if (rx < mx) {	// если rx < mx, то перестраиваем пиксели под область вывода
 8003890:	9b0d      	ldr	r3, [sp, #52]	; 0x34
F:\AT32-workspace\AT32F403ACGU7_clone_windows_desktop_virtual_com_port\Release/../JPEG/tjpgd.c:1376
	mx >>= jd->scale;
 8003892:	fa2b f508 	lsr.w	r5, fp, r8
F:\AT32-workspace\AT32F403ACGU7_clone_windows_desktop_virtual_com_port\Release/../JPEG/tjpgd.c:1377
	if (rx < mx) {	// если rx < mx, то перестраиваем пиксели под область вывода
 8003896:	42ab      	cmp	r3, r5
 8003898:	d227      	bcs.n	80038ea <jd_decomp+0x20a>
F:\AT32-workspace\AT32F403ACGU7_clone_windows_desktop_virtual_com_port\Release/../JPEG/tjpgd.c:1380
		if (jd->color_format == 1 || jd->color_format == 3) {	//R5G6B5 (16-bit/pix), Grayscale_16 (16-bit/pix)
 800389a:	9b01      	ldr	r3, [sp, #4]
 800389c:	f893 2088 	ldrb.w	r2, [r3, #136]	; 0x88
 80038a0:	f002 03fd 	and.w	r3, r2, #253	; 0xfd
 80038a4:	2b01      	cmp	r3, #1
 80038a6:	f000 8415 	beq.w	80040d4 <jd_decomp+0x9f4>
F:\AT32-workspace\AT32F403ACGU7_clone_windows_desktop_virtual_com_port\Release/../JPEG/tjpgd.c:1389
			if (jd->color_format == 0) { //R8G8B8 - 3 байта на пиксель
 80038aa:	b92a      	cbnz	r2, 80038b8 <jd_decomp+0x1d8>
F:\AT32-workspace\AT32F403ACGU7_clone_windows_desktop_virtual_com_port\Release/../JPEG/tjpgd.c:1390
				rx *= 3;
 80038ac:	9b0d      	ldr	r3, [sp, #52]	; 0x34
 80038ae:	eb03 0343 	add.w	r3, r3, r3, lsl #1
 80038b2:	930d      	str	r3, [sp, #52]	; 0x34
F:\AT32-workspace\AT32F403ACGU7_clone_windows_desktop_virtual_com_port\Release/../JPEG/tjpgd.c:1391
				mx *= 3;
 80038b4:	eb05 0545 	add.w	r5, r5, r5, lsl #1
F:\AT32-workspace\AT32F403ACGU7_clone_windows_desktop_virtual_com_port\Release/../JPEG/tjpgd.c:1393
			for (y = 1; y < ry; y++) { //Перемещаем пиксели в массиве для новой области вывода, начиная со 2 строки
 80038b8:	9b0f      	ldr	r3, [sp, #60]	; 0x3c
 80038ba:	2b01      	cmp	r3, #1
 80038bc:	d015      	beq.n	80038ea <jd_decomp+0x20a>
F:\AT32-workspace\AT32F403ACGU7_clone_windows_desktop_virtual_com_port\Release/../JPEG/tjpgd.c:1379
		s = d = (uint8_t*)workbuf;
 80038be:	9e0c      	ldr	r6, [sp, #48]	; 0x30
F:\AT32-workspace\AT32F403ACGU7_clone_windows_desktop_virtual_com_port\Release/../JPEG/tjpgd.c:1393
			for (y = 1; y < ry; y++) { //Перемещаем пиксели в массиве для новой области вывода, начиная со 2 строки
 80038c0:	f8dd e034 	ldr.w	lr, [sp, #52]	; 0x34
F:\AT32-workspace\AT32F403ACGU7_clone_windows_desktop_virtual_com_port\Release/../JPEG/tjpgd.c:1379
		s = d = (uint8_t*)workbuf;
 80038c4:	46b4      	mov	ip, r6
F:\AT32-workspace\AT32F403ACGU7_clone_windows_desktop_virtual_com_port\Release/../JPEG/tjpgd.c:1393
			for (y = 1; y < ry; y++) { //Перемещаем пиксели в массиве для новой области вывода, начиная со 2 строки
 80038c6:	2401      	movs	r4, #1
F:\AT32-workspace\AT32F403ACGU7_clone_windows_desktop_virtual_com_port\Release/../JPEG/tjpgd.c:1394
				memcpy_8(d += rx, s += mx, rx);
 80038c8:	4476      	add	r6, lr
 80038ca:	44ac      	add	ip, r5
memcpy_8():
F:\AT32-workspace\AT32F403ACGU7_clone_windows_desktop_virtual_com_port\Release/../JPEG/tjpgd.c:206
	asm volatile (	"orrs	%[size], %[size]\n\t"
 80038cc:	4633      	mov	r3, r6
 80038ce:	4662      	mov	r2, ip
 80038d0:	4671      	mov	r1, lr
 80038d2:	4309      	orrs	r1, r1
 80038d4:	d005      	beq.n	80038e2 <jd_decomp+0x202>
 80038d6:	f812 0b01 	ldrb.w	r0, [r2], #1
 80038da:	f803 0b01 	strb.w	r0, [r3], #1
 80038de:	3901      	subs	r1, #1
 80038e0:	d1f9      	bne.n	80038d6 <jd_decomp+0x1f6>
mcu_output():
F:\AT32-workspace\AT32F403ACGU7_clone_windows_desktop_virtual_com_port\Release/../JPEG/tjpgd.c:1393
			for (y = 1; y < ry; y++) { //Перемещаем пиксели в массиве для новой области вывода, начиная со 2 строки
 80038e2:	9b0f      	ldr	r3, [sp, #60]	; 0x3c
 80038e4:	3401      	adds	r4, #1
 80038e6:	42a3      	cmp	r3, r4
 80038e8:	d1ee      	bne.n	80038c8 <jd_decomp+0x1e8>
F:\AT32-workspace\AT32F403ACGU7_clone_windows_desktop_virtual_com_port\Release/../JPEG/tjpgd.c:1399
	return outfunc(jd, workbuf, &rect);
 80038ea:	9d01      	ldr	r5, [sp, #4]
 80038ec:	9c17      	ldr	r4, [sp, #92]	; 0x5c
 80038ee:	990c      	ldr	r1, [sp, #48]	; 0x30
 80038f0:	aa18      	add	r2, sp, #96	; 0x60
 80038f2:	4628      	mov	r0, r5
 80038f4:	47a0      	blx	r4
jd_decomp():
F:\AT32-workspace\AT32F403ACGU7_clone_windows_desktop_virtual_com_port\Release/../JPEG/tjpgd.c:1785
				rst = 1;
			}
			rc = mcu_load(jd);					/* Load an MCU (decompress huffman coded stream, dequantize and apply IDCT) */
			if (rc != JDR_OK) return rc;
			rc = mcu_output(jd, outfunc, x, y);	/* Output the MCU (YCbCr to RGB, scaling and output) */
			if (rc != JDR_OK) return rc;
 80038f6:	f010 04ff 	ands.w	r4, r0, #255	; 0xff
 80038fa:	f040 864b 	bne.w	8004594 <jd_decomp+0xeb4>
F:\AT32-workspace\AT32F403ACGU7_clone_windows_desktop_virtual_com_port\Release/../JPEG/tjpgd.c:1786
			jd->offset = jd->offset > 0 ? 0 : jd->offset_value;
 80038fe:	f8d5 2080 	ldr.w	r2, [r5, #128]	; 0x80
F:\AT32-workspace\AT32F403ACGU7_clone_windows_desktop_virtual_com_port\Release/../JPEG/tjpgd.c:1776
		for (x = 0; x < jd->width; x += mx) {	/* Horizontal loop of MCUs */
 8003902:	8ba9      	ldrh	r1, [r5, #28]
F:\AT32-workspace\AT32F403ACGU7_clone_windows_desktop_virtual_com_port\Release/../JPEG/tjpgd.c:1786
			jd->offset = jd->offset > 0 ? 0 : jd->offset_value;
 8003904:	2a00      	cmp	r2, #0
 8003906:	f340 839d 	ble.w	8004044 <jd_decomp+0x964>
F:\AT32-workspace\AT32F403ACGU7_clone_windows_desktop_virtual_com_port\Release/../JPEG/tjpgd.c:1776 (discriminator 4)
		for (x = 0; x < jd->width; x += mx) {	/* Horizontal loop of MCUs */
 800390a:	9a0b      	ldr	r2, [sp, #44]	; 0x2c
 800390c:	9812      	ldr	r0, [sp, #72]	; 0x48
 800390e:	4402      	add	r2, r0
F:\AT32-workspace\AT32F403ACGU7_clone_windows_desktop_virtual_com_port\Release/../JPEG/tjpgd.c:1786 (discriminator 4)
			jd->offset = jd->offset > 0 ? 0 : jd->offset_value;
 8003910:	9801      	ldr	r0, [sp, #4]
F:\AT32-workspace\AT32F403ACGU7_clone_windows_desktop_virtual_com_port\Release/../JPEG/tjpgd.c:1776 (discriminator 4)
		for (x = 0; x < jd->width; x += mx) {	/* Horizontal loop of MCUs */
 8003912:	920b      	str	r2, [sp, #44]	; 0x2c
F:\AT32-workspace\AT32F403ACGU7_clone_windows_desktop_virtual_com_port\Release/../JPEG/tjpgd.c:1786 (discriminator 4)
			jd->offset = jd->offset > 0 ? 0 : jd->offset_value;
 8003914:	2300      	movs	r3, #0
F:\AT32-workspace\AT32F403ACGU7_clone_windows_desktop_virtual_com_port\Release/../JPEG/tjpgd.c:1776 (discriminator 4)
		for (x = 0; x < jd->width; x += mx) {	/* Horizontal loop of MCUs */
 8003916:	428a      	cmp	r2, r1
F:\AT32-workspace\AT32F403ACGU7_clone_windows_desktop_virtual_com_port\Release/../JPEG/tjpgd.c:1786 (discriminator 4)
			jd->offset = jd->offset > 0 ? 0 : jd->offset_value;
 8003918:	f8c0 3080 	str.w	r3, [r0, #128]	; 0x80
F:\AT32-workspace\AT32F403ACGU7_clone_windows_desktop_virtual_com_port\Release/../JPEG/tjpgd.c:1776 (discriminator 4)
		for (x = 0; x < jd->width; x += mx) {	/* Horizontal loop of MCUs */
 800391c:	f4ff aeff 	bcc.w	800371e <jd_decomp+0x3e>
F:\AT32-workspace\AT32F403ACGU7_clone_windows_desktop_virtual_com_port\Release/../JPEG/tjpgd.c:1775
	for (y = 0; y < jd->height; y += my) {		/* Vertical loop of MCUs */
 8003920:	9b01      	ldr	r3, [sp, #4]
 8003922:	8bda      	ldrh	r2, [r3, #30]
F:\AT32-workspace\AT32F403ACGU7_clone_windows_desktop_virtual_com_port\Release/../JPEG/tjpgd.c:1775 (discriminator 2)
 8003924:	9b0e      	ldr	r3, [sp, #56]	; 0x38
 8003926:	9815      	ldr	r0, [sp, #84]	; 0x54
 8003928:	4403      	add	r3, r0
 800392a:	429a      	cmp	r2, r3
 800392c:	930e      	str	r3, [sp, #56]	; 0x38
 800392e:	f63f aef1 	bhi.w	8003714 <jd_decomp+0x34>
F:\AT32-workspace\AT32F403ACGU7_clone_windows_desktop_virtual_com_port\Release/../JPEG/tjpgd.c:1789
		}
	}
	return rc;
 8003932:	2000      	movs	r0, #0
 8003934:	e122      	b.n	8003b7c <jd_decomp+0x49c>
mcu_load():
F:\AT32-workspace\AT32F403ACGU7_clone_windows_desktop_virtual_com_port\Release/../JPEG/tjpgd.c:1789
 8003936:	2300      	movs	r3, #0
 8003938:	9305      	str	r3, [sp, #20]
F:\AT32-workspace\AT32F403ACGU7_clone_windows_desktop_virtual_com_port\Release/../JPEG/tjpgd.c:1075
		cmp = (blk < nby) ? 0 : blk - nby + 1;	/* Component number 0:Y, 1:Cb, 2:Cr */
 800393a:	9309      	str	r3, [sp, #36]	; 0x24
huffext():
F:\AT32-workspace\AT32F403ACGU7_clone_windows_desktop_virtual_com_port\Release/../JPEG/tjpgd.c:705
	unsigned int nc, bl, wbit = jd->dbit % 32;
 800393c:	9901      	ldr	r1, [sp, #4]
 800393e:	7b0b      	ldrb	r3, [r1, #12]
F:\AT32-workspace\AT32F403ACGU7_clone_windows_desktop_virtual_com_port\Release/../JPEG/tjpgd.c:706
	uint32_t w = jd->wreg & ((1UL << wbit) - 1);
 8003940:	6e0c      	ldr	r4, [r1, #96]	; 0x60
F:\AT32-workspace\AT32F403ACGU7_clone_windows_desktop_virtual_com_port\Release/../JPEG/tjpgd.c:705
	unsigned int nc, bl, wbit = jd->dbit % 32;
 8003942:	f003 051f 	and.w	r5, r3, #31
F:\AT32-workspace\AT32F403ACGU7_clone_windows_desktop_virtual_com_port\Release/../JPEG/tjpgd.c:706
	uint32_t w = jd->wreg & ((1UL << wbit) - 1);
 8003946:	f04f 32ff 	mov.w	r2, #4294967295
 800394a:	40aa      	lsls	r2, r5
F:\AT32-workspace\AT32F403ACGU7_clone_windows_desktop_virtual_com_port\Release/../JPEG/tjpgd.c:709
	while (wbit < 16) {	/* Prepare 16 bits into the working register */
 800394c:	f013 0610 	ands.w	r6, r3, #16
F:\AT32-workspace\AT32F403ACGU7_clone_windows_desktop_virtual_com_port\Release/../JPEG/tjpgd.c:655
	uint8_t *dp = jd->dptr;
 8003950:	e9d1 0a00 	ldrd	r0, sl, [r1]
F:\AT32-workspace\AT32F403ACGU7_clone_windows_desktop_virtual_com_port\Release/../JPEG/tjpgd.c:706
	uint32_t w = jd->wreg & ((1UL << wbit) - 1);
 8003954:	ea24 0402 	bic.w	r4, r4, r2
F:\AT32-workspace\AT32F403ACGU7_clone_windows_desktop_virtual_com_port\Release/../JPEG/tjpgd.c:709
	while (wbit < 16) {	/* Prepare 16 bits into the working register */
 8003958:	f040 82c3 	bne.w	8003ee2 <jd_decomp+0x802>
F:\AT32-workspace\AT32F403ACGU7_clone_windows_desktop_virtual_com_port\Release/../JPEG/tjpgd.c:656
	unsigned int d, flg = 0;
 800395c:	4688      	mov	r8, r1
F:\AT32-workspace\AT32F403ACGU7_clone_windows_desktop_virtual_com_port\Release/../JPEG/tjpgd.c:710
		if (jd->marker) {
 800395e:	f898 3064 	ldrb.w	r3, [r8, #100]	; 0x64
 8003962:	bb1b      	cbnz	r3, 80039ac <jd_decomp+0x2cc>
F:\AT32-workspace\AT32F403ACGU7_clone_windows_desktop_virtual_com_port\Release/../JPEG/tjpgd.c:713
			if (!dc) {	/* Buffer empty, re-fill input buffer */
 8003964:	b958      	cbnz	r0, 800397e <jd_decomp+0x29e>
F:\AT32-workspace\AT32F403ACGU7_clone_windows_desktop_virtual_com_port\Release/../JPEG/tjpgd.c:714
				dp = jd->inbuf;						/* Top of input buffer */
 8003966:	f8d8 a008 	ldr.w	sl, [r8, #8]
F:\AT32-workspace\AT32F403ACGU7_clone_windows_desktop_virtual_com_port\Release/../JPEG/tjpgd.c:715
				dc = jd->infunc(jd, dp, JD_SZBUF);
 800396a:	f8d8 3098 	ldr.w	r3, [r8, #152]	; 0x98
 800396e:	f44f 6280 	mov.w	r2, #1024	; 0x400
 8003972:	4651      	mov	r1, sl
 8003974:	4640      	mov	r0, r8
 8003976:	4798      	blx	r3
F:\AT32-workspace\AT32F403ACGU7_clone_windows_desktop_virtual_com_port\Release/../JPEG/tjpgd.c:716
				if (!dc) return 0 - (int)JDR_INP;	/* Err: read error or wrong stream termination */
 8003978:	2800      	cmp	r0, #0
 800397a:	f000 82a5 	beq.w	8003ec8 <jd_decomp+0x7e8>
F:\AT32-workspace\AT32F403ACGU7_clone_windows_desktop_virtual_com_port\Release/../JPEG/tjpgd.c:718
			d = *dp++; dc--;
 800397e:	f81a 3b01 	ldrb.w	r3, [sl], #1
 8003982:	3801      	subs	r0, #1
F:\AT32-workspace\AT32F403ACGU7_clone_windows_desktop_virtual_com_port\Release/../JPEG/tjpgd.c:719
			if (flg) {		/* In flag sequence? */
 8003984:	2e00      	cmp	r6, #0
 8003986:	f000 8131 	beq.w	8003bec <jd_decomp+0x50c>
F:\AT32-workspace\AT32F403ACGU7_clone_windows_desktop_virtual_com_port\Release/../JPEG/tjpgd.c:721
				if (d != 0) jd->marker = d;	/* Not an escape of 0xFF but a marker */
 800398a:	2b00      	cmp	r3, #0
 800398c:	f000 82a2 	beq.w	8003ed4 <jd_decomp+0x7f4>
 8003990:	f888 3064 	strb.w	r3, [r8, #100]	; 0x64
F:\AT32-workspace\AT32F403ACGU7_clone_windows_desktop_virtual_com_port\Release/../JPEG/tjpgd.c:722
				d = 0xFF;
 8003994:	23ff      	movs	r3, #255	; 0xff
F:\AT32-workspace\AT32F403ACGU7_clone_windows_desktop_virtual_com_port\Release/../JPEG/tjpgd.c:730
		wbit += 8;
 8003996:	3508      	adds	r5, #8
F:\AT32-workspace\AT32F403ACGU7_clone_windows_desktop_virtual_com_port\Release/../JPEG/tjpgd.c:709
	while (wbit < 16) {	/* Prepare 16 bits into the working register */
 8003998:	2d0f      	cmp	r5, #15
F:\AT32-workspace\AT32F403ACGU7_clone_windows_desktop_virtual_com_port\Release/../JPEG/tjpgd.c:729
		w = w << 8 | d;	/* Shift 8 bits in the working register */
 800399a:	ea43 2404 	orr.w	r4, r3, r4, lsl #8
F:\AT32-workspace\AT32F403ACGU7_clone_windows_desktop_virtual_com_port\Release/../JPEG/tjpgd.c:709
	while (wbit < 16) {	/* Prepare 16 bits into the working register */
 800399e:	f200 82a0 	bhi.w	8003ee2 <jd_decomp+0x802>
F:\AT32-workspace\AT32F403ACGU7_clone_windows_desktop_virtual_com_port\Release/../JPEG/tjpgd.c:710
		if (jd->marker) {
 80039a2:	f898 3064 	ldrb.w	r3, [r8, #100]	; 0x64
F:\AT32-workspace\AT32F403ACGU7_clone_windows_desktop_virtual_com_port\Release/../JPEG/tjpgd.c:709
	while (wbit < 16) {	/* Prepare 16 bits into the working register */
 80039a6:	2600      	movs	r6, #0
F:\AT32-workspace\AT32F403ACGU7_clone_windows_desktop_virtual_com_port\Release/../JPEG/tjpgd.c:710
		if (jd->marker) {
 80039a8:	2b00      	cmp	r3, #0
 80039aa:	d0db      	beq.n	8003964 <jd_decomp+0x284>
F:\AT32-workspace\AT32F403ACGU7_clone_windows_desktop_virtual_com_port\Release/../JPEG/tjpgd.c:730
		wbit += 8;
 80039ac:	f105 0308 	add.w	r3, r5, #8
F:\AT32-workspace\AT32F403ACGU7_clone_windows_desktop_virtual_com_port\Release/../JPEG/tjpgd.c:729
		w = w << 8 | d;	/* Shift 8 bits in the working register */
 80039b0:	0224      	lsls	r4, r4, #8
F:\AT32-workspace\AT32F403ACGU7_clone_windows_desktop_virtual_com_port\Release/../JPEG/tjpgd.c:709
	while (wbit < 16) {	/* Prepare 16 bits into the working register */
 80039b2:	2b0f      	cmp	r3, #15
F:\AT32-workspace\AT32F403ACGU7_clone_windows_desktop_virtual_com_port\Release/../JPEG/tjpgd.c:729
		w = w << 8 | d;	/* Shift 8 bits in the working register */
 80039b4:	f044 04ff 	orr.w	r4, r4, #255	; 0xff
F:\AT32-workspace\AT32F403ACGU7_clone_windows_desktop_virtual_com_port\Release/../JPEG/tjpgd.c:709
	while (wbit < 16) {	/* Prepare 16 bits into the working register */
 80039b8:	d804      	bhi.n	80039c4 <jd_decomp+0x2e4>
F:\AT32-workspace\AT32F403ACGU7_clone_windows_desktop_virtual_com_port\Release/../JPEG/tjpgd.c:729
		w = w << 8 | d;	/* Shift 8 bits in the working register */
 80039ba:	0224      	lsls	r4, r4, #8
 80039bc:	f044 04ff 	orr.w	r4, r4, #255	; 0xff
F:\AT32-workspace\AT32F403ACGU7_clone_windows_desktop_virtual_com_port\Release/../JPEG/tjpgd.c:730
		wbit += 8;
 80039c0:	f105 0310 	add.w	r3, r5, #16
F:\AT32-workspace\AT32F403ACGU7_clone_windows_desktop_virtual_com_port\Release/../JPEG/tjpgd.c:732
	jd->dctr = dc; jd->dptr = dp;
 80039c4:	9d01      	ldr	r5, [sp, #4]
 80039c6:	9a05      	ldr	r2, [sp, #20]
F:\AT32-workspace\AT32F403ACGU7_clone_windows_desktop_virtual_com_port\Release/../JPEG/tjpgd.c:733
	jd->wreg = w;
 80039c8:	662c      	str	r4, [r5, #96]	; 0x60
F:\AT32-workspace\AT32F403ACGU7_clone_windows_desktop_virtual_com_port\Release/../JPEG/tjpgd.c:732
	jd->dctr = dc; jd->dptr = dp;
 80039ca:	e9c5 0a00 	strd	r0, sl, [r5]
F:\AT32-workspace\AT32F403ACGU7_clone_windows_desktop_virtual_com_port\Release/../JPEG/tjpgd.c:745
		d = jd->hufflut_dc[id][d];	/* Table decode */
 80039ce:	eb05 0282 	add.w	r2, r5, r2, lsl #2
F:\AT32-workspace\AT32F403ACGU7_clone_windows_desktop_virtual_com_port\Release/../JPEG/tjpgd.c:737
	d = (unsigned int)(w >> (wbit - HUFF_BIT));	/* Short code as table index */
 80039d2:	f1a3 010a 	sub.w	r1, r3, #10
 80039d6:	9203      	str	r2, [sp, #12]
 80039d8:	fa24 f101 	lsr.w	r1, r4, r1
F:\AT32-workspace\AT32F403ACGU7_clone_windows_desktop_virtual_com_port\Release/../JPEG/tjpgd.c:745
		d = jd->hufflut_dc[id][d];	/* Table decode */
 80039dc:	6f52      	ldr	r2, [r2, #116]	; 0x74
 80039de:	5c56      	ldrb	r6, [r2, r1]
F:\AT32-workspace\AT32F403ACGU7_clone_windows_desktop_virtual_com_port\Release/../JPEG/tjpgd.c:746
		if (d != 0xFF) {	/* It is done if hit in short code */
 80039e0:	2eff      	cmp	r6, #255	; 0xff
 80039e2:	f000 8282 	beq.w	8003eea <jd_decomp+0x80a>
F:\AT32-workspace\AT32F403ACGU7_clone_windows_desktop_virtual_com_port\Release/../JPEG/tjpgd.c:747
			jd->dbit = wbit - (d >> 4);	/* Snip the code length  */
 80039e6:	9909      	ldr	r1, [sp, #36]	; 0x24
 80039e8:	eba3 1316 	sub.w	r3, r3, r6, lsr #4
 80039ec:	462a      	mov	r2, r5
 80039ee:	b2db      	uxtb	r3, r3
 80039f0:	eb02 0941 	add.w	r9, r2, r1, lsl #1
 80039f4:	732b      	strb	r3, [r5, #12]
F:\AT32-workspace\AT32F403ACGU7_clone_windows_desktop_virtual_com_port\Release/../JPEG/tjpgd.c:748
			return d & 0xF;	/* b3..0: following data bits */
 80039f6:	f006 060f 	and.w	r6, r6, #15
mcu_load():
F:\AT32-workspace\AT32F403ACGU7_clone_windows_desktop_virtual_com_port\Release/../JPEG/tjpgd.c:1090
			d = jd->dcv[cmp];						/* DC value of previous block */
 80039fa:	f9b9 b014 	ldrsh.w	fp, [r9, #20]
F:\AT32-workspace\AT32F403ACGU7_clone_windows_desktop_virtual_com_port\Release/../JPEG/tjpgd.c:1091
			if (bc) {								/* If there is any difference from previous block */
 80039fe:	2e00      	cmp	r6, #0
 8003a00:	f040 82b7 	bne.w	8003f72 <jd_decomp+0x892>
F:\AT32-workspace\AT32F403ACGU7_clone_windows_desktop_virtual_com_port\Release/../JPEG/tjpgd.c:1099
			dqf = jd->qttbl[jd->qtid[cmp]];			/* De-quantizer table ID for this component */
 8003a04:	9d01      	ldr	r5, [sp, #4]
 8003a06:	9b09      	ldr	r3, [sp, #36]	; 0x24
 8003a08:	18eb      	adds	r3, r5, r3
memset_32():
F:\AT32-workspace\AT32F403ACGU7_clone_windows_desktop_virtual_com_port\Release/../JPEG/tjpgd.c:152
	asm volatile (	"orrs	%[size], %[size]\n\t"
 8003a0a:	2100      	movs	r1, #0
mcu_load():
F:\AT32-workspace\AT32F403ACGU7_clone_windows_desktop_virtual_com_port\Release/../JPEG/tjpgd.c:1099
			dqf = jd->qttbl[jd->qtid[cmp]];			/* De-quantizer table ID for this component */
 8003a0c:	7c1b      	ldrb	r3, [r3, #16]
 8003a0e:	3314      	adds	r3, #20
 8003a10:	f855 3023 	ldr.w	r3, [r5, r3, lsl #2]
 8003a14:	9308      	str	r3, [sp, #32]
 8003a16:	461a      	mov	r2, r3
F:\AT32-workspace\AT32F403ACGU7_clone_windows_desktop_virtual_com_port\Release/../JPEG/tjpgd.c:1100
			tmp[0] = d * dqf[0] >> 8;				/* De-quantize, apply scale factor of Arai algorithm and descale 8 bits */
 8003a18:	9b07      	ldr	r3, [sp, #28]
 8003a1a:	6812      	ldr	r2, [r2, #0]
 8003a1c:	fb02 f20b 	mul.w	r2, r2, fp
 8003a20:	1212      	asrs	r2, r2, #8
 8003a22:	f843 2b04 	str.w	r2, [r3], #4
memset_32():
F:\AT32-workspace\AT32F403ACGU7_clone_windows_desktop_virtual_com_port\Release/../JPEG/tjpgd.c:152
	asm volatile (	"orrs	%[size], %[size]\n\t"
 8003a26:	223f      	movs	r2, #63	; 0x3f
 8003a28:	4312      	orrs	r2, r2
 8003a2a:	d003      	beq.n	8003a34 <jd_decomp+0x354>
 8003a2c:	f843 1b04 	str.w	r1, [r3], #4
 8003a30:	3a01      	subs	r2, #1
 8003a32:	d1fb      	bne.n	8003a2c <jd_decomp+0x34c>
mcu_load():
F:\AT32-workspace\AT32F403ACGU7_clone_windows_desktop_virtual_com_port\Release/../JPEG/tjpgd.c:1108
			z = 1;		/* Top of the AC elements (in zigzag-order) */
 8003a34:	f04f 0b01 	mov.w	fp, #1
 8003a38:	4651      	mov	r1, sl
huffext():
F:\AT32-workspace\AT32F403ACGU7_clone_windows_desktop_virtual_com_port\Release/../JPEG/tjpgd.c:705
	unsigned int nc, bl, wbit = jd->dbit % 32;
 8003a3a:	f895 800c 	ldrb.w	r8, [r5, #12]
F:\AT32-workspace\AT32F403ACGU7_clone_windows_desktop_virtual_com_port\Release/../JPEG/tjpgd.c:706
	uint32_t w = jd->wreg & ((1UL << wbit) - 1);
 8003a3e:	6e2c      	ldr	r4, [r5, #96]	; 0x60
F:\AT32-workspace\AT32F403ACGU7_clone_windows_desktop_virtual_com_port\Release/../JPEG/tjpgd.c:705
	unsigned int nc, bl, wbit = jd->dbit % 32;
 8003a40:	f008 061f 	and.w	r6, r8, #31
F:\AT32-workspace\AT32F403ACGU7_clone_windows_desktop_virtual_com_port\Release/../JPEG/tjpgd.c:706
	uint32_t w = jd->wreg & ((1UL << wbit) - 1);
 8003a44:	f04f 33ff 	mov.w	r3, #4294967295
 8003a48:	40b3      	lsls	r3, r6
F:\AT32-workspace\AT32F403ACGU7_clone_windows_desktop_virtual_com_port\Release/../JPEG/tjpgd.c:709
	while (wbit < 16) {	/* Prepare 16 bits into the working register */
 8003a4a:	f018 0810 	ands.w	r8, r8, #16
F:\AT32-workspace\AT32F403ACGU7_clone_windows_desktop_virtual_com_port\Release/../JPEG/tjpgd.c:706
	uint32_t w = jd->wreg & ((1UL << wbit) - 1);
 8003a4e:	ea24 0403 	bic.w	r4, r4, r3
F:\AT32-workspace\AT32F403ACGU7_clone_windows_desktop_virtual_com_port\Release/../JPEG/tjpgd.c:709
	while (wbit < 16) {	/* Prepare 16 bits into the working register */
 8003a52:	f040 8248 	bne.w	8003ee6 <jd_decomp+0x806>
F:\AT32-workspace\AT32F403ACGU7_clone_windows_desktop_virtual_com_port\Release/../JPEG/tjpgd.c:710
		if (jd->marker) {
 8003a56:	f895 3064 	ldrb.w	r3, [r5, #100]	; 0x64
 8003a5a:	2b00      	cmp	r3, #0
 8003a5c:	d146      	bne.n	8003aec <jd_decomp+0x40c>
F:\AT32-workspace\AT32F403ACGU7_clone_windows_desktop_virtual_com_port\Release/../JPEG/tjpgd.c:713
			if (!dc) {	/* Buffer empty, re-fill input buffer */
 8003a5e:	2800      	cmp	r0, #0
 8003a60:	d151      	bne.n	8003b06 <jd_decomp+0x426>
F:\AT32-workspace\AT32F403ACGU7_clone_windows_desktop_virtual_com_port\Release/../JPEG/tjpgd.c:714
				dp = jd->inbuf;						/* Top of input buffer */
 8003a62:	f8d5 9008 	ldr.w	r9, [r5, #8]
F:\AT32-workspace\AT32F403ACGU7_clone_windows_desktop_virtual_com_port\Release/../JPEG/tjpgd.c:715
				dc = jd->infunc(jd, dp, JD_SZBUF);
 8003a66:	f8d5 3098 	ldr.w	r3, [r5, #152]	; 0x98
 8003a6a:	f44f 6280 	mov.w	r2, #1024	; 0x400
 8003a6e:	4649      	mov	r1, r9
 8003a70:	4628      	mov	r0, r5
 8003a72:	4798      	blx	r3
F:\AT32-workspace\AT32F403ACGU7_clone_windows_desktop_virtual_com_port\Release/../JPEG/tjpgd.c:716
				if (!dc) return 0 - (int)JDR_INP;	/* Err: read error or wrong stream termination */
 8003a74:	2800      	cmp	r0, #0
 8003a76:	f000 8227 	beq.w	8003ec8 <jd_decomp+0x7e8>
F:\AT32-workspace\AT32F403ACGU7_clone_windows_desktop_virtual_com_port\Release/../JPEG/tjpgd.c:718
			d = *dp++; dc--;
 8003a7a:	4649      	mov	r1, r9
 8003a7c:	3801      	subs	r0, #1
 8003a7e:	f811 3b01 	ldrb.w	r3, [r1], #1
F:\AT32-workspace\AT32F403ACGU7_clone_windows_desktop_virtual_com_port\Release/../JPEG/tjpgd.c:719
			if (flg) {		/* In flag sequence? */
 8003a82:	f1b8 0f00 	cmp.w	r8, #0
 8003a86:	d046      	beq.n	8003b16 <jd_decomp+0x436>
F:\AT32-workspace\AT32F403ACGU7_clone_windows_desktop_virtual_com_port\Release/../JPEG/tjpgd.c:721
				if (d != 0) jd->marker = d;	/* Not an escape of 0xFF but a marker */
 8003a88:	2b00      	cmp	r3, #0
 8003a8a:	d04d      	beq.n	8003b28 <jd_decomp+0x448>
 8003a8c:	f885 3064 	strb.w	r3, [r5, #100]	; 0x64
F:\AT32-workspace\AT32F403ACGU7_clone_windows_desktop_virtual_com_port\Release/../JPEG/tjpgd.c:722
				d = 0xFF;
 8003a90:	23ff      	movs	r3, #255	; 0xff
F:\AT32-workspace\AT32F403ACGU7_clone_windows_desktop_virtual_com_port\Release/../JPEG/tjpgd.c:729
		w = w << 8 | d;	/* Shift 8 bits in the working register */
 8003a92:	ea43 2404 	orr.w	r4, r3, r4, lsl #8
F:\AT32-workspace\AT32F403ACGU7_clone_windows_desktop_virtual_com_port\Release/../JPEG/tjpgd.c:730
		wbit += 8;
 8003a96:	f106 0308 	add.w	r3, r6, #8
F:\AT32-workspace\AT32F403ACGU7_clone_windows_desktop_virtual_com_port\Release/../JPEG/tjpgd.c:709
	while (wbit < 16) {	/* Prepare 16 bits into the working register */
 8003a9a:	2b0f      	cmp	r3, #15
 8003a9c:	d940      	bls.n	8003b20 <jd_decomp+0x440>
F:\AT32-workspace\AT32F403ACGU7_clone_windows_desktop_virtual_com_port\Release/../JPEG/tjpgd.c:732
	jd->dctr = dc; jd->dptr = dp;
 8003a9e:	e9c5 0100 	strd	r0, r1, [r5]
F:\AT32-workspace\AT32F403ACGU7_clone_windows_desktop_virtual_com_port\Release/../JPEG/tjpgd.c:739
		d = jd->hufflut_ac[id][d];	/* Table decode */
 8003aa2:	9a03      	ldr	r2, [sp, #12]
F:\AT32-workspace\AT32F403ACGU7_clone_windows_desktop_virtual_com_port\Release/../JPEG/tjpgd.c:733
	jd->wreg = w;
 8003aa4:	662c      	str	r4, [r5, #96]	; 0x60
F:\AT32-workspace\AT32F403ACGU7_clone_windows_desktop_virtual_com_port\Release/../JPEG/tjpgd.c:737
	d = (unsigned int)(w >> (wbit - HUFF_BIT));	/* Short code as table index */
 8003aa6:	f1a3 060a 	sub.w	r6, r3, #10
F:\AT32-workspace\AT32F403ACGU7_clone_windows_desktop_virtual_com_port\Release/../JPEG/tjpgd.c:739
		d = jd->hufflut_ac[id][d];	/* Table decode */
 8003aaa:	6ed2      	ldr	r2, [r2, #108]	; 0x6c
F:\AT32-workspace\AT32F403ACGU7_clone_windows_desktop_virtual_com_port\Release/../JPEG/tjpgd.c:737
	d = (unsigned int)(w >> (wbit - HUFF_BIT));	/* Short code as table index */
 8003aac:	fa24 f606 	lsr.w	r6, r4, r6
F:\AT32-workspace\AT32F403ACGU7_clone_windows_desktop_virtual_com_port\Release/../JPEG/tjpgd.c:739
		d = jd->hufflut_ac[id][d];	/* Table decode */
 8003ab0:	f832 6016 	ldrh.w	r6, [r2, r6, lsl #1]
F:\AT32-workspace\AT32F403ACGU7_clone_windows_desktop_virtual_com_port\Release/../JPEG/tjpgd.c:740
		if (d != 0xFFFF) {	/* It is done if hit in short code */
 8003ab4:	f64f 72ff 	movw	r2, #65535	; 0xffff
 8003ab8:	4296      	cmp	r6, r2
 8003aba:	d037      	beq.n	8003b2c <jd_decomp+0x44c>
F:\AT32-workspace\AT32F403ACGU7_clone_windows_desktop_virtual_com_port\Release/../JPEG/tjpgd.c:741
			jd->dbit = wbit - (d >> 8);	/* Snip the code length */
 8003abc:	eba3 2316 	sub.w	r3, r3, r6, lsr #8
F:\AT32-workspace\AT32F403ACGU7_clone_windows_desktop_virtual_com_port\Release/../JPEG/tjpgd.c:742
			return d & 0xFF;	/* b7..0: zero run and following data bits */
 8003ac0:	b2f6      	uxtb	r6, r6
F:\AT32-workspace\AT32F403ACGU7_clone_windows_desktop_virtual_com_port\Release/../JPEG/tjpgd.c:741
			jd->dbit = wbit - (d >> 8);	/* Snip the code length */
 8003ac2:	732b      	strb	r3, [r5, #12]
mcu_load():
F:\AT32-workspace\AT32F403ACGU7_clone_windows_desktop_virtual_com_port\Release/../JPEG/tjpgd.c:1111
				if (d == 0) break;					/* EOB? */
 8003ac4:	2e00      	cmp	r6, #0
 8003ac6:	d073      	beq.n	8003bb0 <jd_decomp+0x4d0>
F:\AT32-workspace\AT32F403ACGU7_clone_windows_desktop_virtual_com_port\Release/../JPEG/tjpgd.c:1114
				z += bc >> 4;						/* Skip leading zero run */
 8003ac8:	eb0b 1a16 	add.w	sl, fp, r6, lsr #4
F:\AT32-workspace\AT32F403ACGU7_clone_windows_desktop_virtual_com_port\Release/../JPEG/tjpgd.c:1115
				if (z >= 64) return JDR_FMT1;		/* Too long zero run */
 8003acc:	f1ba 0f3f 	cmp.w	sl, #63	; 0x3f
 8003ad0:	d853      	bhi.n	8003b7a <jd_decomp+0x49a>
F:\AT32-workspace\AT32F403ACGU7_clone_windows_desktop_virtual_com_port\Release/../JPEG/tjpgd.c:1116
				if (bc &= 0x0F) {					/* Bit length? */
 8003ad2:	f016 060f 	ands.w	r6, r6, #15
 8003ad6:	f040 808e 	bne.w	8003bf6 <jd_decomp+0x516>
F:\AT32-workspace\AT32F403ACGU7_clone_windows_desktop_virtual_com_port\Release/../JPEG/tjpgd.c:1124
			} while (++z < 64);		/* Next AC element */
 8003ada:	f1ba 0f3f 	cmp.w	sl, #63	; 0x3f
 8003ade:	f10a 0b01 	add.w	fp, sl, #1
 8003ae2:	f000 80f2 	beq.w	8003cca <jd_decomp+0x5ea>
huffext():
F:\AT32-workspace\AT32F403ACGU7_clone_windows_desktop_virtual_com_port\Release/../JPEG/tjpgd.c:655
	uint8_t *dp = jd->dptr;
 8003ae6:	e9d5 0100 	ldrd	r0, r1, [r5]
 8003aea:	e7a6      	b.n	8003a3a <jd_decomp+0x35a>
F:\AT32-workspace\AT32F403ACGU7_clone_windows_desktop_virtual_com_port\Release/../JPEG/tjpgd.c:730
		wbit += 8;
 8003aec:	f106 0308 	add.w	r3, r6, #8
F:\AT32-workspace\AT32F403ACGU7_clone_windows_desktop_virtual_com_port\Release/../JPEG/tjpgd.c:729
		w = w << 8 | d;	/* Shift 8 bits in the working register */
 8003af0:	0224      	lsls	r4, r4, #8
F:\AT32-workspace\AT32F403ACGU7_clone_windows_desktop_virtual_com_port\Release/../JPEG/tjpgd.c:709
	while (wbit < 16) {	/* Prepare 16 bits into the working register */
 8003af2:	2b0f      	cmp	r3, #15
F:\AT32-workspace\AT32F403ACGU7_clone_windows_desktop_virtual_com_port\Release/../JPEG/tjpgd.c:729
		w = w << 8 | d;	/* Shift 8 bits in the working register */
 8003af4:	f044 04ff 	orr.w	r4, r4, #255	; 0xff
F:\AT32-workspace\AT32F403ACGU7_clone_windows_desktop_virtual_com_port\Release/../JPEG/tjpgd.c:709
	while (wbit < 16) {	/* Prepare 16 bits into the working register */
 8003af8:	d8d1      	bhi.n	8003a9e <jd_decomp+0x3be>
F:\AT32-workspace\AT32F403ACGU7_clone_windows_desktop_virtual_com_port\Release/../JPEG/tjpgd.c:729
		w = w << 8 | d;	/* Shift 8 bits in the working register */
 8003afa:	0224      	lsls	r4, r4, #8
 8003afc:	f044 04ff 	orr.w	r4, r4, #255	; 0xff
F:\AT32-workspace\AT32F403ACGU7_clone_windows_desktop_virtual_com_port\Release/../JPEG/tjpgd.c:730
		wbit += 8;
 8003b00:	f106 0310 	add.w	r3, r6, #16
F:\AT32-workspace\AT32F403ACGU7_clone_windows_desktop_virtual_com_port\Release/../JPEG/tjpgd.c:709
	while (wbit < 16) {	/* Prepare 16 bits into the working register */
 8003b04:	e7cb      	b.n	8003a9e <jd_decomp+0x3be>
 8003b06:	4689      	mov	r9, r1
F:\AT32-workspace\AT32F403ACGU7_clone_windows_desktop_virtual_com_port\Release/../JPEG/tjpgd.c:718
			d = *dp++; dc--;
 8003b08:	4649      	mov	r1, r9
 8003b0a:	3801      	subs	r0, #1
 8003b0c:	f811 3b01 	ldrb.w	r3, [r1], #1
F:\AT32-workspace\AT32F403ACGU7_clone_windows_desktop_virtual_com_port\Release/../JPEG/tjpgd.c:719
			if (flg) {		/* In flag sequence? */
 8003b10:	f1b8 0f00 	cmp.w	r8, #0
 8003b14:	d1b8      	bne.n	8003a88 <jd_decomp+0x3a8>
F:\AT32-workspace\AT32F403ACGU7_clone_windows_desktop_virtual_com_port\Release/../JPEG/tjpgd.c:724
				if (d == 0xFF) {		/* Is start of flag sequence? */
 8003b16:	2bff      	cmp	r3, #255	; 0xff
 8003b18:	d1bb      	bne.n	8003a92 <jd_decomp+0x3b2>
F:\AT32-workspace\AT32F403ACGU7_clone_windows_desktop_virtual_com_port\Release/../JPEG/tjpgd.c:725
					flg = 1; continue;	/* Enter flag sequence, get trailing byte */
 8003b1a:	f04f 0801 	mov.w	r8, #1
 8003b1e:	e79a      	b.n	8003a56 <jd_decomp+0x376>
F:\AT32-workspace\AT32F403ACGU7_clone_windows_desktop_virtual_com_port\Release/../JPEG/tjpgd.c:730
		wbit += 8;
 8003b20:	461e      	mov	r6, r3
F:\AT32-workspace\AT32F403ACGU7_clone_windows_desktop_virtual_com_port\Release/../JPEG/tjpgd.c:709
	while (wbit < 16) {	/* Prepare 16 bits into the working register */
 8003b22:	f04f 0800 	mov.w	r8, #0
 8003b26:	e796      	b.n	8003a56 <jd_decomp+0x376>
F:\AT32-workspace\AT32F403ACGU7_clone_windows_desktop_virtual_com_port\Release/../JPEG/tjpgd.c:722
				d = 0xFF;
 8003b28:	23ff      	movs	r3, #255	; 0xff
 8003b2a:	e7b2      	b.n	8003a92 <jd_decomp+0x3b2>
F:\AT32-workspace\AT32F403ACGU7_clone_windows_desktop_virtual_com_port\Release/../JPEG/tjpgd.c:753
	hb = jd->huffbits[id][cls] + HUFF_BIT;				/* Bit distribution table */
 8003b2c:	9a05      	ldr	r2, [sp, #20]
F:\AT32-workspace\AT32F403ACGU7_clone_windows_desktop_virtual_com_port\Release/../JPEG/tjpgd.c:767
			d = w >> (wbit - bl);
 8003b2e:	9306      	str	r3, [sp, #24]
F:\AT32-workspace\AT32F403ACGU7_clone_windows_desktop_virtual_com_port\Release/../JPEG/tjpgd.c:753
	hb = jd->huffbits[id][cls] + HUFF_BIT;				/* Bit distribution table */
 8003b30:	eb05 0ec2 	add.w	lr, r5, r2, lsl #3
F:\AT32-workspace\AT32F403ACGU7_clone_windows_desktop_virtual_com_port\Release/../JPEG/tjpgd.c:754
	hc = jd->huffcode[id][cls] + jd->longofs[id][cls];	/* Code word table */
 8003b34:	eb05 0242 	add.w	r2, r5, r2, lsl #1
F:\AT32-workspace\AT32F403ACGU7_clone_windows_desktop_virtual_com_port\Release/../JPEG/tjpgd.c:753
	hb = jd->huffbits[id][cls] + HUFF_BIT;				/* Bit distribution table */
 8003b38:	f8de c024 	ldr.w	ip, [lr, #36]	; 0x24
F:\AT32-workspace\AT32F403ACGU7_clone_windows_desktop_virtual_com_port\Release/../JPEG/tjpgd.c:754
	hc = jd->huffcode[id][cls] + jd->longofs[id][cls];	/* Code word table */
 8003b3c:	f892 2066 	ldrb.w	r2, [r2, #102]	; 0x66
 8003b40:	f8de 6034 	ldr.w	r6, [lr, #52]	; 0x34
F:\AT32-workspace\AT32F403ACGU7_clone_windows_desktop_virtual_com_port\Release/../JPEG/tjpgd.c:755
	hd = jd->huffdata[id][cls] + jd->longofs[id][cls];	/* Data table */
 8003b44:	f8de e044 	ldr.w	lr, [lr, #68]	; 0x44
F:\AT32-workspace\AT32F403ACGU7_clone_windows_desktop_virtual_com_port\Release/../JPEG/tjpgd.c:754
	hc = jd->huffcode[id][cls] + jd->longofs[id][cls];	/* Code word table */
 8003b48:	eb06 0642 	add.w	r6, r6, r2, lsl #1
F:\AT32-workspace\AT32F403ACGU7_clone_windows_desktop_virtual_com_port\Release/../JPEG/tjpgd.c:755
	hd = jd->huffdata[id][cls] + jd->longofs[id][cls];	/* Data table */
 8003b4c:	4496      	add	lr, r2
 8003b4e:	f10c 0210 	add.w	r2, ip, #16
 8003b52:	9202      	str	r2, [sp, #8]
F:\AT32-workspace\AT32F403ACGU7_clone_windows_desktop_virtual_com_port\Release/../JPEG/tjpgd.c:767
			d = w >> (wbit - bl);
 8003b54:	eb03 020c 	add.w	r2, r3, ip
F:\AT32-workspace\AT32F403ACGU7_clone_windows_desktop_virtual_com_port\Release/../JPEG/tjpgd.c:753
	hb = jd->huffbits[id][cls] + HUFF_BIT;				/* Bit distribution table */
 8003b58:	f10c 080a 	add.w	r8, ip, #10
F:\AT32-workspace\AT32F403ACGU7_clone_windows_desktop_virtual_com_port\Release/../JPEG/tjpgd.c:764
	for ( ; bl <= 16; bl++) {	/* Incremental search */
 8003b5c:	f1cc 0a01 	rsb	sl, ip, #1
F:\AT32-workspace\AT32F403ACGU7_clone_windows_desktop_virtual_com_port\Release/../JPEG/tjpgd.c:767
			d = w >> (wbit - bl);
 8003b60:	9204      	str	r2, [sp, #16]
 8003b62:	468c      	mov	ip, r1
 8003b64:	4672      	mov	r2, lr
 8003b66:	eb08 030a 	add.w	r3, r8, sl
F:\AT32-workspace\AT32F403ACGU7_clone_windows_desktop_virtual_com_port\Release/../JPEG/tjpgd.c:765
		nc = *hb++;
 8003b6a:	f818 eb01 	ldrb.w	lr, [r8], #1
F:\AT32-workspace\AT32F403ACGU7_clone_windows_desktop_virtual_com_port\Release/../JPEG/tjpgd.c:766
		if (nc) {
 8003b6e:	f1be 0f00 	cmp.w	lr, #0
 8003b72:	d106      	bne.n	8003b82 <jd_decomp+0x4a2>
F:\AT32-workspace\AT32F403ACGU7_clone_windows_desktop_virtual_com_port\Release/../JPEG/tjpgd.c:764
	for ( ; bl <= 16; bl++) {	/* Incremental search */
 8003b74:	9b02      	ldr	r3, [sp, #8]
 8003b76:	4598      	cmp	r8, r3
 8003b78:	d1f5      	bne.n	8003b66 <jd_decomp+0x486>
 8003b7a:	2006      	movs	r0, #6
jd_decomp():
F:\AT32-workspace\AT32F403ACGU7_clone_windows_desktop_virtual_com_port\Release/../JPEG/tjpgd.c:1790
}
 8003b7c:	b01b      	add	sp, #108	; 0x6c
 8003b7e:	e8bd 8ff0 	ldmia.w	sp!, {r4, r5, r6, r7, r8, r9, sl, fp, pc}
huffext():
F:\AT32-workspace\AT32F403ACGU7_clone_windows_desktop_virtual_com_port\Release/../JPEG/tjpgd.c:767
			d = w >> (wbit - bl);
 8003b82:	9904      	ldr	r1, [sp, #16]
 8003b84:	eba1 0908 	sub.w	r9, r1, r8
F:\AT32-workspace\AT32F403ACGU7_clone_windows_desktop_virtual_com_port\Release/../JPEG/tjpgd.c:774
			} while (--nc);
 8003b88:	4496      	add	lr, r2
F:\AT32-workspace\AT32F403ACGU7_clone_windows_desktop_virtual_com_port\Release/../JPEG/tjpgd.c:767
			d = w >> (wbit - bl);
 8003b8a:	fa24 f909 	lsr.w	r9, r4, r9
 8003b8e:	4661      	mov	r1, ip
 8003b90:	e003      	b.n	8003b9a <jd_decomp+0x4ba>
F:\AT32-workspace\AT32F403ACGU7_clone_windows_desktop_virtual_com_port\Release/../JPEG/tjpgd.c:773
				hd++;
 8003b92:	3201      	adds	r2, #1
F:\AT32-workspace\AT32F403ACGU7_clone_windows_desktop_virtual_com_port\Release/../JPEG/tjpgd.c:774
			} while (--nc);
 8003b94:	4572      	cmp	r2, lr
 8003b96:	f000 819b 	beq.w	8003ed0 <jd_decomp+0x7f0>
F:\AT32-workspace\AT32F403ACGU7_clone_windows_desktop_virtual_com_port\Release/../JPEG/tjpgd.c:769
				if (d == *hc++) {		/* Matched? */
 8003b9a:	f836 cb02 	ldrh.w	ip, [r6], #2
 8003b9e:	45e1      	cmp	r9, ip
 8003ba0:	d1f7      	bne.n	8003b92 <jd_decomp+0x4b2>
F:\AT32-workspace\AT32F403ACGU7_clone_windows_desktop_virtual_com_port\Release/../JPEG/tjpgd.c:770
					jd->dbit = wbit - bl;	/* Snip the huffman code */
 8003ba2:	461e      	mov	r6, r3
 8003ba4:	9b06      	ldr	r3, [sp, #24]
 8003ba6:	1b9b      	subs	r3, r3, r6
 8003ba8:	732b      	strb	r3, [r5, #12]
F:\AT32-workspace\AT32F403ACGU7_clone_windows_desktop_virtual_com_port\Release/../JPEG/tjpgd.c:771
					return *hd;			/* Return the decoded data */
 8003baa:	7816      	ldrb	r6, [r2, #0]
mcu_load():
F:\AT32-workspace\AT32F403ACGU7_clone_windows_desktop_virtual_com_port\Release/../JPEG/tjpgd.c:1111
				if (d == 0) break;					/* EOB? */
 8003bac:	2e00      	cmp	r6, #0
 8003bae:	d18b      	bne.n	8003ac8 <jd_decomp+0x3e8>
F:\AT32-workspace\AT32F403ACGU7_clone_windows_desktop_virtual_com_port\Release/../JPEG/tjpgd.c:1126
			if ((jd->color_format != 2 && jd->color_format != 3) || !cmp) {	/* C components may not be processed if in grayscale output */
 8003bb0:	9b01      	ldr	r3, [sp, #4]
 8003bb2:	f893 3088 	ldrb.w	r3, [r3, #136]	; 0x88
 8003bb6:	3b02      	subs	r3, #2
 8003bb8:	2b01      	cmp	r3, #1
 8003bba:	f240 8261 	bls.w	8004080 <jd_decomp+0x9a0>
F:\AT32-workspace\AT32F403ACGU7_clone_windows_desktop_virtual_com_port\Release/../JPEG/tjpgd.c:1127
				if (z == 1 || (JD_USE_SCALE && jd->scale == 3)) {	/* If no AC element or scale ratio is 1/8, IDCT can be ommited and the block is filled with DC value */
 8003bbe:	f1bb 0f01 	cmp.w	fp, #1
 8003bc2:	f040 808c 	bne.w	8003cde <jd_decomp+0x5fe>
F:\AT32-workspace\AT32F403ACGU7_clone_windows_desktop_virtual_com_port\Release/../JPEG/tjpgd.c:1128
					d = (jd_yuv_t)((*tmp / 256) + 128);
 8003bc6:	9b07      	ldr	r3, [sp, #28]
memset_32():
F:\AT32-workspace\AT32F403ACGU7_clone_windows_desktop_virtual_com_port\Release/../JPEG/tjpgd.c:152
	asm volatile (	"orrs	%[size], %[size]\n\t"
 8003bc8:	990c      	ldr	r1, [sp, #48]	; 0x30
mcu_load():
F:\AT32-workspace\AT32F403ACGU7_clone_windows_desktop_virtual_com_port\Release/../JPEG/tjpgd.c:1128
					d = (jd_yuv_t)((*tmp / 256) + 128);
 8003bca:	681b      	ldr	r3, [r3, #0]
 8003bcc:	2b00      	cmp	r3, #0
 8003bce:	bfb8      	it	lt
 8003bd0:	33ff      	addlt	r3, #255	; 0xff
 8003bd2:	121b      	asrs	r3, r3, #8
 8003bd4:	3380      	adds	r3, #128	; 0x80
 8003bd6:	b21a      	sxth	r2, r3
F:\AT32-workspace\AT32F403ACGU7_clone_windows_desktop_virtual_com_port\Release/../JPEG/tjpgd.c:1133
						memset_32(bp, (d << 16) | d, 64/2); //вариант оптимизации
 8003bd8:	ea42 4203 	orr.w	r2, r2, r3, lsl #16
memset_32():
F:\AT32-workspace\AT32F403ACGU7_clone_windows_desktop_virtual_com_port\Release/../JPEG/tjpgd.c:152
	asm volatile (	"orrs	%[size], %[size]\n\t"
 8003bdc:	2320      	movs	r3, #32
 8003bde:	431b      	orrs	r3, r3
 8003be0:	d003      	beq.n	8003bea <jd_decomp+0x50a>
 8003be2:	f841 2b04 	str.w	r2, [r1], #4
 8003be6:	3b01      	subs	r3, #1
 8003be8:	d1fb      	bne.n	8003be2 <jd_decomp+0x502>
F:\AT32-workspace\AT32F403ACGU7_clone_windows_desktop_virtual_com_port\Release/../JPEG/tjpgd.c:161
}
 8003bea:	e5cd      	b.n	8003788 <jd_decomp+0xa8>
huffext():
F:\AT32-workspace\AT32F403ACGU7_clone_windows_desktop_virtual_com_port\Release/../JPEG/tjpgd.c:724
				if (d == 0xFF) {		/* Is start of flag sequence? */
 8003bec:	2bff      	cmp	r3, #255	; 0xff
 8003bee:	f47f aed2 	bne.w	8003996 <jd_decomp+0x2b6>
F:\AT32-workspace\AT32F403ACGU7_clone_windows_desktop_virtual_com_port\Release/../JPEG/tjpgd.c:725
					flg = 1; continue;	/* Enter flag sequence, get trailing byte */
 8003bf2:	2601      	movs	r6, #1
 8003bf4:	e6b3      	b.n	800395e <jd_decomp+0x27e>
bitext():
F:\AT32-workspace\AT32F403ACGU7_clone_windows_desktop_virtual_com_port\Release/../JPEG/tjpgd.c:833
	unsigned int wbit = jd->dbit % 32;
 8003bf6:	f895 800c 	ldrb.w	r8, [r5, #12]
F:\AT32-workspace\AT32F403ACGU7_clone_windows_desktop_virtual_com_port\Release/../JPEG/tjpgd.c:834
	uint32_t w = jd->wreg & ((1UL << wbit) - 1);
 8003bfa:	f04f 33ff 	mov.w	r3, #4294967295
 8003bfe:	f008 081f 	and.w	r8, r8, #31
 8003c02:	fa03 f308 	lsl.w	r3, r3, r8
F:\AT32-workspace\AT32F403ACGU7_clone_windows_desktop_virtual_com_port\Release/../JPEG/tjpgd.c:837
	while (wbit < nbit) {	/* Prepare nbit bits into the working register */
 8003c06:	4546      	cmp	r6, r8
F:\AT32-workspace\AT32F403ACGU7_clone_windows_desktop_virtual_com_port\Release/../JPEG/tjpgd.c:834
	uint32_t w = jd->wreg & ((1UL << wbit) - 1);
 8003c08:	ea24 0403 	bic.w	r4, r4, r3
F:\AT32-workspace\AT32F403ACGU7_clone_windows_desktop_virtual_com_port\Release/../JPEG/tjpgd.c:837
	while (wbit < nbit) {	/* Prepare nbit bits into the working register */
 8003c0c:	d824      	bhi.n	8003c58 <jd_decomp+0x578>
 8003c0e:	e226      	b.n	800405e <jd_decomp+0x97e>
F:\AT32-workspace\AT32F403ACGU7_clone_windows_desktop_virtual_com_port\Release/../JPEG/tjpgd.c:841
			if (!dc) {	/* Buffer empty, re-fill input buffer */
 8003c10:	2800      	cmp	r0, #0
 8003c12:	f040 8145 	bne.w	8003ea0 <jd_decomp+0x7c0>
F:\AT32-workspace\AT32F403ACGU7_clone_windows_desktop_virtual_com_port\Release/../JPEG/tjpgd.c:842
				dp = jd->inbuf;	/* Top of input buffer */
 8003c16:	f8d5 b008 	ldr.w	fp, [r5, #8]
F:\AT32-workspace\AT32F403ACGU7_clone_windows_desktop_virtual_com_port\Release/../JPEG/tjpgd.c:843
				dc = jd->infunc(jd, dp, JD_SZBUF);
 8003c1a:	f8d5 3098 	ldr.w	r3, [r5, #152]	; 0x98
 8003c1e:	f44f 6280 	mov.w	r2, #1024	; 0x400
 8003c22:	4659      	mov	r1, fp
 8003c24:	4628      	mov	r0, r5
 8003c26:	4798      	blx	r3
F:\AT32-workspace\AT32F403ACGU7_clone_windows_desktop_virtual_com_port\Release/../JPEG/tjpgd.c:844
				if (!dc) return 0 - (int)JDR_INP;	/* Err: read error or wrong stream termination */
 8003c28:	2800      	cmp	r0, #0
 8003c2a:	f000 814d 	beq.w	8003ec8 <jd_decomp+0x7e8>
F:\AT32-workspace\AT32F403ACGU7_clone_windows_desktop_virtual_com_port\Release/../JPEG/tjpgd.c:846
			d = *dp++; dc--;
 8003c2e:	4659      	mov	r1, fp
 8003c30:	3801      	subs	r0, #1
 8003c32:	f811 3b01 	ldrb.w	r3, [r1], #1
F:\AT32-workspace\AT32F403ACGU7_clone_windows_desktop_virtual_com_port\Release/../JPEG/tjpgd.c:847
			if (flg) {		/* In flag sequence? */
 8003c36:	f1b9 0f00 	cmp.w	r9, #0
 8003c3a:	f000 813a 	beq.w	8003eb2 <jd_decomp+0x7d2>
F:\AT32-workspace\AT32F403ACGU7_clone_windows_desktop_virtual_com_port\Release/../JPEG/tjpgd.c:849
				if (d != 0) jd->marker = d;	/* Not an escape of 0xFF but a marker */
 8003c3e:	2b00      	cmp	r3, #0
 8003c40:	f000 8140 	beq.w	8003ec4 <jd_decomp+0x7e4>
 8003c44:	f885 3064 	strb.w	r3, [r5, #100]	; 0x64
F:\AT32-workspace\AT32F403ACGU7_clone_windows_desktop_virtual_com_port\Release/../JPEG/tjpgd.c:850
				d = 0xFF;
 8003c48:	23ff      	movs	r3, #255	; 0xff
F:\AT32-workspace\AT32F403ACGU7_clone_windows_desktop_virtual_com_port\Release/../JPEG/tjpgd.c:858
		wbit += 8;
 8003c4a:	f108 0808 	add.w	r8, r8, #8
F:\AT32-workspace\AT32F403ACGU7_clone_windows_desktop_virtual_com_port\Release/../JPEG/tjpgd.c:837
	while (wbit < nbit) {	/* Prepare nbit bits into the working register */
 8003c4e:	4546      	cmp	r6, r8
F:\AT32-workspace\AT32F403ACGU7_clone_windows_desktop_virtual_com_port\Release/../JPEG/tjpgd.c:857
		w = w << 8 | d;	/* Get 8 bits into the working register */
 8003c50:	ea43 2404 	orr.w	r4, r3, r4, lsl #8
F:\AT32-workspace\AT32F403ACGU7_clone_windows_desktop_virtual_com_port\Release/../JPEG/tjpgd.c:837
	while (wbit < nbit) {	/* Prepare nbit bits into the working register */
 8003c54:	f240 8212 	bls.w	800407c <jd_decomp+0x99c>
F:\AT32-workspace\AT32F403ACGU7_clone_windows_desktop_virtual_com_port\Release/../JPEG/tjpgd.c:796
	unsigned int d, flg = 0;
 8003c58:	f04f 0900 	mov.w	r9, #0
F:\AT32-workspace\AT32F403ACGU7_clone_windows_desktop_virtual_com_port\Release/../JPEG/tjpgd.c:838
		if (jd->marker) {
 8003c5c:	f895 3064 	ldrb.w	r3, [r5, #100]	; 0x64
 8003c60:	2b00      	cmp	r3, #0
 8003c62:	d0d5      	beq.n	8003c10 <jd_decomp+0x530>
F:\AT32-workspace\AT32F403ACGU7_clone_windows_desktop_virtual_com_port\Release/../JPEG/tjpgd.c:858
		wbit += 8;
 8003c64:	f108 0308 	add.w	r3, r8, #8
F:\AT32-workspace\AT32F403ACGU7_clone_windows_desktop_virtual_com_port\Release/../JPEG/tjpgd.c:857
		w = w << 8 | d;	/* Get 8 bits into the working register */
 8003c68:	0224      	lsls	r4, r4, #8
F:\AT32-workspace\AT32F403ACGU7_clone_windows_desktop_virtual_com_port\Release/../JPEG/tjpgd.c:837
	while (wbit < nbit) {	/* Prepare nbit bits into the working register */
 8003c6a:	429e      	cmp	r6, r3
F:\AT32-workspace\AT32F403ACGU7_clone_windows_desktop_virtual_com_port\Release/../JPEG/tjpgd.c:857
		w = w << 8 | d;	/* Get 8 bits into the working register */
 8003c6c:	f044 04ff 	orr.w	r4, r4, #255	; 0xff
F:\AT32-workspace\AT32F403ACGU7_clone_windows_desktop_virtual_com_port\Release/../JPEG/tjpgd.c:837
	while (wbit < nbit) {	/* Prepare nbit bits into the working register */
 8003c70:	d904      	bls.n	8003c7c <jd_decomp+0x59c>
F:\AT32-workspace\AT32F403ACGU7_clone_windows_desktop_virtual_com_port\Release/../JPEG/tjpgd.c:857
		w = w << 8 | d;	/* Get 8 bits into the working register */
 8003c72:	0224      	lsls	r4, r4, #8
 8003c74:	f044 04ff 	orr.w	r4, r4, #255	; 0xff
F:\AT32-workspace\AT32F403ACGU7_clone_windows_desktop_virtual_com_port\Release/../JPEG/tjpgd.c:858
		wbit += 8;
 8003c78:	f108 0310 	add.w	r3, r8, #16
F:\AT32-workspace\AT32F403ACGU7_clone_windows_desktop_virtual_com_port\Release/../JPEG/tjpgd.c:860
	jd->wreg = w; jd->dbit = wbit - nbit;
 8003c7c:	1b9b      	subs	r3, r3, r6
 8003c7e:	732b      	strb	r3, [r5, #12]
F:\AT32-workspace\AT32F403ACGU7_clone_windows_desktop_virtual_com_port\Release/../JPEG/tjpgd.c:863
	return (int)(w >> ((wbit - nbit) % 32));
 8003c80:	f003 031f 	and.w	r3, r3, #31
F:\AT32-workspace\AT32F403ACGU7_clone_windows_desktop_virtual_com_port\Release/../JPEG/tjpgd.c:860
	jd->wreg = w; jd->dbit = wbit - nbit;
 8003c84:	662c      	str	r4, [r5, #96]	; 0x60
F:\AT32-workspace\AT32F403ACGU7_clone_windows_desktop_virtual_com_port\Release/../JPEG/tjpgd.c:863
	return (int)(w >> ((wbit - nbit) % 32));
 8003c86:	40dc      	lsrs	r4, r3
mcu_load():
F:\AT32-workspace\AT32F403ACGU7_clone_windows_desktop_virtual_com_port\Release/../JPEG/tjpgd.c:1118
					if (d < 0) return (JRESULT)(0 - d);	/* Err: input device */
 8003c88:	2c00      	cmp	r4, #0
bitext():
F:\AT32-workspace\AT32F403ACGU7_clone_windows_desktop_virtual_com_port\Release/../JPEG/tjpgd.c:861
	jd->dctr = dc; jd->dptr = dp;
 8003c8a:	e9c5 0100 	strd	r0, r1, [r5]
F:\AT32-workspace\AT32F403ACGU7_clone_windows_desktop_virtual_com_port\Release/../JPEG/tjpgd.c:863
	return (int)(w >> ((wbit - nbit) % 32));
 8003c8e:	4621      	mov	r1, r4
mcu_load():
F:\AT32-workspace\AT32F403ACGU7_clone_windows_desktop_virtual_com_port\Release/../JPEG/tjpgd.c:1118
					if (d < 0) return (JRESULT)(0 - d);	/* Err: input device */
 8003c90:	f2c0 847b 	blt.w	800458a <jd_decomp+0xeaa>
F:\AT32-workspace\AT32F403ACGU7_clone_windows_desktop_virtual_com_port\Release/../JPEG/tjpgd.c:1119
					bc = 1 << (bc - 1);				/* MSB position */
 8003c94:	3e01      	subs	r6, #1
 8003c96:	2301      	movs	r3, #1
 8003c98:	40b3      	lsls	r3, r6
F:\AT32-workspace\AT32F403ACGU7_clone_windows_desktop_virtual_com_port\Release/../JPEG/tjpgd.c:1120
					if (!(d & bc)) d -= (bc << 1) - 1;	/* Restore negative value if needed */
 8003c9a:	4223      	tst	r3, r4
 8003c9c:	d103      	bne.n	8003ca6 <jd_decomp+0x5c6>
 8003c9e:	005b      	lsls	r3, r3, #1
 8003ca0:	f1c3 0301 	rsb	r3, r3, #1
 8003ca4:	1919      	adds	r1, r3, r4
F:\AT32-workspace\AT32F403ACGU7_clone_windows_desktop_virtual_com_port\Release/../JPEG/tjpgd.c:1122
					tmp[i] = d * dqf[i] >> 8;		/* De-quantize, apply scale factor of Arai algorithm and descale 8 bits */
 8003ca6:	4ba7      	ldr	r3, [pc, #668]	; (8003f44 <jd_decomp+0x864>)
 8003ca8:	f813 200a 	ldrb.w	r2, [r3, sl]
 8003cac:	9b08      	ldr	r3, [sp, #32]
 8003cae:	f853 3022 	ldr.w	r3, [r3, r2, lsl #2]
 8003cb2:	fb01 f303 	mul.w	r3, r1, r3
 8003cb6:	9907      	ldr	r1, [sp, #28]
 8003cb8:	121b      	asrs	r3, r3, #8
F:\AT32-workspace\AT32F403ACGU7_clone_windows_desktop_virtual_com_port\Release/../JPEG/tjpgd.c:1124
			} while (++z < 64);		/* Next AC element */
 8003cba:	f1ba 0f3f 	cmp.w	sl, #63	; 0x3f
F:\AT32-workspace\AT32F403ACGU7_clone_windows_desktop_virtual_com_port\Release/../JPEG/tjpgd.c:1122
					tmp[i] = d * dqf[i] >> 8;		/* De-quantize, apply scale factor of Arai algorithm and descale 8 bits */
 8003cbe:	f841 3022 	str.w	r3, [r1, r2, lsl #2]
F:\AT32-workspace\AT32F403ACGU7_clone_windows_desktop_virtual_com_port\Release/../JPEG/tjpgd.c:1124
			} while (++z < 64);		/* Next AC element */
 8003cc2:	f10a 0b01 	add.w	fp, sl, #1
 8003cc6:	f47f af0e 	bne.w	8003ae6 <jd_decomp+0x406>
F:\AT32-workspace\AT32F403ACGU7_clone_windows_desktop_virtual_com_port\Release/../JPEG/tjpgd.c:1126
			if ((jd->color_format != 2 && jd->color_format != 3) || !cmp) {	/* C components may not be processed if in grayscale output */
 8003cca:	9b01      	ldr	r3, [sp, #4]
 8003ccc:	f893 3088 	ldrb.w	r3, [r3, #136]	; 0x88
 8003cd0:	3b02      	subs	r3, #2
 8003cd2:	2b01      	cmp	r3, #1
 8003cd4:	d803      	bhi.n	8003cde <jd_decomp+0x5fe>
 8003cd6:	9b09      	ldr	r3, [sp, #36]	; 0x24
 8003cd8:	2b00      	cmp	r3, #0
 8003cda:	f47f ad55 	bne.w	8003788 <jd_decomp+0xa8>
F:\AT32-workspace\AT32F403ACGU7_clone_windows_desktop_virtual_com_port\Release/../JPEG/tjpgd.c:1127
				if (z == 1 || (JD_USE_SCALE && jd->scale == 3)) {	/* If no AC element or scale ratio is 1/8, IDCT can be ommited and the block is filled with DC value */
 8003cde:	9b01      	ldr	r3, [sp, #4]
 8003ce0:	7b5b      	ldrb	r3, [r3, #13]
 8003ce2:	2b03      	cmp	r3, #3
 8003ce4:	f43f af6f 	beq.w	8003bc6 <jd_decomp+0x4e6>
block_idct():
F:\AT32-workspace\AT32F403ACGU7_clone_windows_desktop_virtual_com_port\Release/../JPEG/tjpgd.c:247
	asm volatile(	"mov	r12, #8					\n\t"	//r12 = 8
 8003ce8:	9907      	ldr	r1, [sp, #28]
 8003cea:	980c      	ldr	r0, [sp, #48]	; 0x30
 8003cec:	f04f 0c08 	mov.w	ip, #8
 8003cf0:	f851 2b04 	ldr.w	r2, [r1], #4
 8003cf4:	6bcb      	ldr	r3, [r1, #60]	; 0x3c
 8003cf6:	6fcc      	ldr	r4, [r1, #124]	; 0x7c
 8003cf8:	f8d1 50bc 	ldr.w	r5, [r1, #188]	; 0xbc
 8003cfc:	f44f 5eb5 	mov.w	lr, #5792	; 0x16a0
 8003d00:	1b5e      	subs	r6, r3, r5
 8003d02:	fb0e f606 	mul.w	r6, lr, r6
 8003d06:	18ed      	adds	r5, r5, r3
 8003d08:	ebc5 3626 	rsb	r6, r5, r6, asr #12
 8003d0c:	1b17      	subs	r7, r2, r4
 8003d0e:	19f3      	adds	r3, r6, r7
 8003d10:	eb02 0804 	add.w	r8, r2, r4
 8003d14:	1bbc      	subs	r4, r7, r6
 8003d16:	eb08 0205 	add.w	r2, r8, r5
 8003d1a:	eba8 0505 	sub.w	r5, r8, r5
 8003d1e:	f8d1 60dc 	ldr.w	r6, [r1, #220]	; 0xdc
 8003d22:	69cf      	ldr	r7, [r1, #28]
 8003d24:	f8d1 809c 	ldr.w	r8, [r1, #156]	; 0x9c
 8003d28:	f8d1 905c 	ldr.w	r9, [r1, #92]	; 0x5c
 8003d2c:	eb07 0a06 	add.w	sl, r7, r6
 8003d30:	eb09 0e08 	add.w	lr, r9, r8
 8003d34:	eb0e 0b0a 	add.w	fp, lr, sl
 8003d38:	ebaa 0a0e 	sub.w	sl, sl, lr
 8003d3c:	eb02 0e0b 	add.w	lr, r2, fp
 8003d40:	f841 ec04 	str.w	lr, [r1, #-4]
 8003d44:	eba2 020b 	sub.w	r2, r2, fp
 8003d48:	f8c1 20dc 	str.w	r2, [r1, #220]	; 0xdc
 8003d4c:	f44f 52b5 	mov.w	r2, #5792	; 0x16a0
 8003d50:	fb02 fe0a 	mul.w	lr, r2, sl
 8003d54:	eba7 0a06 	sub.w	sl, r7, r6
 8003d58:	eba8 0909 	sub.w	r9, r8, r9
 8003d5c:	eb0a 0609 	add.w	r6, sl, r9
 8003d60:	f641 5290 	movw	r2, #7568	; 0x1d90
 8003d64:	fb02 f606 	mul.w	r6, r2, r6
 8003d68:	1336      	asrs	r6, r6, #12
 8003d6a:	f642 12cf 	movw	r2, #10703	; 0x29cf
 8003d6e:	fb02 f209 	mul.w	r2, r2, r9
 8003d72:	eba6 3822 	sub.w	r8, r6, r2, asr #12
 8003d76:	eba8 080b 	sub.w	r8, r8, fp
 8003d7a:	ebc8 372e 	rsb	r7, r8, lr, asr #12
 8003d7e:	f241 1251 	movw	r2, #4433	; 0x1151
 8003d82:	fb02 f20a 	mul.w	r2, r2, sl
 8003d86:	eba6 3622 	sub.w	r6, r6, r2, asr #12
 8003d8a:	1bf6      	subs	r6, r6, r7
 8003d8c:	eb03 0208 	add.w	r2, r3, r8
 8003d90:	61ca      	str	r2, [r1, #28]
 8003d92:	eba3 0208 	sub.w	r2, r3, r8
 8003d96:	f8c1 20bc 	str.w	r2, [r1, #188]	; 0xbc
 8003d9a:	19e2      	adds	r2, r4, r7
 8003d9c:	63ca      	str	r2, [r1, #60]	; 0x3c
 8003d9e:	1be2      	subs	r2, r4, r7
 8003da0:	f8c1 209c 	str.w	r2, [r1, #156]	; 0x9c
 8003da4:	19aa      	adds	r2, r5, r6
 8003da6:	65ca      	str	r2, [r1, #92]	; 0x5c
 8003da8:	1baa      	subs	r2, r5, r6
 8003daa:	67ca      	str	r2, [r1, #124]	; 0x7c
 8003dac:	f1bc 0c01 	subs.w	ip, ip, #1
 8003db0:	d19e      	bne.n	8003cf0 <jd_decomp+0x610>
 8003db2:	f04f 0c08 	mov.w	ip, #8
 8003db6:	3920      	subs	r1, #32
 8003db8:	f851 2b20 	ldr.w	r2, [r1], #32
 8003dbc:	f851 3c18 	ldr.w	r3, [r1, #-24]
 8003dc0:	f851 4c10 	ldr.w	r4, [r1, #-16]
 8003dc4:	f851 5c08 	ldr.w	r5, [r1, #-8]
 8003dc8:	f502 4200 	add.w	r2, r2, #32768	; 0x8000
 8003dcc:	f44f 5eb5 	mov.w	lr, #5792	; 0x16a0
 8003dd0:	1b5e      	subs	r6, r3, r5
 8003dd2:	fb0e f606 	mul.w	r6, lr, r6
 8003dd6:	18ed      	adds	r5, r5, r3
 8003dd8:	ebc5 3626 	rsb	r6, r5, r6, asr #12
 8003ddc:	1b17      	subs	r7, r2, r4
 8003dde:	19f3      	adds	r3, r6, r7
 8003de0:	eb02 0804 	add.w	r8, r2, r4
 8003de4:	1bbc      	subs	r4, r7, r6
 8003de6:	eb08 0205 	add.w	r2, r8, r5
 8003dea:	eba8 0505 	sub.w	r5, r8, r5
 8003dee:	f851 6c04 	ldr.w	r6, [r1, #-4]
 8003df2:	f851 7c1c 	ldr.w	r7, [r1, #-28]
 8003df6:	f851 8c0c 	ldr.w	r8, [r1, #-12]
 8003dfa:	f851 9c14 	ldr.w	r9, [r1, #-20]
 8003dfe:	eb07 0a06 	add.w	sl, r7, r6
 8003e02:	eb09 0e08 	add.w	lr, r9, r8
 8003e06:	eb0e 0b0a 	add.w	fp, lr, sl
 8003e0a:	ebaa 0a0e 	sub.w	sl, sl, lr
 8003e0e:	eb02 0e0b 	add.w	lr, r2, fp
 8003e12:	ea4f 2e2e 	mov.w	lr, lr, asr #8
 8003e16:	f820 eb10 	strh.w	lr, [r0], #16
 8003e1a:	eba2 020b 	sub.w	r2, r2, fp
 8003e1e:	1212      	asrs	r2, r2, #8
 8003e20:	f820 2c02 	strh.w	r2, [r0, #-2]
 8003e24:	f44f 52b5 	mov.w	r2, #5792	; 0x16a0
 8003e28:	fb02 fe0a 	mul.w	lr, r2, sl
 8003e2c:	eba7 0a06 	sub.w	sl, r7, r6
 8003e30:	eba8 0909 	sub.w	r9, r8, r9
 8003e34:	eb0a 0609 	add.w	r6, sl, r9
 8003e38:	f641 5290 	movw	r2, #7568	; 0x1d90
 8003e3c:	fb02 f606 	mul.w	r6, r2, r6
 8003e40:	1336      	asrs	r6, r6, #12
 8003e42:	f642 12cf 	movw	r2, #10703	; 0x29cf
 8003e46:	fb02 f209 	mul.w	r2, r2, r9
 8003e4a:	eba6 3822 	sub.w	r8, r6, r2, asr #12
 8003e4e:	eba8 080b 	sub.w	r8, r8, fp
 8003e52:	ebc8 372e 	rsb	r7, r8, lr, asr #12
 8003e56:	f241 1251 	movw	r2, #4433	; 0x1151
 8003e5a:	fb02 f20a 	mul.w	r2, r2, sl
 8003e5e:	eba6 3622 	sub.w	r6, r6, r2, asr #12
 8003e62:	1bf6      	subs	r6, r6, r7
 8003e64:	eb03 0208 	add.w	r2, r3, r8
 8003e68:	1212      	asrs	r2, r2, #8
 8003e6a:	f820 2c0e 	strh.w	r2, [r0, #-14]
 8003e6e:	eba3 0208 	sub.w	r2, r3, r8
 8003e72:	1212      	asrs	r2, r2, #8
 8003e74:	f820 2c04 	strh.w	r2, [r0, #-4]
 8003e78:	19e2      	adds	r2, r4, r7
 8003e7a:	1212      	asrs	r2, r2, #8
 8003e7c:	f820 2c0c 	strh.w	r2, [r0, #-12]
 8003e80:	1be2      	subs	r2, r4, r7
 8003e82:	1212      	asrs	r2, r2, #8
 8003e84:	f820 2c06 	strh.w	r2, [r0, #-6]
 8003e88:	19aa      	adds	r2, r5, r6
 8003e8a:	1212      	asrs	r2, r2, #8
 8003e8c:	f820 2c0a 	strh.w	r2, [r0, #-10]
 8003e90:	1baa      	subs	r2, r5, r6
 8003e92:	1212      	asrs	r2, r2, #8
 8003e94:	f820 2c08 	strh.w	r2, [r0, #-8]
 8003e98:	f1bc 0c01 	subs.w	ip, ip, #1
 8003e9c:	d18c      	bne.n	8003db8 <jd_decomp+0x6d8>
F:\AT32-workspace\AT32F403ACGU7_clone_windows_desktop_virtual_com_port\Release/../JPEG/tjpgd.c:380
}
 8003e9e:	e473      	b.n	8003788 <jd_decomp+0xa8>
bitext():
F:\AT32-workspace\AT32F403ACGU7_clone_windows_desktop_virtual_com_port\Release/../JPEG/tjpgd.c:380
 8003ea0:	468b      	mov	fp, r1
F:\AT32-workspace\AT32F403ACGU7_clone_windows_desktop_virtual_com_port\Release/../JPEG/tjpgd.c:846
			d = *dp++; dc--;
 8003ea2:	4659      	mov	r1, fp
 8003ea4:	3801      	subs	r0, #1
 8003ea6:	f811 3b01 	ldrb.w	r3, [r1], #1
F:\AT32-workspace\AT32F403ACGU7_clone_windows_desktop_virtual_com_port\Release/../JPEG/tjpgd.c:847
			if (flg) {		/* In flag sequence? */
 8003eaa:	f1b9 0f00 	cmp.w	r9, #0
 8003eae:	f47f aec6 	bne.w	8003c3e <jd_decomp+0x55e>
F:\AT32-workspace\AT32F403ACGU7_clone_windows_desktop_virtual_com_port\Release/../JPEG/tjpgd.c:852
				if (d == 0xFF) {		/* Is start of flag sequence? */
 8003eb2:	2bff      	cmp	r3, #255	; 0xff
 8003eb4:	f47f aec9 	bne.w	8003c4a <jd_decomp+0x56a>
F:\AT32-workspace\AT32F403ACGU7_clone_windows_desktop_virtual_com_port\Release/../JPEG/tjpgd.c:837
	while (wbit < nbit) {	/* Prepare nbit bits into the working register */
 8003eb8:	4546      	cmp	r6, r8
 8003eba:	f240 80df 	bls.w	800407c <jd_decomp+0x99c>
F:\AT32-workspace\AT32F403ACGU7_clone_windows_desktop_virtual_com_port\Release/../JPEG/tjpgd.c:853
					flg = 1; continue;	/* Enter flag sequence, get trailing byte */
 8003ebe:	f04f 0901 	mov.w	r9, #1
 8003ec2:	e6cb      	b.n	8003c5c <jd_decomp+0x57c>
F:\AT32-workspace\AT32F403ACGU7_clone_windows_desktop_virtual_com_port\Release/../JPEG/tjpgd.c:850
				d = 0xFF;
 8003ec4:	23ff      	movs	r3, #255	; 0xff
 8003ec6:	e6c0      	b.n	8003c4a <jd_decomp+0x56a>
huffext():
F:\AT32-workspace\AT32F403ACGU7_clone_windows_desktop_virtual_com_port\Release/../JPEG/tjpgd.c:850
 8003ec8:	2002      	movs	r0, #2
jd_decomp():
F:\AT32-workspace\AT32F403ACGU7_clone_windows_desktop_virtual_com_port\Release/../JPEG/tjpgd.c:1790
}
 8003eca:	b01b      	add	sp, #108	; 0x6c
 8003ecc:	e8bd 8ff0 	ldmia.w	sp!, {r4, r5, r6, r7, r8, r9, sl, fp, pc}
huffext():
F:\AT32-workspace\AT32F403ACGU7_clone_windows_desktop_virtual_com_port\Release/../JPEG/tjpgd.c:773
				hd++;
 8003ed0:	468c      	mov	ip, r1
 8003ed2:	e64f      	b.n	8003b74 <jd_decomp+0x494>
F:\AT32-workspace\AT32F403ACGU7_clone_windows_desktop_virtual_com_port\Release/../JPEG/tjpgd.c:730
		wbit += 8;
 8003ed4:	3508      	adds	r5, #8
F:\AT32-workspace\AT32F403ACGU7_clone_windows_desktop_virtual_com_port\Release/../JPEG/tjpgd.c:722
				d = 0xFF;
 8003ed6:	23ff      	movs	r3, #255	; 0xff
F:\AT32-workspace\AT32F403ACGU7_clone_windows_desktop_virtual_com_port\Release/../JPEG/tjpgd.c:709
	while (wbit < 16) {	/* Prepare 16 bits into the working register */
 8003ed8:	2d0f      	cmp	r5, #15
F:\AT32-workspace\AT32F403ACGU7_clone_windows_desktop_virtual_com_port\Release/../JPEG/tjpgd.c:729
		w = w << 8 | d;	/* Shift 8 bits in the working register */
 8003eda:	ea43 2404 	orr.w	r4, r3, r4, lsl #8
F:\AT32-workspace\AT32F403ACGU7_clone_windows_desktop_virtual_com_port\Release/../JPEG/tjpgd.c:709
	while (wbit < 16) {	/* Prepare 16 bits into the working register */
 8003ede:	f67f ad60 	bls.w	80039a2 <jd_decomp+0x2c2>
 8003ee2:	462b      	mov	r3, r5
 8003ee4:	e56e      	b.n	80039c4 <jd_decomp+0x2e4>
 8003ee6:	4633      	mov	r3, r6
 8003ee8:	e5d9      	b.n	8003a9e <jd_decomp+0x3be>
F:\AT32-workspace\AT32F403ACGU7_clone_windows_desktop_virtual_com_port\Release/../JPEG/tjpgd.c:753
	hb = jd->huffbits[id][cls] + HUFF_BIT;				/* Bit distribution table */
 8003eea:	4629      	mov	r1, r5
 8003eec:	9d05      	ldr	r5, [sp, #20]
 8003eee:	eb01 02c5 	add.w	r2, r1, r5, lsl #3
F:\AT32-workspace\AT32F403ACGU7_clone_windows_desktop_virtual_com_port\Release/../JPEG/tjpgd.c:754
	hc = jd->huffcode[id][cls] + jd->longofs[id][cls];	/* Code word table */
 8003ef2:	eb01 0145 	add.w	r1, r1, r5, lsl #1
 8003ef6:	6b15      	ldr	r5, [r2, #48]	; 0x30
 8003ef8:	f891 6065 	ldrb.w	r6, [r1, #101]	; 0x65
F:\AT32-workspace\AT32F403ACGU7_clone_windows_desktop_virtual_com_port\Release/../JPEG/tjpgd.c:753
	hb = jd->huffbits[id][cls] + HUFF_BIT;				/* Bit distribution table */
 8003efc:	6a11      	ldr	r1, [r2, #32]
F:\AT32-workspace\AT32F403ACGU7_clone_windows_desktop_virtual_com_port\Release/../JPEG/tjpgd.c:755
	hd = jd->huffdata[id][cls] + jd->longofs[id][cls];	/* Data table */
 8003efe:	6c12      	ldr	r2, [r2, #64]	; 0x40
F:\AT32-workspace\AT32F403ACGU7_clone_windows_desktop_virtual_com_port\Release/../JPEG/tjpgd.c:753
	hb = jd->huffbits[id][cls] + HUFF_BIT;				/* Bit distribution table */
 8003f00:	f101 0e0a 	add.w	lr, r1, #10
F:\AT32-workspace\AT32F403ACGU7_clone_windows_desktop_virtual_com_port\Release/../JPEG/tjpgd.c:754
	hc = jd->huffcode[id][cls] + jd->longofs[id][cls];	/* Code word table */
 8003f04:	f1c1 0901 	rsb	r9, r1, #1
 8003f08:	f101 0b10 	add.w	fp, r1, #16
F:\AT32-workspace\AT32F403ACGU7_clone_windows_desktop_virtual_com_port\Release/../JPEG/tjpgd.c:767
			d = w >> (wbit - bl);
 8003f0c:	1859      	adds	r1, r3, r1
F:\AT32-workspace\AT32F403ACGU7_clone_windows_desktop_virtual_com_port\Release/../JPEG/tjpgd.c:754
	hc = jd->huffcode[id][cls] + jd->longofs[id][cls];	/* Code word table */
 8003f0e:	eb05 0546 	add.w	r5, r5, r6, lsl #1
F:\AT32-workspace\AT32F403ACGU7_clone_windows_desktop_virtual_com_port\Release/../JPEG/tjpgd.c:755
	hd = jd->huffdata[id][cls] + jd->longofs[id][cls];	/* Data table */
 8003f12:	4432      	add	r2, r6
F:\AT32-workspace\AT32F403ACGU7_clone_windows_desktop_virtual_com_port\Release/../JPEG/tjpgd.c:767
			d = w >> (wbit - bl);
 8003f14:	9102      	str	r1, [sp, #8]
 8003f16:	eb0e 0109 	add.w	r1, lr, r9
F:\AT32-workspace\AT32F403ACGU7_clone_windows_desktop_virtual_com_port\Release/../JPEG/tjpgd.c:765
		nc = *hb++;
 8003f1a:	f81e 6b01 	ldrb.w	r6, [lr], #1
F:\AT32-workspace\AT32F403ACGU7_clone_windows_desktop_virtual_com_port\Release/../JPEG/tjpgd.c:766
		if (nc) {
 8003f1e:	b946      	cbnz	r6, 8003f32 <jd_decomp+0x852>
F:\AT32-workspace\AT32F403ACGU7_clone_windows_desktop_virtual_com_port\Release/../JPEG/tjpgd.c:764
	for ( ; bl <= 16; bl++) {	/* Incremental search */
 8003f20:	45de      	cmp	lr, fp
 8003f22:	f43f ae2a 	beq.w	8003b7a <jd_decomp+0x49a>
 8003f26:	eb0e 0109 	add.w	r1, lr, r9
F:\AT32-workspace\AT32F403ACGU7_clone_windows_desktop_virtual_com_port\Release/../JPEG/tjpgd.c:765
		nc = *hb++;
 8003f2a:	f81e 6b01 	ldrb.w	r6, [lr], #1
F:\AT32-workspace\AT32F403ACGU7_clone_windows_desktop_virtual_com_port\Release/../JPEG/tjpgd.c:766
		if (nc) {
 8003f2e:	2e00      	cmp	r6, #0
 8003f30:	d0f6      	beq.n	8003f20 <jd_decomp+0x840>
F:\AT32-workspace\AT32F403ACGU7_clone_windows_desktop_virtual_com_port\Release/../JPEG/tjpgd.c:774
			} while (--nc);
 8003f32:	eb06 0c02 	add.w	ip, r6, r2
F:\AT32-workspace\AT32F403ACGU7_clone_windows_desktop_virtual_com_port\Release/../JPEG/tjpgd.c:767
			d = w >> (wbit - bl);
 8003f36:	9e02      	ldr	r6, [sp, #8]
 8003f38:	eba6 080e 	sub.w	r8, r6, lr
 8003f3c:	fa24 f808 	lsr.w	r8, r4, r8
 8003f40:	4666      	mov	r6, ip
 8003f42:	e004      	b.n	8003f4e <jd_decomp+0x86e>
 8003f44:	080052d8 	.word	0x080052d8
F:\AT32-workspace\AT32F403ACGU7_clone_windows_desktop_virtual_com_port\Release/../JPEG/tjpgd.c:773
				hd++;
 8003f48:	3201      	adds	r2, #1
F:\AT32-workspace\AT32F403ACGU7_clone_windows_desktop_virtual_com_port\Release/../JPEG/tjpgd.c:774
			} while (--nc);
 8003f4a:	42b2      	cmp	r2, r6
 8003f4c:	d0e8      	beq.n	8003f20 <jd_decomp+0x840>
F:\AT32-workspace\AT32F403ACGU7_clone_windows_desktop_virtual_com_port\Release/../JPEG/tjpgd.c:769
				if (d == *hc++) {		/* Matched? */
 8003f4e:	f835 cb02 	ldrh.w	ip, [r5], #2
 8003f52:	45e0      	cmp	r8, ip
 8003f54:	d1f8      	bne.n	8003f48 <jd_decomp+0x868>
F:\AT32-workspace\AT32F403ACGU7_clone_windows_desktop_virtual_com_port\Release/../JPEG/tjpgd.c:770
					jd->dbit = wbit - bl;	/* Snip the huffman code */
 8003f56:	1a5b      	subs	r3, r3, r1
 8003f58:	9901      	ldr	r1, [sp, #4]
 8003f5a:	b2db      	uxtb	r3, r3
 8003f5c:	730b      	strb	r3, [r1, #12]
F:\AT32-workspace\AT32F403ACGU7_clone_windows_desktop_virtual_com_port\Release/../JPEG/tjpgd.c:771
					return *hd;			/* Return the decoded data */
 8003f5e:	7816      	ldrb	r6, [r2, #0]
 8003f60:	460a      	mov	r2, r1
mcu_load():
F:\AT32-workspace\AT32F403ACGU7_clone_windows_desktop_virtual_com_port\Release/../JPEG/tjpgd.c:1090
			d = jd->dcv[cmp];						/* DC value of previous block */
 8003f62:	9909      	ldr	r1, [sp, #36]	; 0x24
 8003f64:	eb02 0941 	add.w	r9, r2, r1, lsl #1
 8003f68:	f9b9 b014 	ldrsh.w	fp, [r9, #20]
F:\AT32-workspace\AT32F403ACGU7_clone_windows_desktop_virtual_com_port\Release/../JPEG/tjpgd.c:1091
			if (bc) {								/* If there is any difference from previous block */
 8003f6c:	2e00      	cmp	r6, #0
 8003f6e:	f43f ad49 	beq.w	8003a04 <jd_decomp+0x324>
bitext():
F:\AT32-workspace\AT32F403ACGU7_clone_windows_desktop_virtual_com_port\Release/../JPEG/tjpgd.c:834
	uint32_t w = jd->wreg & ((1UL << wbit) - 1);
 8003f72:	f04f 32ff 	mov.w	r2, #4294967295
 8003f76:	409a      	lsls	r2, r3
F:\AT32-workspace\AT32F403ACGU7_clone_windows_desktop_virtual_com_port\Release/../JPEG/tjpgd.c:837
	while (wbit < nbit) {	/* Prepare nbit bits into the working register */
 8003f78:	429e      	cmp	r6, r3
F:\AT32-workspace\AT32F403ACGU7_clone_windows_desktop_virtual_com_port\Release/../JPEG/tjpgd.c:833
	unsigned int wbit = jd->dbit % 32;
 8003f7a:	461d      	mov	r5, r3
F:\AT32-workspace\AT32F403ACGU7_clone_windows_desktop_virtual_com_port\Release/../JPEG/tjpgd.c:834
	uint32_t w = jd->wreg & ((1UL << wbit) - 1);
 8003f7c:	ea24 0402 	bic.w	r4, r4, r2
F:\AT32-workspace\AT32F403ACGU7_clone_windows_desktop_virtual_com_port\Release/../JPEG/tjpgd.c:837
	while (wbit < nbit) {	/* Prepare nbit bits into the working register */
 8003f80:	f240 8348 	bls.w	8004614 <jd_decomp+0xf34>
F:\AT32-workspace\AT32F403ACGU7_clone_windows_desktop_virtual_com_port\Release/../JPEG/tjpgd.c:796
	unsigned int d, flg = 0;
 8003f84:	f04f 0800 	mov.w	r8, #0
 8003f88:	4651      	mov	r1, sl
 8003f8a:	46ca      	mov	sl, r9
 8003f8c:	46b1      	mov	r9, r6
 8003f8e:	4626      	mov	r6, r4
 8003f90:	4644      	mov	r4, r8
 8003f92:	f8dd 8004 	ldr.w	r8, [sp, #4]
F:\AT32-workspace\AT32F403ACGU7_clone_windows_desktop_virtual_com_port\Release/../JPEG/tjpgd.c:838
		if (jd->marker) {
 8003f96:	f898 3064 	ldrb.w	r3, [r8, #100]	; 0x64
 8003f9a:	b9fb      	cbnz	r3, 8003fdc <jd_decomp+0x8fc>
F:\AT32-workspace\AT32F403ACGU7_clone_windows_desktop_virtual_com_port\Release/../JPEG/tjpgd.c:841
			if (!dc) {	/* Buffer empty, re-fill input buffer */
 8003f9c:	b958      	cbnz	r0, 8003fb6 <jd_decomp+0x8d6>
F:\AT32-workspace\AT32F403ACGU7_clone_windows_desktop_virtual_com_port\Release/../JPEG/tjpgd.c:842
				dp = jd->inbuf;	/* Top of input buffer */
 8003f9e:	f8d8 1008 	ldr.w	r1, [r8, #8]
F:\AT32-workspace\AT32F403ACGU7_clone_windows_desktop_virtual_com_port\Release/../JPEG/tjpgd.c:843
				dc = jd->infunc(jd, dp, JD_SZBUF);
 8003fa2:	f8d8 3098 	ldr.w	r3, [r8, #152]	; 0x98
 8003fa6:	9102      	str	r1, [sp, #8]
 8003fa8:	f44f 6280 	mov.w	r2, #1024	; 0x400
 8003fac:	4640      	mov	r0, r8
 8003fae:	4798      	blx	r3
F:\AT32-workspace\AT32F403ACGU7_clone_windows_desktop_virtual_com_port\Release/../JPEG/tjpgd.c:844
				if (!dc) return 0 - (int)JDR_INP;	/* Err: read error or wrong stream termination */
 8003fb0:	9902      	ldr	r1, [sp, #8]
 8003fb2:	2800      	cmp	r0, #0
 8003fb4:	d088      	beq.n	8003ec8 <jd_decomp+0x7e8>
F:\AT32-workspace\AT32F403ACGU7_clone_windows_desktop_virtual_com_port\Release/../JPEG/tjpgd.c:846
			d = *dp++; dc--;
 8003fb6:	f811 3b01 	ldrb.w	r3, [r1], #1
 8003fba:	3801      	subs	r0, #1
F:\AT32-workspace\AT32F403ACGU7_clone_windows_desktop_virtual_com_port\Release/../JPEG/tjpgd.c:847
			if (flg) {		/* In flag sequence? */
 8003fbc:	b394      	cbz	r4, 8004024 <jd_decomp+0x944>
F:\AT32-workspace\AT32F403ACGU7_clone_windows_desktop_virtual_com_port\Release/../JPEG/tjpgd.c:849
				if (d != 0) jd->marker = d;	/* Not an escape of 0xFF but a marker */
 8003fbe:	b3c3      	cbz	r3, 8004032 <jd_decomp+0x952>
 8003fc0:	f888 3064 	strb.w	r3, [r8, #100]	; 0x64
F:\AT32-workspace\AT32F403ACGU7_clone_windows_desktop_virtual_com_port\Release/../JPEG/tjpgd.c:850
				d = 0xFF;
 8003fc4:	23ff      	movs	r3, #255	; 0xff
F:\AT32-workspace\AT32F403ACGU7_clone_windows_desktop_virtual_com_port\Release/../JPEG/tjpgd.c:858
		wbit += 8;
 8003fc6:	3508      	adds	r5, #8
F:\AT32-workspace\AT32F403ACGU7_clone_windows_desktop_virtual_com_port\Release/../JPEG/tjpgd.c:837
	while (wbit < nbit) {	/* Prepare nbit bits into the working register */
 8003fc8:	45a9      	cmp	r9, r5
F:\AT32-workspace\AT32F403ACGU7_clone_windows_desktop_virtual_com_port\Release/../JPEG/tjpgd.c:857
		w = w << 8 | d;	/* Get 8 bits into the working register */
 8003fca:	ea43 2606 	orr.w	r6, r3, r6, lsl #8
F:\AT32-workspace\AT32F403ACGU7_clone_windows_desktop_virtual_com_port\Release/../JPEG/tjpgd.c:837
	while (wbit < nbit) {	/* Prepare nbit bits into the working register */
 8003fce:	f240 831c 	bls.w	800460a <jd_decomp+0xf2a>
F:\AT32-workspace\AT32F403ACGU7_clone_windows_desktop_virtual_com_port\Release/../JPEG/tjpgd.c:838
		if (jd->marker) {
 8003fd2:	f898 3064 	ldrb.w	r3, [r8, #100]	; 0x64
F:\AT32-workspace\AT32F403ACGU7_clone_windows_desktop_virtual_com_port\Release/../JPEG/tjpgd.c:837
	while (wbit < nbit) {	/* Prepare nbit bits into the working register */
 8003fd6:	2400      	movs	r4, #0
F:\AT32-workspace\AT32F403ACGU7_clone_windows_desktop_virtual_com_port\Release/../JPEG/tjpgd.c:838
		if (jd->marker) {
 8003fd8:	2b00      	cmp	r3, #0
 8003fda:	d0df      	beq.n	8003f9c <jd_decomp+0x8bc>
F:\AT32-workspace\AT32F403ACGU7_clone_windows_desktop_virtual_com_port\Release/../JPEG/tjpgd.c:857
		w = w << 8 | d;	/* Get 8 bits into the working register */
 8003fdc:	4634      	mov	r4, r6
 8003fde:	464e      	mov	r6, r9
 8003fe0:	46d1      	mov	r9, sl
 8003fe2:	468a      	mov	sl, r1
F:\AT32-workspace\AT32F403ACGU7_clone_windows_desktop_virtual_com_port\Release/../JPEG/tjpgd.c:858
		wbit += 8;
 8003fe4:	3508      	adds	r5, #8
F:\AT32-workspace\AT32F403ACGU7_clone_windows_desktop_virtual_com_port\Release/../JPEG/tjpgd.c:857
		w = w << 8 | d;	/* Get 8 bits into the working register */
 8003fe6:	0224      	lsls	r4, r4, #8
F:\AT32-workspace\AT32F403ACGU7_clone_windows_desktop_virtual_com_port\Release/../JPEG/tjpgd.c:837
	while (wbit < nbit) {	/* Prepare nbit bits into the working register */
 8003fe8:	42ae      	cmp	r6, r5
F:\AT32-workspace\AT32F403ACGU7_clone_windows_desktop_virtual_com_port\Release/../JPEG/tjpgd.c:857
		w = w << 8 | d;	/* Get 8 bits into the working register */
 8003fea:	f044 04ff 	orr.w	r4, r4, #255	; 0xff
F:\AT32-workspace\AT32F403ACGU7_clone_windows_desktop_virtual_com_port\Release/../JPEG/tjpgd.c:837
	while (wbit < nbit) {	/* Prepare nbit bits into the working register */
 8003fee:	d8f9      	bhi.n	8003fe4 <jd_decomp+0x904>
F:\AT32-workspace\AT32F403ACGU7_clone_windows_desktop_virtual_com_port\Release/../JPEG/tjpgd.c:860
	jd->wreg = w; jd->dbit = wbit - nbit;
 8003ff0:	9b01      	ldr	r3, [sp, #4]
 8003ff2:	1bad      	subs	r5, r5, r6
 8003ff4:	731d      	strb	r5, [r3, #12]
F:\AT32-workspace\AT32F403ACGU7_clone_windows_desktop_virtual_com_port\Release/../JPEG/tjpgd.c:863
	return (int)(w >> ((wbit - nbit) % 32));
 8003ff6:	f005 051f 	and.w	r5, r5, #31
F:\AT32-workspace\AT32F403ACGU7_clone_windows_desktop_virtual_com_port\Release/../JPEG/tjpgd.c:860
	jd->wreg = w; jd->dbit = wbit - nbit;
 8003ffa:	661c      	str	r4, [r3, #96]	; 0x60
F:\AT32-workspace\AT32F403ACGU7_clone_windows_desktop_virtual_com_port\Release/../JPEG/tjpgd.c:863
	return (int)(w >> ((wbit - nbit) % 32));
 8003ffc:	40ec      	lsrs	r4, r5
mcu_load():
F:\AT32-workspace\AT32F403ACGU7_clone_windows_desktop_virtual_com_port\Release/../JPEG/tjpgd.c:1093
				if (e < 0) return (JRESULT)(0 - e);	/* Err: input */
 8003ffe:	2c00      	cmp	r4, #0
bitext():
F:\AT32-workspace\AT32F403ACGU7_clone_windows_desktop_virtual_com_port\Release/../JPEG/tjpgd.c:861
	jd->dctr = dc; jd->dptr = dp;
 8004000:	e9c3 0a00 	strd	r0, sl, [r3]
F:\AT32-workspace\AT32F403ACGU7_clone_windows_desktop_virtual_com_port\Release/../JPEG/tjpgd.c:863
	return (int)(w >> ((wbit - nbit) % 32));
 8004004:	4622      	mov	r2, r4
mcu_load():
F:\AT32-workspace\AT32F403ACGU7_clone_windows_desktop_virtual_com_port\Release/../JPEG/tjpgd.c:1093
				if (e < 0) return (JRESULT)(0 - e);	/* Err: input */
 8004006:	f2c0 82c0 	blt.w	800458a <jd_decomp+0xeaa>
F:\AT32-workspace\AT32F403ACGU7_clone_windows_desktop_virtual_com_port\Release/../JPEG/tjpgd.c:1094
				bc = 1 << (bc - 1);					/* MSB position */
 800400a:	3e01      	subs	r6, #1
 800400c:	2301      	movs	r3, #1
 800400e:	40b3      	lsls	r3, r6
F:\AT32-workspace\AT32F403ACGU7_clone_windows_desktop_virtual_com_port\Release/../JPEG/tjpgd.c:1095
				if (!(e & bc)) e -= (bc << 1) - 1;	/* Restore negative value if needed */
 8004010:	4223      	tst	r3, r4
 8004012:	d103      	bne.n	800401c <jd_decomp+0x93c>
 8004014:	005b      	lsls	r3, r3, #1
 8004016:	f1c3 0301 	rsb	r3, r3, #1
 800401a:	191a      	adds	r2, r3, r4
F:\AT32-workspace\AT32F403ACGU7_clone_windows_desktop_virtual_com_port\Release/../JPEG/tjpgd.c:1096
				d += e;								/* Get current value */
 800401c:	4493      	add	fp, r2
F:\AT32-workspace\AT32F403ACGU7_clone_windows_desktop_virtual_com_port\Release/../JPEG/tjpgd.c:1097
				jd->dcv[cmp] = (int16_t)d;			/* Save current DC value for next block */
 800401e:	f8a9 b014 	strh.w	fp, [r9, #20]
 8004022:	e4ef      	b.n	8003a04 <jd_decomp+0x324>
bitext():
F:\AT32-workspace\AT32F403ACGU7_clone_windows_desktop_virtual_com_port\Release/../JPEG/tjpgd.c:852
				if (d == 0xFF) {		/* Is start of flag sequence? */
 8004024:	2bff      	cmp	r3, #255	; 0xff
 8004026:	d1ce      	bne.n	8003fc6 <jd_decomp+0x8e6>
F:\AT32-workspace\AT32F403ACGU7_clone_windows_desktop_virtual_com_port\Release/../JPEG/tjpgd.c:837
	while (wbit < nbit) {	/* Prepare nbit bits into the working register */
 8004028:	45a9      	cmp	r9, r5
 800402a:	f240 82ee 	bls.w	800460a <jd_decomp+0xf2a>
F:\AT32-workspace\AT32F403ACGU7_clone_windows_desktop_virtual_com_port\Release/../JPEG/tjpgd.c:853
					flg = 1; continue;	/* Enter flag sequence, get trailing byte */
 800402e:	2401      	movs	r4, #1
 8004030:	e7b1      	b.n	8003f96 <jd_decomp+0x8b6>
F:\AT32-workspace\AT32F403ACGU7_clone_windows_desktop_virtual_com_port\Release/../JPEG/tjpgd.c:850
				d = 0xFF;
 8004032:	23ff      	movs	r3, #255	; 0xff
 8004034:	e7c7      	b.n	8003fc6 <jd_decomp+0x8e6>
mcu_output():
F:\AT32-workspace\AT32F403ACGU7_clone_windows_desktop_virtual_com_port\Release/../JPEG/tjpgd.c:1177
	rx = (x + mx <= jd->width) ? mx : jd->width - x;	//Ширина и высота блока изображения для вывода в буфер кадра (на дисплей)
 8004036:	9b0b      	ldr	r3, [sp, #44]	; 0x2c
 8004038:	1ac8      	subs	r0, r1, r3
 800403a:	f7ff bbbf 	b.w	80037bc <jd_decomp+0xdc>
mcu_load():
F:\AT32-workspace\AT32F403ACGU7_clone_windows_desktop_virtual_com_port\Release/../JPEG/tjpgd.c:1177
 800403e:	9205      	str	r2, [sp, #20]
F:\AT32-workspace\AT32F403ACGU7_clone_windows_desktop_virtual_com_port\Release/../JPEG/tjpgd.c:1075
		cmp = (blk < nby) ? 0 : blk - nby + 1;	/* Component number 0:Y, 1:Cb, 2:Cr */
 8004040:	9209      	str	r2, [sp, #36]	; 0x24
 8004042:	e47b      	b.n	800393c <jd_decomp+0x25c>
jd_decomp():
F:\AT32-workspace\AT32F403ACGU7_clone_windows_desktop_virtual_com_port\Release/../JPEG/tjpgd.c:1776 (discriminator 1)
		for (x = 0; x < jd->width; x += mx) {	/* Horizontal loop of MCUs */
 8004044:	9a0b      	ldr	r2, [sp, #44]	; 0x2c
 8004046:	9c12      	ldr	r4, [sp, #72]	; 0x48
F:\AT32-workspace\AT32F403ACGU7_clone_windows_desktop_virtual_com_port\Release/../JPEG/tjpgd.c:1786 (discriminator 1)
			jd->offset = jd->offset > 0 ? 0 : jd->offset_value;
 8004048:	9801      	ldr	r0, [sp, #4]
F:\AT32-workspace\AT32F403ACGU7_clone_windows_desktop_virtual_com_port\Release/../JPEG/tjpgd.c:1776 (discriminator 1)
		for (x = 0; x < jd->width; x += mx) {	/* Horizontal loop of MCUs */
 800404a:	4422      	add	r2, r4
F:\AT32-workspace\AT32F403ACGU7_clone_windows_desktop_virtual_com_port\Release/../JPEG/tjpgd.c:1786 (discriminator 1)
			jd->offset = jd->offset > 0 ? 0 : jd->offset_value;
 800404c:	f8d0 3084 	ldr.w	r3, [r0, #132]	; 0x84
F:\AT32-workspace\AT32F403ACGU7_clone_windows_desktop_virtual_com_port\Release/../JPEG/tjpgd.c:1776 (discriminator 1)
		for (x = 0; x < jd->width; x += mx) {	/* Horizontal loop of MCUs */
 8004050:	920b      	str	r2, [sp, #44]	; 0x2c
 8004052:	428a      	cmp	r2, r1
F:\AT32-workspace\AT32F403ACGU7_clone_windows_desktop_virtual_com_port\Release/../JPEG/tjpgd.c:1786 (discriminator 1)
			jd->offset = jd->offset > 0 ? 0 : jd->offset_value;
 8004054:	f8c0 3080 	str.w	r3, [r0, #128]	; 0x80
F:\AT32-workspace\AT32F403ACGU7_clone_windows_desktop_virtual_com_port\Release/../JPEG/tjpgd.c:1776 (discriminator 1)
		for (x = 0; x < jd->width; x += mx) {	/* Horizontal loop of MCUs */
 8004058:	f4ff ab61 	bcc.w	800371e <jd_decomp+0x3e>
 800405c:	e460      	b.n	8003920 <jd_decomp+0x240>
bitext():
F:\AT32-workspace\AT32F403ACGU7_clone_windows_desktop_virtual_com_port\Release/../JPEG/tjpgd.c:860
	jd->wreg = w; jd->dbit = wbit - nbit;
 800405e:	eba8 0806 	sub.w	r8, r8, r6
 8004062:	f885 800c 	strb.w	r8, [r5, #12]
F:\AT32-workspace\AT32F403ACGU7_clone_windows_desktop_virtual_com_port\Release/../JPEG/tjpgd.c:863
	return (int)(w >> ((wbit - nbit) % 32));
 8004066:	f008 081f 	and.w	r8, r8, #31
F:\AT32-workspace\AT32F403ACGU7_clone_windows_desktop_virtual_com_port\Release/../JPEG/tjpgd.c:860
	jd->wreg = w; jd->dbit = wbit - nbit;
 800406a:	662c      	str	r4, [r5, #96]	; 0x60
F:\AT32-workspace\AT32F403ACGU7_clone_windows_desktop_virtual_com_port\Release/../JPEG/tjpgd.c:863
	return (int)(w >> ((wbit - nbit) % 32));
 800406c:	fa24 f408 	lsr.w	r4, r4, r8
 8004070:	4621      	mov	r1, r4
mcu_load():
F:\AT32-workspace\AT32F403ACGU7_clone_windows_desktop_virtual_com_port\Release/../JPEG/tjpgd.c:1118
					if (d < 0) return (JRESULT)(0 - d);	/* Err: input device */
 8004072:	e60f      	b.n	8003c94 <jd_decomp+0x5b4>
 8004074:	2301      	movs	r3, #1
 8004076:	9209      	str	r2, [sp, #36]	; 0x24
 8004078:	9305      	str	r3, [sp, #20]
 800407a:	e45f      	b.n	800393c <jd_decomp+0x25c>
bitext():
F:\AT32-workspace\AT32F403ACGU7_clone_windows_desktop_virtual_com_port\Release/../JPEG/tjpgd.c:858
		wbit += 8;
 800407c:	4643      	mov	r3, r8
 800407e:	e5fd      	b.n	8003c7c <jd_decomp+0x59c>
mcu_load():
F:\AT32-workspace\AT32F403ACGU7_clone_windows_desktop_virtual_com_port\Release/../JPEG/tjpgd.c:1126
			if ((jd->color_format != 2 && jd->color_format != 3) || !cmp) {	/* C components may not be processed if in grayscale output */
 8004080:	9b09      	ldr	r3, [sp, #36]	; 0x24
 8004082:	2b00      	cmp	r3, #0
 8004084:	f47f ab80 	bne.w	8003788 <jd_decomp+0xa8>
 8004088:	e599      	b.n	8003bbe <jd_decomp+0x4de>
restart():
F:\AT32-workspace\AT32F403ACGU7_clone_windows_desktop_virtual_com_port\Release/../JPEG/tjpgd.c:909
	if (jd->marker) {	/* Generate a maker if it has been detected */
 800408a:	9a01      	ldr	r2, [sp, #4]
 800408c:	f892 4064 	ldrb.w	r4, [r2, #100]	; 0x64
 8004090:	2c00      	cmp	r4, #0
 8004092:	f000 828f 	beq.w	80045b4 <jd_decomp+0xed4>
F:\AT32-workspace\AT32F403ACGU7_clone_windows_desktop_virtual_com_port\Release/../JPEG/tjpgd.c:911
		jd->marker = 0;
 8004096:	2300      	movs	r3, #0
F:\AT32-workspace\AT32F403ACGU7_clone_windows_desktop_virtual_com_port\Release/../JPEG/tjpgd.c:910
		marker = 0xFF00 | jd->marker;
 8004098:	f444 447f 	orr.w	r4, r4, #65280	; 0xff00
F:\AT32-workspace\AT32F403ACGU7_clone_windows_desktop_virtual_com_port\Release/../JPEG/tjpgd.c:911
		jd->marker = 0;
 800409c:	f882 3064 	strb.w	r3, [r2, #100]	; 0x64
F:\AT32-workspace\AT32F403ACGU7_clone_windows_desktop_virtual_com_port\Release/../JPEG/tjpgd.c:927
	if ((marker & 0xFFD8) != 0xFFD0 || (marker & 7) != (rstn & 7)) {
 80040a0:	f024 0327 	bic.w	r3, r4, #39	; 0x27
 80040a4:	b29b      	uxth	r3, r3
 80040a6:	f64f 72d0 	movw	r2, #65488	; 0xffd0
 80040aa:	4293      	cmp	r3, r2
 80040ac:	f47f ad65 	bne.w	8003b7a <jd_decomp+0x49a>
 80040b0:	9a13      	ldr	r2, [sp, #76]	; 0x4c
 80040b2:	ea84 0302 	eor.w	r3, r4, r2
 80040b6:	f013 0307 	ands.w	r3, r3, #7
 80040ba:	f47f ad5e 	bne.w	8003b7a <jd_decomp+0x49a>
jd_decomp():
F:\AT32-workspace\AT32F403ACGU7_clone_windows_desktop_virtual_com_port\Release/../JPEG/tjpgd.c:1778
				rc = restart(jd, rsc++);
 80040be:	3201      	adds	r2, #1
 80040c0:	b292      	uxth	r2, r2
 80040c2:	9213      	str	r2, [sp, #76]	; 0x4c
restart():
F:\AT32-workspace\AT32F403ACGU7_clone_windows_desktop_virtual_com_port\Release/../JPEG/tjpgd.c:931
	jd->dbit = 0;			/* Discard stuff bits */
 80040c4:	9a01      	ldr	r2, [sp, #4]
 80040c6:	7313      	strb	r3, [r2, #12]
F:\AT32-workspace\AT32F403ACGU7_clone_windows_desktop_virtual_com_port\Release/../JPEG/tjpgd.c:934
	jd->dcv[2] = jd->dcv[1] = jd->dcv[0] = 0;	/* Reset DC offset */
 80040c8:	6153      	str	r3, [r2, #20]
 80040ca:	8313      	strh	r3, [r2, #24]
jd_decomp():
F:\AT32-workspace\AT32F403ACGU7_clone_windows_desktop_virtual_com_port\Release/../JPEG/tjpgd.c:1780
				rst = 1;
 80040cc:	2301      	movs	r3, #1
 80040ce:	9311      	str	r3, [sp, #68]	; 0x44
 80040d0:	f7ff bb2f 	b.w	8003732 <jd_decomp+0x52>
mcu_output():
F:\AT32-workspace\AT32F403ACGU7_clone_windows_desktop_virtual_com_port\Release/../JPEG/tjpgd.c:1382
			rx *= 2; //2 байта на пиксель
 80040d4:	9a0d      	ldr	r2, [sp, #52]	; 0x34
 80040d6:	ea4f 0e42 	mov.w	lr, r2, lsl #1
F:\AT32-workspace\AT32F403ACGU7_clone_windows_desktop_virtual_com_port\Release/../JPEG/tjpgd.c:1384
			for (y = 1; y < ry; y++) { //Перемещаем пиксели в массиве для новой области вывода, начиная со 2 строки
 80040da:	9a0f      	ldr	r2, [sp, #60]	; 0x3c
 80040dc:	2a01      	cmp	r2, #1
F:\AT32-workspace\AT32F403ACGU7_clone_windows_desktop_virtual_com_port\Release/../JPEG/tjpgd.c:1383
			mx *= 2;
 80040de:	ea4f 0545 	mov.w	r5, r5, lsl #1
F:\AT32-workspace\AT32F403ACGU7_clone_windows_desktop_virtual_com_port\Release/../JPEG/tjpgd.c:1384
			for (y = 1; y < ry; y++) { //Перемещаем пиксели в массиве для новой области вывода, начиная со 2 строки
 80040e2:	f43f ac02 	beq.w	80038ea <jd_decomp+0x20a>
F:\AT32-workspace\AT32F403ACGU7_clone_windows_desktop_virtual_com_port\Release/../JPEG/tjpgd.c:1379
		s = d = (uint8_t*)workbuf;
 80040e6:	9e0c      	ldr	r6, [sp, #48]	; 0x30
 80040e8:	46b4      	mov	ip, r6
F:\AT32-workspace\AT32F403ACGU7_clone_windows_desktop_virtual_com_port\Release/../JPEG/tjpgd.c:1385
				memcpy_16(d += rx, s += mx, rx1);
 80040ea:	4476      	add	r6, lr
 80040ec:	44ac      	add	ip, r5
memcpy_16():
F:\AT32-workspace\AT32F403ACGU7_clone_windows_desktop_virtual_com_port\Release/../JPEG/tjpgd.c:226
	asm volatile (	"orrs	%[size], %[size]\n\t"
 80040ee:	9c0d      	ldr	r4, [sp, #52]	; 0x34
 80040f0:	4632      	mov	r2, r6
 80040f2:	4661      	mov	r1, ip
 80040f4:	4324      	orrs	r4, r4
 80040f6:	d005      	beq.n	8004104 <jd_decomp+0xa24>
 80040f8:	f831 0b02 	ldrh.w	r0, [r1], #2
 80040fc:	f822 0b02 	strh.w	r0, [r2], #2
 8004100:	3c01      	subs	r4, #1
 8004102:	d1f9      	bne.n	80040f8 <jd_decomp+0xa18>
mcu_output():
F:\AT32-workspace\AT32F403ACGU7_clone_windows_desktop_virtual_com_port\Release/../JPEG/tjpgd.c:1384
			for (y = 1; y < ry; y++) { //Перемещаем пиксели в массиве для новой области вывода, начиная со 2 строки
 8004104:	9a0f      	ldr	r2, [sp, #60]	; 0x3c
 8004106:	3301      	adds	r3, #1
 8004108:	429a      	cmp	r2, r3
 800410a:	d1ee      	bne.n	80040ea <jd_decomp+0xa0a>
 800410c:	f7ff bbed 	b.w	80038ea <jd_decomp+0x20a>
F:\AT32-workspace\AT32F403ACGU7_clone_windows_desktop_virtual_com_port\Release/../JPEG/tjpgd.c:1190
			for (iy = 0; iy < my; iy++) {
 8004110:	9b0a      	ldr	r3, [sp, #40]	; 0x28
 8004112:	2b00      	cmp	r3, #0
 8004114:	d059      	beq.n	80041ca <jd_decomp+0xaea>
 8004116:	ea4f 130b 	mov.w	r3, fp, lsl #4
 800411a:	9303      	str	r3, [sp, #12]
 800411c:	2300      	movs	r3, #0
 800411e:	9302      	str	r3, [sp, #8]
F:\AT32-workspace\AT32F403ACGU7_clone_windows_desktop_virtual_com_port\Release/../JPEG/tjpgd.c:1191
				pc = py = jd->mcubuf;
 8004120:	9b01      	ldr	r3, [sp, #4]
 8004122:	f8d3 608c 	ldr.w	r6, [r3, #140]	; 0x8c
F:\AT32-workspace\AT32F403ACGU7_clone_windows_desktop_virtual_com_port\Release/../JPEG/tjpgd.c:1192
				if (my == 16) {	//Блок с удвоенной высотой?
 8004126:	9b0a      	ldr	r3, [sp, #40]	; 0x28
 8004128:	2b10      	cmp	r3, #16
 800412a:	f000 818e 	beq.w	800444a <jd_decomp+0xd6a>
F:\AT32-workspace\AT32F403ACGU7_clone_windows_desktop_virtual_com_port\Release/../JPEG/tjpgd.c:1197
					pc += mx * 8 + iy * 8;
 800412e:	9b03      	ldr	r3, [sp, #12]
 8004130:	18f3      	adds	r3, r6, r3
F:\AT32-workspace\AT32F403ACGU7_clone_windows_desktop_virtual_com_port\Release/../JPEG/tjpgd.c:1199
				py += iy * 8;
 8004132:	9a02      	ldr	r2, [sp, #8]
 8004134:	eb06 1602 	add.w	r6, r6, r2, lsl #4
F:\AT32-workspace\AT32F403ACGU7_clone_windows_desktop_virtual_com_port\Release/../JPEG/tjpgd.c:1200
				for (ix = 0; ix < mx; ix++) {
 8004138:	f1bb 0f00 	cmp.w	fp, #0
 800413c:	d039      	beq.n	80041b2 <jd_decomp+0xad2>
 800413e:	2500      	movs	r5, #0
F:\AT32-workspace\AT32F403ACGU7_clone_windows_desktop_virtual_com_port\Release/../JPEG/tjpgd.c:1201
					cb = pc[0] - 128; 	//Получаем компоненты Cb и Cr and remove offset */
 8004140:	f9b3 c000 	ldrsh.w	ip, [r3]
F:\AT32-workspace\AT32F403ACGU7_clone_windows_desktop_virtual_com_port\Release/../JPEG/tjpgd.c:1202
					cr = pc[64] - 128;
 8004144:	f9b3 e080 	ldrsh.w	lr, [r3, #128]	; 0x80
F:\AT32-workspace\AT32F403ACGU7_clone_windows_desktop_virtual_com_port\Release/../JPEG/tjpgd.c:1203
					if (mx == 16) {					//Блок с удвоенной шириной?
 8004148:	f1bb 0f10 	cmp.w	fp, #16
F:\AT32-workspace\AT32F403ACGU7_clone_windows_desktop_virtual_com_port\Release/../JPEG/tjpgd.c:1201
					cb = pc[0] - 128; 	//Получаем компоненты Cb и Cr and remove offset */
 800414c:	f1ac 0c80 	sub.w	ip, ip, #128	; 0x80
F:\AT32-workspace\AT32F403ACGU7_clone_windows_desktop_virtual_com_port\Release/../JPEG/tjpgd.c:1202
					cr = pc[64] - 128;
 8004150:	f1ae 0e80 	sub.w	lr, lr, #128	; 0x80
F:\AT32-workspace\AT32F403ACGU7_clone_windows_desktop_virtual_com_port\Release/../JPEG/tjpgd.c:1203
					if (mx == 16) {					//Блок с удвоенной шириной?
 8004154:	f000 8151 	beq.w	80043fa <jd_decomp+0xd1a>
F:\AT32-workspace\AT32F403ACGU7_clone_windows_desktop_virtual_com_port\Release/../JPEG/tjpgd.c:1208
						pc++;					//Инкрементируем указатель цветности
 8004158:	4631      	mov	r1, r6
 800415a:	3302      	adds	r3, #2
F:\AT32-workspace\AT32F403ACGU7_clone_windows_desktop_virtual_com_port\Release/../JPEG/tjpgd.c:1211
					if (jd->color_format == 0) {
 800415c:	9a01      	ldr	r2, [sp, #4]
F:\AT32-workspace\AT32F403ACGU7_clone_windows_desktop_virtual_com_port\Release/../JPEG/tjpgd.c:1210
					yy = *py++;			//Получаем компоненту интенсивности Y
 800415e:	f9b1 8000 	ldrsh.w	r8, [r1]
F:\AT32-workspace\AT32F403ACGU7_clone_windows_desktop_virtual_com_port\Release/../JPEG/tjpgd.c:1211
					if (jd->color_format == 0) {
 8004162:	f892 2088 	ldrb.w	r2, [r2, #136]	; 0x88
F:\AT32-workspace\AT32F403ACGU7_clone_windows_desktop_virtual_com_port\Release/../JPEG/tjpgd.c:1210
					yy = *py++;			//Получаем компоненту интенсивности Y
 8004166:	3602      	adds	r6, #2
F:\AT32-workspace\AT32F403ACGU7_clone_windows_desktop_virtual_com_port\Release/../JPEG/tjpgd.c:1211
					if (jd->color_format == 0) {
 8004168:	2a00      	cmp	r2, #0
 800416a:	f040 80e9 	bne.w	8004340 <jd_decomp+0xc60>
Convert_YCbCr_to_R8G8B8():
F:\AT32-workspace\AT32F403ACGU7_clone_windows_desktop_virtual_com_port\Release/../JPEG/tjpgd.c:123
	asm volatile (	"movs	r0, #45						\n\t"
 800416e:	202d      	movs	r0, #45	; 0x2d
 8004170:	fb00 f00e 	mul.w	r0, r0, lr
 8004174:	eb08 1060 	add.w	r0, r8, r0, asr #5
 8004178:	f380 0a08 	usat	sl, #8, r0
 800417c:	2017      	movs	r0, #23
 800417e:	fb00 f10e 	mul.w	r1, r0, lr
 8004182:	200b      	movs	r0, #11
 8004184:	fb00 100c 	mla	r0, r0, ip, r1
 8004188:	eba8 1060 	sub.w	r0, r8, r0, asr #5
 800418c:	f380 0908 	usat	r9, #8, r0
 8004190:	2071      	movs	r0, #113	; 0x71
 8004192:	fb00 f00c 	mul.w	r0, r0, ip
 8004196:	eb08 10a0 	add.w	r0, r8, r0, asr #6
 800419a:	f380 0208 	usat	r2, #8, r0
mcu_output():
F:\AT32-workspace\AT32F403ACGU7_clone_windows_desktop_virtual_com_port\Release/../JPEG/tjpgd.c:1200
				for (ix = 0; ix < mx; ix++) {
 800419e:	3501      	adds	r5, #1
 80041a0:	45ab      	cmp	fp, r5
F:\AT32-workspace\AT32F403ACGU7_clone_windows_desktop_virtual_com_port\Release/../JPEG/tjpgd.c:1213
						*pix++ = r1;
 80041a2:	f884 a000 	strb.w	sl, [r4]
F:\AT32-workspace\AT32F403ACGU7_clone_windows_desktop_virtual_com_port\Release/../JPEG/tjpgd.c:1214
						*pix++ = g1;
 80041a6:	f884 9001 	strb.w	r9, [r4, #1]
F:\AT32-workspace\AT32F403ACGU7_clone_windows_desktop_virtual_com_port\Release/../JPEG/tjpgd.c:1215
						*pix++ = b1;
 80041aa:	70a2      	strb	r2, [r4, #2]
 80041ac:	f104 0403 	add.w	r4, r4, #3
F:\AT32-workspace\AT32F403ACGU7_clone_windows_desktop_virtual_com_port\Release/../JPEG/tjpgd.c:1200
				for (ix = 0; ix < mx; ix++) {
 80041b0:	d1c6      	bne.n	8004140 <jd_decomp+0xa60>
F:\AT32-workspace\AT32F403ACGU7_clone_windows_desktop_virtual_com_port\Release/../JPEG/tjpgd.c:1190
			for (iy = 0; iy < my; iy++) {
 80041b2:	9a03      	ldr	r2, [sp, #12]
 80041b4:	9b02      	ldr	r3, [sp, #8]
 80041b6:	3210      	adds	r2, #16
 80041b8:	9203      	str	r2, [sp, #12]
 80041ba:	9a0a      	ldr	r2, [sp, #40]	; 0x28
 80041bc:	3301      	adds	r3, #1
 80041be:	429a      	cmp	r2, r3
 80041c0:	9302      	str	r3, [sp, #8]
 80041c2:	d1ad      	bne.n	8004120 <jd_decomp+0xa40>
F:\AT32-workspace\AT32F403ACGU7_clone_windows_desktop_virtual_com_port\Release/../JPEG/tjpgd.c:1277
		if (JD_USE_SCALE && jd->scale) {
 80041c4:	9b01      	ldr	r3, [sp, #4]
 80041c6:	f893 800d 	ldrb.w	r8, [r3, #13]
 80041ca:	f1b8 0f00 	cmp.w	r8, #0
 80041ce:	f43f ab5f 	beq.w	8003890 <jd_decomp+0x1b0>
F:\AT32-workspace\AT32F403ACGU7_clone_windows_desktop_virtual_com_port\Release/../JPEG/tjpgd.c:1285
			if (jd->color_format == 0) { //RGB888 (24-bit/pix)
 80041d2:	9b01      	ldr	r3, [sp, #4]
F:\AT32-workspace\AT32F403ACGU7_clone_windows_desktop_virtual_com_port\Release/../JPEG/tjpgd.c:1282
			w = 1 << jd->scale;	//Размерность квадрата
 80041d4:	2001      	movs	r0, #1
F:\AT32-workspace\AT32F403ACGU7_clone_windows_desktop_virtual_com_port\Release/../JPEG/tjpgd.c:1285
			if (jd->color_format == 0) { //RGB888 (24-bit/pix)
 80041d6:	f893 e088 	ldrb.w	lr, [r3, #136]	; 0x88
F:\AT32-workspace\AT32F403ACGU7_clone_windows_desktop_virtual_com_port\Release/../JPEG/tjpgd.c:1282
			w = 1 << jd->scale;	//Размерность квадрата
 80041da:	fa00 f008 	lsl.w	r0, r0, r8
F:\AT32-workspace\AT32F403ACGU7_clone_windows_desktop_virtual_com_port\Release/../JPEG/tjpgd.c:1281
			s = jd->scale * 2;	//Число значений для расчета среднего
 80041de:	ea4f 0348 	mov.w	r3, r8, lsl #1
 80041e2:	9307      	str	r3, [sp, #28]
F:\AT32-workspace\AT32F403ACGU7_clone_windows_desktop_virtual_com_port\Release/../JPEG/tjpgd.c:1283
			a = mx - w; //Количество байт, которое необходимо пропустить для перехода на следующую строку
 80041e4:	ebab 0a00 	sub.w	sl, fp, r0
F:\AT32-workspace\AT32F403ACGU7_clone_windows_desktop_virtual_com_port\Release/../JPEG/tjpgd.c:1285
			if (jd->color_format == 0) { //RGB888 (24-bit/pix)
 80041e8:	f1be 0f00 	cmp.w	lr, #0
 80041ec:	f040 8201 	bne.w	80045f2 <jd_decomp+0xf12>
F:\AT32-workspace\AT32F403ACGU7_clone_windows_desktop_virtual_com_port\Release/../JPEG/tjpgd.c:1291
			a *= k_byte;
 80041f0:	eb0a 0a4a 	add.w	sl, sl, sl, lsl #1
 80041f4:	2303      	movs	r3, #3
F:\AT32-workspace\AT32F403ACGU7_clone_windows_desktop_virtual_com_port\Release/../JPEG/tjpgd.c:1292
			for (iy = 0; iy < my; iy += w) {
 80041f6:	9a0a      	ldr	r2, [sp, #40]	; 0x28
 80041f8:	2a00      	cmp	r2, #0
 80041fa:	f43f ab49 	beq.w	8003890 <jd_decomp+0x1b0>
 80041fe:	f1bb 0f00 	cmp.w	fp, #0
 8004202:	f43f ab45 	beq.w	8003890 <jd_decomp+0x1b0>
 8004206:	fb03 f300 	mul.w	r3, r3, r0
 800420a:	9309      	str	r3, [sp, #36]	; 0x24
 800420c:	fb0b f303 	mul.w	r3, fp, r3
 8004210:	9316      	str	r3, [sp, #88]	; 0x58
 8004212:	9b0c      	ldr	r3, [sp, #48]	; 0x30
 8004214:	9310      	str	r3, [sp, #64]	; 0x40
 8004216:	eb00 0240 	add.w	r2, r0, r0, lsl #1
F:\AT32-workspace\AT32F403ACGU7_clone_windows_desktop_virtual_com_port\Release/../JPEG/tjpgd.c:1279
			uint8_t *op = (uint8_t*)workbuf;
 800421a:	9306      	str	r3, [sp, #24]
F:\AT32-workspace\AT32F403ACGU7_clone_windows_desktop_virtual_com_port\Release/../JPEG/tjpgd.c:1292
			for (iy = 0; iy < my; iy += w) {
 800421c:	2300      	movs	r3, #0
 800421e:	0041      	lsls	r1, r0, #1
 8004220:	9314      	str	r3, [sp, #80]	; 0x50
 8004222:	1cd3      	adds	r3, r2, #3
 8004224:	f8cd b020 	str.w	fp, [sp, #32]
 8004228:	9202      	str	r2, [sp, #8]
 800422a:	9104      	str	r1, [sp, #16]
 800422c:	469b      	mov	fp, r3
F:\AT32-workspace\AT32F403ACGU7_clone_windows_desktop_virtual_com_port\Release/../JPEG/tjpgd.c:1294
					pix = (uint8_t*)workbuf + (iy * mx + ix) * k_byte;
 800422e:	9b10      	ldr	r3, [sp, #64]	; 0x40
 8004230:	9303      	str	r3, [sp, #12]
F:\AT32-workspace\AT32F403ACGU7_clone_windows_desktop_virtual_com_port\Release/../JPEG/tjpgd.c:1293
				for (ix = 0; ix < mx; ix += w) {
 8004232:	2300      	movs	r3, #0
F:\AT32-workspace\AT32F403ACGU7_clone_windows_desktop_virtual_com_port\Release/../JPEG/tjpgd.c:1294
					pix = (uint8_t*)workbuf + (iy * mx + ix) * k_byte;
 8004234:	9903      	ldr	r1, [sp, #12]
F:\AT32-workspace\AT32F403ACGU7_clone_windows_desktop_virtual_com_port\Release/../JPEG/tjpgd.c:1293
				for (ix = 0; ix < mx; ix += w) {
 8004236:	9305      	str	r3, [sp, #20]
F:\AT32-workspace\AT32F403ACGU7_clone_windows_desktop_virtual_com_port\Release/../JPEG/tjpgd.c:1296
					for (y = 0; y < w; y++) {	//Накопление значений цветовых составляющих в квадрате
 8004238:	2800      	cmp	r0, #0
 800423a:	d03d      	beq.n	80042b8 <jd_decomp+0xbd8>
F:\AT32-workspace\AT32F403ACGU7_clone_windows_desktop_virtual_com_port\Release/../JPEG/tjpgd.c:1295
					r = g = b = 0;
 800423c:	2400      	movs	r4, #0
 800423e:	4626      	mov	r6, r4
 8004240:	4623      	mov	r3, r4
F:\AT32-workspace\AT32F403ACGU7_clone_windows_desktop_virtual_com_port\Release/../JPEG/tjpgd.c:1296
					for (y = 0; y < w; y++) {	//Накопление значений цветовых составляющих в квадрате
 8004242:	46a4      	mov	ip, r4
F:\AT32-workspace\AT32F403ACGU7_clone_windows_desktop_virtual_com_port\Release/../JPEG/tjpgd.c:1297
						for (x = 0; x < w; x++) {
 8004244:	f1be 0f00 	cmp.w	lr, #0
 8004248:	d14e      	bne.n	80042e8 <jd_decomp+0xc08>
 800424a:	1cca      	adds	r2, r1, #3
 800424c:	eb01 050b 	add.w	r5, r1, fp
F:\AT32-workspace\AT32F403ACGU7_clone_windows_desktop_virtual_com_port\Release/../JPEG/tjpgd.c:1299
								r += *pix++;	//Накопление R
 8004250:	f812 8c03 	ldrb.w	r8, [r2, #-3]
 8004254:	4443      	add	r3, r8
F:\AT32-workspace\AT32F403ACGU7_clone_windows_desktop_virtual_com_port\Release/../JPEG/tjpgd.c:1300
								g += *pix++;	//Накопление G
 8004256:	f812 8c02 	ldrb.w	r8, [r2, #-2]
F:\AT32-workspace\AT32F403ACGU7_clone_windows_desktop_virtual_com_port\Release/../JPEG/tjpgd.c:1297
						for (x = 0; x < w; x++) {
 800425a:	3203      	adds	r2, #3
F:\AT32-workspace\AT32F403ACGU7_clone_windows_desktop_virtual_com_port\Release/../JPEG/tjpgd.c:1300
								g += *pix++;	//Накопление G
 800425c:	4446      	add	r6, r8
F:\AT32-workspace\AT32F403ACGU7_clone_windows_desktop_virtual_com_port\Release/../JPEG/tjpgd.c:1301
								b += *pix++;	//Накопление B
 800425e:	f812 8c04 	ldrb.w	r8, [r2, #-4]
F:\AT32-workspace\AT32F403ACGU7_clone_windows_desktop_virtual_com_port\Release/../JPEG/tjpgd.c:1297
						for (x = 0; x < w; x++) {
 8004262:	4295      	cmp	r5, r2
F:\AT32-workspace\AT32F403ACGU7_clone_windows_desktop_virtual_com_port\Release/../JPEG/tjpgd.c:1301
								b += *pix++;	//Накопление B
 8004264:	4444      	add	r4, r8
F:\AT32-workspace\AT32F403ACGU7_clone_windows_desktop_virtual_com_port\Release/../JPEG/tjpgd.c:1297
						for (x = 0; x < w; x++) {
 8004266:	d1f3      	bne.n	8004250 <jd_decomp+0xb70>
 8004268:	9a02      	ldr	r2, [sp, #8]
 800426a:	188a      	adds	r2, r1, r2
F:\AT32-workspace\AT32F403ACGU7_clone_windows_desktop_virtual_com_port\Release/../JPEG/tjpgd.c:1296
					for (y = 0; y < w; y++) {	//Накопление значений цветовых составляющих в квадрате
 800426c:	f10c 0c01 	add.w	ip, ip, #1
 8004270:	4560      	cmp	r0, ip
F:\AT32-workspace\AT32F403ACGU7_clone_windows_desktop_virtual_com_port\Release/../JPEG/tjpgd.c:1317
						pix += a; //Переход на следующую строку
 8004272:	eb02 010a 	add.w	r1, r2, sl
F:\AT32-workspace\AT32F403ACGU7_clone_windows_desktop_virtual_com_port\Release/../JPEG/tjpgd.c:1296
					for (y = 0; y < w; y++) {	//Накопление значений цветовых составляющих в квадрате
 8004276:	d1e5      	bne.n	8004244 <jd_decomp+0xb64>
F:\AT32-workspace\AT32F403ACGU7_clone_windows_desktop_virtual_com_port\Release/../JPEG/tjpgd.c:1321
						*op++ = (uint8_t)(r >> s);	//компонента R
 8004278:	9a07      	ldr	r2, [sp, #28]
 800427a:	40d3      	lsrs	r3, r2
F:\AT32-workspace\AT32F403ACGU7_clone_windows_desktop_virtual_com_port\Release/../JPEG/tjpgd.c:1320
					if (jd->color_format == 0) { //RGB888 (24-bit/pix)
 800427c:	f1be 0f00 	cmp.w	lr, #0
 8004280:	d120      	bne.n	80042c4 <jd_decomp+0xbe4>
F:\AT32-workspace\AT32F403ACGU7_clone_windows_desktop_virtual_com_port\Release/../JPEG/tjpgd.c:1321
						*op++ = (uint8_t)(r >> s);	//компонента R
 8004282:	9a06      	ldr	r2, [sp, #24]
F:\AT32-workspace\AT32F403ACGU7_clone_windows_desktop_virtual_com_port\Release/../JPEG/tjpgd.c:1322
						*op++ = (uint8_t)(g >> s);	//компонента G
 8004284:	9907      	ldr	r1, [sp, #28]
F:\AT32-workspace\AT32F403ACGU7_clone_windows_desktop_virtual_com_port\Release/../JPEG/tjpgd.c:1321
						*op++ = (uint8_t)(r >> s);	//компонента R
 8004286:	7013      	strb	r3, [r2, #0]
F:\AT32-workspace\AT32F403ACGU7_clone_windows_desktop_virtual_com_port\Release/../JPEG/tjpgd.c:1322
						*op++ = (uint8_t)(g >> s);	//компонента G
 8004288:	4613      	mov	r3, r2
 800428a:	40ce      	lsrs	r6, r1
F:\AT32-workspace\AT32F403ACGU7_clone_windows_desktop_virtual_com_port\Release/../JPEG/tjpgd.c:1323
						*op++ = (uint8_t)(b >> s);	//компонента B
 800428c:	40cc      	lsrs	r4, r1
 800428e:	3303      	adds	r3, #3
F:\AT32-workspace\AT32F403ACGU7_clone_windows_desktop_virtual_com_port\Release/../JPEG/tjpgd.c:1322
						*op++ = (uint8_t)(g >> s);	//компонента G
 8004290:	7056      	strb	r6, [r2, #1]
F:\AT32-workspace\AT32F403ACGU7_clone_windows_desktop_virtual_com_port\Release/../JPEG/tjpgd.c:1323
						*op++ = (uint8_t)(b >> s);	//компонента B
 8004292:	7094      	strb	r4, [r2, #2]
 8004294:	9306      	str	r3, [sp, #24]
F:\AT32-workspace\AT32F403ACGU7_clone_windows_desktop_virtual_com_port\Release/../JPEG/tjpgd.c:1293
				for (ix = 0; ix < mx; ix += w) {
 8004296:	9a03      	ldr	r2, [sp, #12]
 8004298:	9909      	ldr	r1, [sp, #36]	; 0x24
 800429a:	9b05      	ldr	r3, [sp, #20]
 800429c:	440a      	add	r2, r1
 800429e:	9203      	str	r2, [sp, #12]
 80042a0:	9a08      	ldr	r2, [sp, #32]
 80042a2:	4403      	add	r3, r0
 80042a4:	429a      	cmp	r2, r3
 80042a6:	9305      	str	r3, [sp, #20]
 80042a8:	f240 80c1 	bls.w	800442e <jd_decomp+0xd4e>
 80042ac:	9b01      	ldr	r3, [sp, #4]
F:\AT32-workspace\AT32F403ACGU7_clone_windows_desktop_virtual_com_port\Release/../JPEG/tjpgd.c:1294
					pix = (uint8_t*)workbuf + (iy * mx + ix) * k_byte;
 80042ae:	9903      	ldr	r1, [sp, #12]
 80042b0:	f893 e088 	ldrb.w	lr, [r3, #136]	; 0x88
F:\AT32-workspace\AT32F403ACGU7_clone_windows_desktop_virtual_com_port\Release/../JPEG/tjpgd.c:1296
					for (y = 0; y < w; y++) {	//Накопление значений цветовых составляющих в квадрате
 80042b4:	2800      	cmp	r0, #0
 80042b6:	d1c1      	bne.n	800423c <jd_decomp+0xb5c>
F:\AT32-workspace\AT32F403ACGU7_clone_windows_desktop_virtual_com_port\Release/../JPEG/tjpgd.c:1320
					if (jd->color_format == 0) { //RGB888 (24-bit/pix)
 80042b8:	4603      	mov	r3, r0
F:\AT32-workspace\AT32F403ACGU7_clone_windows_desktop_virtual_com_port\Release/../JPEG/tjpgd.c:1295
					r = g = b = 0;
 80042ba:	4604      	mov	r4, r0
 80042bc:	4606      	mov	r6, r0
F:\AT32-workspace\AT32F403ACGU7_clone_windows_desktop_virtual_com_port\Release/../JPEG/tjpgd.c:1320
					if (jd->color_format == 0) { //RGB888 (24-bit/pix)
 80042be:	f1be 0f00 	cmp.w	lr, #0
 80042c2:	d0de      	beq.n	8004282 <jd_decomp+0xba2>
F:\AT32-workspace\AT32F403ACGU7_clone_windows_desktop_virtual_com_port\Release/../JPEG/tjpgd.c:1325
					else if (jd->color_format == 1) { //RGB565 (16-bit/pix)
 80042c4:	f1be 0f01 	cmp.w	lr, #1
 80042c8:	f000 80a0 	beq.w	800440c <jd_decomp+0xd2c>
F:\AT32-workspace\AT32F403ACGU7_clone_windows_desktop_virtual_com_port\Release/../JPEG/tjpgd.c:1331
					else if (jd->color_format == 2) { //Grayscale (8-bit/pix)
 80042cc:	f1be 0f02 	cmp.w	lr, #2
 80042d0:	f000 80a8 	beq.w	8004424 <jd_decomp+0xd44>
F:\AT32-workspace\AT32F403ACGU7_clone_windows_desktop_virtual_com_port\Release/../JPEG/tjpgd.c:1336
						*((uint16_t*)op) = (r << 11) | (r << 6) | r; //значение компонент R, G, B одинаково
 80042d4:	b29b      	uxth	r3, r3
 80042d6:	019a      	lsls	r2, r3, #6
 80042d8:	ea42 22c3 	orr.w	r2, r2, r3, lsl #11
 80042dc:	4313      	orrs	r3, r2
 80042de:	9a06      	ldr	r2, [sp, #24]
 80042e0:	f822 3b02 	strh.w	r3, [r2], #2
 80042e4:	9206      	str	r2, [sp, #24]
F:\AT32-workspace\AT32F403ACGU7_clone_windows_desktop_virtual_com_port\Release/../JPEG/tjpgd.c:1337
						op += 2;
 80042e6:	e7d6      	b.n	8004296 <jd_decomp+0xbb6>
 80042e8:	f1be 0f01 	cmp.w	lr, #1
 80042ec:	d00f      	beq.n	800430e <jd_decomp+0xc2e>
 80042ee:	f1be 0f02 	cmp.w	lr, #2
 80042f2:	d01e      	beq.n	8004332 <jd_decomp+0xc52>
F:\AT32-workspace\AT32F403ACGU7_clone_windows_desktop_virtual_com_port\Release/../JPEG/tjpgd.c:1296
					for (y = 0; y < w; y++) {	//Накопление значений цветовых составляющих в квадрате
 80042f4:	4688      	mov	r8, r1
F:\AT32-workspace\AT32F403ACGU7_clone_windows_desktop_virtual_com_port\Release/../JPEG/tjpgd.c:1297
						for (x = 0; x < w; x++) {
 80042f6:	2500      	movs	r5, #0
F:\AT32-workspace\AT32F403ACGU7_clone_windows_desktop_virtual_com_port\Release/../JPEG/tjpgd.c:1313
								r += (*((uint16_t*)pix)) & 0x1f;	//Накопление Y (Grayscale 16-bit) */
 80042f8:	f838 2b02 	ldrh.w	r2, [r8], #2
F:\AT32-workspace\AT32F403ACGU7_clone_windows_desktop_virtual_com_port\Release/../JPEG/tjpgd.c:1297
						for (x = 0; x < w; x++) {
 80042fc:	3501      	adds	r5, #1
F:\AT32-workspace\AT32F403ACGU7_clone_windows_desktop_virtual_com_port\Release/../JPEG/tjpgd.c:1313
								r += (*((uint16_t*)pix)) & 0x1f;	//Накопление Y (Grayscale 16-bit) */
 80042fe:	f002 021f 	and.w	r2, r2, #31
F:\AT32-workspace\AT32F403ACGU7_clone_windows_desktop_virtual_com_port\Release/../JPEG/tjpgd.c:1297
						for (x = 0; x < w; x++) {
 8004302:	42a8      	cmp	r0, r5
F:\AT32-workspace\AT32F403ACGU7_clone_windows_desktop_virtual_com_port\Release/../JPEG/tjpgd.c:1313
								r += (*((uint16_t*)pix)) & 0x1f;	//Накопление Y (Grayscale 16-bit) */
 8004304:	4413      	add	r3, r2
F:\AT32-workspace\AT32F403ACGU7_clone_windows_desktop_virtual_com_port\Release/../JPEG/tjpgd.c:1297
						for (x = 0; x < w; x++) {
 8004306:	d1f7      	bne.n	80042f8 <jd_decomp+0xc18>
 8004308:	9a04      	ldr	r2, [sp, #16]
 800430a:	188a      	adds	r2, r1, r2
 800430c:	e7ae      	b.n	800426c <jd_decomp+0xb8c>
 800430e:	4688      	mov	r8, r1
 8004310:	2500      	movs	r5, #0
F:\AT32-workspace\AT32F403ACGU7_clone_windows_desktop_virtual_com_port\Release/../JPEG/tjpgd.c:1304
								r += ((*(uint16_t*)pix) >> 11) & 0x1f;		//Накопление R
 8004312:	f838 2b02 	ldrh.w	r2, [r8], #2
F:\AT32-workspace\AT32F403ACGU7_clone_windows_desktop_virtual_com_port\Release/../JPEG/tjpgd.c:1297
						for (x = 0; x < w; x++) {
 8004316:	3501      	adds	r5, #1
F:\AT32-workspace\AT32F403ACGU7_clone_windows_desktop_virtual_com_port\Release/../JPEG/tjpgd.c:1305
								g += ((*(uint16_t*)pix) >> 6) & 0x1f;		//Накопление G
 8004318:	f3c2 1984 	ubfx	r9, r2, #6, #5
F:\AT32-workspace\AT32F403ACGU7_clone_windows_desktop_virtual_com_port\Release/../JPEG/tjpgd.c:1304
								r += ((*(uint16_t*)pix) >> 11) & 0x1f;		//Накопление R
 800431c:	eb03 23d2 	add.w	r3, r3, r2, lsr #11
F:\AT32-workspace\AT32F403ACGU7_clone_windows_desktop_virtual_com_port\Release/../JPEG/tjpgd.c:1297
						for (x = 0; x < w; x++) {
 8004320:	42a8      	cmp	r0, r5
F:\AT32-workspace\AT32F403ACGU7_clone_windows_desktop_virtual_com_port\Release/../JPEG/tjpgd.c:1306
								b += (*(uint16_t*)pix) & 0x1f;//Накопление B
 8004322:	f002 021f 	and.w	r2, r2, #31
F:\AT32-workspace\AT32F403ACGU7_clone_windows_desktop_virtual_com_port\Release/../JPEG/tjpgd.c:1305
								g += ((*(uint16_t*)pix) >> 6) & 0x1f;		//Накопление G
 8004326:	444e      	add	r6, r9
F:\AT32-workspace\AT32F403ACGU7_clone_windows_desktop_virtual_com_port\Release/../JPEG/tjpgd.c:1306
								b += (*(uint16_t*)pix) & 0x1f;//Накопление B
 8004328:	4414      	add	r4, r2
F:\AT32-workspace\AT32F403ACGU7_clone_windows_desktop_virtual_com_port\Release/../JPEG/tjpgd.c:1297
						for (x = 0; x < w; x++) {
 800432a:	d1f2      	bne.n	8004312 <jd_decomp+0xc32>
 800432c:	9a04      	ldr	r2, [sp, #16]
 800432e:	188a      	adds	r2, r1, r2
 8004330:	e79c      	b.n	800426c <jd_decomp+0xb8c>
 8004332:	180a      	adds	r2, r1, r0
F:\AT32-workspace\AT32F403ACGU7_clone_windows_desktop_virtual_com_port\Release/../JPEG/tjpgd.c:1310
								r += *pix++;			//Накопление Y (Grayscale 8-bit) */
 8004334:	f811 5b01 	ldrb.w	r5, [r1], #1
F:\AT32-workspace\AT32F403ACGU7_clone_windows_desktop_virtual_com_port\Release/../JPEG/tjpgd.c:1297
						for (x = 0; x < w; x++) {
 8004338:	428a      	cmp	r2, r1
F:\AT32-workspace\AT32F403ACGU7_clone_windows_desktop_virtual_com_port\Release/../JPEG/tjpgd.c:1310
								r += *pix++;			//Накопление Y (Grayscale 8-bit) */
 800433a:	442b      	add	r3, r5
F:\AT32-workspace\AT32F403ACGU7_clone_windows_desktop_virtual_com_port\Release/../JPEG/tjpgd.c:1297
						for (x = 0; x < w; x++) {
 800433c:	d1fa      	bne.n	8004334 <jd_decomp+0xc54>
 800433e:	e795      	b.n	800426c <jd_decomp+0xb8c>
Convert_YCbCr_to_R5G6B5():
F:\AT32-workspace\AT32F403ACGU7_clone_windows_desktop_virtual_com_port\Release/../JPEG/tjpgd.c:76
	asm volatile (	"movs 	r2, #45						\n\t"
 8004340:	222d      	movs	r2, #45	; 0x2d
 8004342:	fb02 f20e 	mul.w	r2, r2, lr
 8004346:	eb08 1262 	add.w	r2, r8, r2, asr #5
 800434a:	f3a2 02c5 	usat	r2, #5, r2, asr #3
 800434e:	2117      	movs	r1, #23
 8004350:	fb01 f10e 	mul.w	r1, r1, lr
 8004354:	200b      	movs	r0, #11
 8004356:	fb00 110c 	mla	r1, r0, ip, r1
 800435a:	eba8 1161 	sub.w	r1, r8, r1, asr #5
 800435e:	f3a1 01c5 	usat	r1, #5, r1, asr #3
 8004362:	2071      	movs	r0, #113	; 0x71
 8004364:	fb00 f00c 	mul.w	r0, r0, ip
 8004368:	eb08 10a0 	add.w	r0, r8, r0, asr #6
 800436c:	f3a0 00c5 	usat	r0, #5, r0, asr #3
 8004370:	ea40 1081 	orr.w	r0, r0, r1, lsl #6
 8004374:	ea40 29c2 	orr.w	r9, r0, r2, lsl #11
mcu_output():
F:\AT32-workspace\AT32F403ACGU7_clone_windows_desktop_virtual_com_port\Release/../JPEG/tjpgd.c:1200
				for (ix = 0; ix < mx; ix++) {
 8004378:	3501      	adds	r5, #1
 800437a:	45ab      	cmp	fp, r5
F:\AT32-workspace\AT32F403ACGU7_clone_windows_desktop_virtual_com_port\Release/../JPEG/tjpgd.c:1218
						*((uint16_t*)pix) = Convert_YCbCr_to_R5G6B5(yy, cb, cr);
 800437c:	f824 9b02 	strh.w	r9, [r4], #2
F:\AT32-workspace\AT32F403ACGU7_clone_windows_desktop_virtual_com_port\Release/../JPEG/tjpgd.c:1200
				for (ix = 0; ix < mx; ix++) {
 8004380:	d127      	bne.n	80043d2 <jd_decomp+0xcf2>
 8004382:	e716      	b.n	80041b2 <jd_decomp+0xad2>
F:\AT32-workspace\AT32F403ACGU7_clone_windows_desktop_virtual_com_port\Release/../JPEG/tjpgd.c:1208
						pc++;					//Инкрементируем указатель цветности
 8004384:	4632      	mov	r2, r6
 8004386:	3302      	adds	r3, #2
F:\AT32-workspace\AT32F403ACGU7_clone_windows_desktop_virtual_com_port\Release/../JPEG/tjpgd.c:1210
					yy = *py++;			//Получаем компоненту интенсивности Y
 8004388:	f9b2 9000 	ldrsh.w	r9, [r2]
 800438c:	3602      	adds	r6, #2
Convert_YCbCr_to_R5G6B5():
F:\AT32-workspace\AT32F403ACGU7_clone_windows_desktop_virtual_com_port\Release/../JPEG/tjpgd.c:76
	asm volatile (	"movs 	r2, #45						\n\t"
 800438e:	222d      	movs	r2, #45	; 0x2d
 8004390:	fb02 f20e 	mul.w	r2, r2, lr
 8004394:	eb09 1262 	add.w	r2, r9, r2, asr #5
 8004398:	f3a2 02c5 	usat	r2, #5, r2, asr #3
 800439c:	2117      	movs	r1, #23
 800439e:	fb01 f10e 	mul.w	r1, r1, lr
 80043a2:	200b      	movs	r0, #11
 80043a4:	fb00 110c 	mla	r1, r0, ip, r1
 80043a8:	eba9 1161 	sub.w	r1, r9, r1, asr #5
 80043ac:	f3a1 01c5 	usat	r1, #5, r1, asr #3
 80043b0:	2071      	movs	r0, #113	; 0x71
 80043b2:	fb00 f00c 	mul.w	r0, r0, ip
 80043b6:	eb09 10a0 	add.w	r0, r9, r0, asr #6
 80043ba:	f3a0 00c5 	usat	r0, #5, r0, asr #3
 80043be:	ea40 1081 	orr.w	r0, r0, r1, lsl #6
 80043c2:	ea40 28c2 	orr.w	r8, r0, r2, lsl #11
mcu_output():
F:\AT32-workspace\AT32F403ACGU7_clone_windows_desktop_virtual_com_port\Release/../JPEG/tjpgd.c:1200
				for (ix = 0; ix < mx; ix++) {
 80043c6:	3501      	adds	r5, #1
 80043c8:	45ab      	cmp	fp, r5
F:\AT32-workspace\AT32F403ACGU7_clone_windows_desktop_virtual_com_port\Release/../JPEG/tjpgd.c:1218
						*((uint16_t*)pix) = Convert_YCbCr_to_R5G6B5(yy, cb, cr);
 80043ca:	f824 8b02 	strh.w	r8, [r4], #2
F:\AT32-workspace\AT32F403ACGU7_clone_windows_desktop_virtual_com_port\Release/../JPEG/tjpgd.c:1200
				for (ix = 0; ix < mx; ix++) {
 80043ce:	f67f aef0 	bls.w	80041b2 <jd_decomp+0xad2>
F:\AT32-workspace\AT32F403ACGU7_clone_windows_desktop_virtual_com_port\Release/../JPEG/tjpgd.c:1201
					cb = pc[0] - 128; 	//Получаем компоненты Cb и Cr and remove offset */
 80043d2:	f9b3 c000 	ldrsh.w	ip, [r3]
F:\AT32-workspace\AT32F403ACGU7_clone_windows_desktop_virtual_com_port\Release/../JPEG/tjpgd.c:1202
					cr = pc[64] - 128;
 80043d6:	f9b3 e080 	ldrsh.w	lr, [r3, #128]	; 0x80
F:\AT32-workspace\AT32F403ACGU7_clone_windows_desktop_virtual_com_port\Release/../JPEG/tjpgd.c:1203
					if (mx == 16) {					//Блок с удвоенной шириной?
 80043da:	f1bb 0f10 	cmp.w	fp, #16
F:\AT32-workspace\AT32F403ACGU7_clone_windows_desktop_virtual_com_port\Release/../JPEG/tjpgd.c:1201
					cb = pc[0] - 128; 	//Получаем компоненты Cb и Cr and remove offset */
 80043de:	f1ac 0c80 	sub.w	ip, ip, #128	; 0x80
F:\AT32-workspace\AT32F403ACGU7_clone_windows_desktop_virtual_com_port\Release/../JPEG/tjpgd.c:1202
					cr = pc[64] - 128;
 80043e2:	f1ae 0e80 	sub.w	lr, lr, #128	; 0x80
F:\AT32-workspace\AT32F403ACGU7_clone_windows_desktop_virtual_com_port\Release/../JPEG/tjpgd.c:1203
					if (mx == 16) {					//Блок с удвоенной шириной?
 80043e6:	d1cd      	bne.n	8004384 <jd_decomp+0xca4>
F:\AT32-workspace\AT32F403ACGU7_clone_windows_desktop_virtual_com_port\Release/../JPEG/tjpgd.c:1204
						if (ix == 8) py += 64 - 8;	/* Jump to next block if double block heigt */
 80043e8:	2d08      	cmp	r5, #8
F:\AT32-workspace\AT32F403ACGU7_clone_windows_desktop_virtual_com_port\Release/../JPEG/tjpgd.c:1205
						pc += ix & 1;				//Инкрементируем указатель цветности для каждого нечетного пикселя
 80043ea:	f005 0201 	and.w	r2, r5, #1
F:\AT32-workspace\AT32F403ACGU7_clone_windows_desktop_virtual_com_port\Release/../JPEG/tjpgd.c:1204
						if (ix == 8) py += 64 - 8;	/* Jump to next block if double block heigt */
 80043ee:	bf08      	it	eq
 80043f0:	3670      	addeq	r6, #112	; 0x70
F:\AT32-workspace\AT32F403ACGU7_clone_windows_desktop_virtual_com_port\Release/../JPEG/tjpgd.c:1205
						pc += ix & 1;				//Инкрементируем указатель цветности для каждого нечетного пикселя
 80043f2:	eb03 0342 	add.w	r3, r3, r2, lsl #1
 80043f6:	4632      	mov	r2, r6
 80043f8:	e7c6      	b.n	8004388 <jd_decomp+0xca8>
F:\AT32-workspace\AT32F403ACGU7_clone_windows_desktop_virtual_com_port\Release/../JPEG/tjpgd.c:1204
						if (ix == 8) py += 64 - 8;	/* Jump to next block if double block heigt */
 80043fa:	2d08      	cmp	r5, #8
F:\AT32-workspace\AT32F403ACGU7_clone_windows_desktop_virtual_com_port\Release/../JPEG/tjpgd.c:1205
						pc += ix & 1;				//Инкрементируем указатель цветности для каждого нечетного пикселя
 80043fc:	f005 0201 	and.w	r2, r5, #1
F:\AT32-workspace\AT32F403ACGU7_clone_windows_desktop_virtual_com_port\Release/../JPEG/tjpgd.c:1204
						if (ix == 8) py += 64 - 8;	/* Jump to next block if double block heigt */
 8004400:	bf08      	it	eq
 8004402:	3670      	addeq	r6, #112	; 0x70
F:\AT32-workspace\AT32F403ACGU7_clone_windows_desktop_virtual_com_port\Release/../JPEG/tjpgd.c:1205
						pc += ix & 1;				//Инкрементируем указатель цветности для каждого нечетного пикселя
 8004404:	eb03 0342 	add.w	r3, r3, r2, lsl #1
 8004408:	4631      	mov	r1, r6
 800440a:	e6a7      	b.n	800415c <jd_decomp+0xa7c>
F:\AT32-workspace\AT32F403ACGU7_clone_windows_desktop_virtual_com_port\Release/../JPEG/tjpgd.c:1328
										   (b >> s);		  	//компонента B
 800440c:	9a07      	ldr	r2, [sp, #28]
 800440e:	40d4      	lsrs	r4, r2
F:\AT32-workspace\AT32F403ACGU7_clone_windows_desktop_virtual_com_port\Release/../JPEG/tjpgd.c:1327
										   ((g >> s) << 6)  |	//компонента G
 8004410:	40d6      	lsrs	r6, r2
 8004412:	ea44 23c3 	orr.w	r3, r4, r3, lsl #11
F:\AT32-workspace\AT32F403ACGU7_clone_windows_desktop_virtual_com_port\Release/../JPEG/tjpgd.c:1326
						*((uint16_t*)op) = ((r >> s) << 11) |	//компонента R
 8004416:	9a06      	ldr	r2, [sp, #24]
F:\AT32-workspace\AT32F403ACGU7_clone_windows_desktop_virtual_com_port\Release/../JPEG/tjpgd.c:1327
										   ((g >> s) << 6)  |	//компонента G
 8004418:	ea43 1386 	orr.w	r3, r3, r6, lsl #6
F:\AT32-workspace\AT32F403ACGU7_clone_windows_desktop_virtual_com_port\Release/../JPEG/tjpgd.c:1326
						*((uint16_t*)op) = ((r >> s) << 11) |	//компонента R
 800441c:	f822 3b02 	strh.w	r3, [r2], #2
 8004420:	9206      	str	r2, [sp, #24]
F:\AT32-workspace\AT32F403ACGU7_clone_windows_desktop_virtual_com_port\Release/../JPEG/tjpgd.c:1329
						op += 2;
 8004422:	e738      	b.n	8004296 <jd_decomp+0xbb6>
F:\AT32-workspace\AT32F403ACGU7_clone_windows_desktop_virtual_com_port\Release/../JPEG/tjpgd.c:1332
						*op++ = (uint8_t)(r >> s);	/* средняя интенсивность Y (оттенки серого) */
 8004424:	9a06      	ldr	r2, [sp, #24]
 8004426:	f802 3b01 	strb.w	r3, [r2], #1
 800442a:	9206      	str	r2, [sp, #24]
 800442c:	e733      	b.n	8004296 <jd_decomp+0xbb6>
F:\AT32-workspace\AT32F403ACGU7_clone_windows_desktop_virtual_com_port\Release/../JPEG/tjpgd.c:1292
			for (iy = 0; iy < my; iy += w) {
 800442e:	9a10      	ldr	r2, [sp, #64]	; 0x40
 8004430:	9916      	ldr	r1, [sp, #88]	; 0x58
 8004432:	9b14      	ldr	r3, [sp, #80]	; 0x50
 8004434:	440a      	add	r2, r1
 8004436:	9210      	str	r2, [sp, #64]	; 0x40
 8004438:	9a0a      	ldr	r2, [sp, #40]	; 0x28
 800443a:	4403      	add	r3, r0
 800443c:	429a      	cmp	r2, r3
 800443e:	9314      	str	r3, [sp, #80]	; 0x50
 8004440:	d90d      	bls.n	800445e <jd_decomp+0xd7e>
 8004442:	9b01      	ldr	r3, [sp, #4]
 8004444:	f893 e088 	ldrb.w	lr, [r3, #136]	; 0x88
 8004448:	e6f1      	b.n	800422e <jd_decomp+0xb4e>
F:\AT32-workspace\AT32F403ACGU7_clone_windows_desktop_virtual_com_port\Release/../JPEG/tjpgd.c:1193
					pc += 64 * 4 + (iy >> 1) * 8;
 800444a:	9a02      	ldr	r2, [sp, #8]
 800444c:	0853      	lsrs	r3, r2, #1
 800444e:	3320      	adds	r3, #32
F:\AT32-workspace\AT32F403ACGU7_clone_windows_desktop_virtual_com_port\Release/../JPEG/tjpgd.c:1194
					if (iy >= 8) py += 64;
 8004450:	2a07      	cmp	r2, #7
F:\AT32-workspace\AT32F403ACGU7_clone_windows_desktop_virtual_com_port\Release/../JPEG/tjpgd.c:1193
					pc += 64 * 4 + (iy >> 1) * 8;
 8004452:	eb06 1303 	add.w	r3, r6, r3, lsl #4
F:\AT32-workspace\AT32F403ACGU7_clone_windows_desktop_virtual_com_port\Release/../JPEG/tjpgd.c:1194
					if (iy >= 8) py += 64;
 8004456:	f67f ae6c 	bls.w	8004132 <jd_decomp+0xa52>
 800445a:	3680      	adds	r6, #128	; 0x80
 800445c:	e669      	b.n	8004132 <jd_decomp+0xa52>
 800445e:	9b01      	ldr	r3, [sp, #4]
 8004460:	f8dd b020 	ldr.w	fp, [sp, #32]
 8004464:	f893 800d 	ldrb.w	r8, [r3, #13]
 8004468:	f7ff ba12 	b.w	8003890 <jd_decomp+0x1b0>
F:\AT32-workspace\AT32F403ACGU7_clone_windows_desktop_virtual_com_port\Release/../JPEG/tjpgd.c:1344
		pc = jd->mcubuf + mx * my;
 800446c:	9b01      	ldr	r3, [sp, #4]
 800446e:	990a      	ldr	r1, [sp, #40]	; 0x28
 8004470:	f8d3 408c 	ldr.w	r4, [r3, #140]	; 0x8c
 8004474:	fb01 f30b 	mul.w	r3, r1, fp
 8004478:	eb04 0243 	add.w	r2, r4, r3, lsl #1
F:\AT32-workspace\AT32F403ACGU7_clone_windows_desktop_virtual_com_port\Release/../JPEG/tjpgd.c:1345
		cb = pc[0] - 128;	//Получение значений компонент Cb/Cr
 800447c:	f934 9013 	ldrsh.w	r9, [r4, r3, lsl #1]
F:\AT32-workspace\AT32F403ACGU7_clone_windows_desktop_virtual_com_port\Release/../JPEG/tjpgd.c:1346
		cr = pc[64] - 128;
 8004480:	f9b2 c080 	ldrsh.w	ip, [r2, #128]	; 0x80
F:\AT32-workspace\AT32F403ACGU7_clone_windows_desktop_virtual_com_port\Release/../JPEG/tjpgd.c:1345
		cb = pc[0] - 128;	//Получение значений компонент Cb/Cr
 8004484:	f1a9 0980 	sub.w	r9, r9, #128	; 0x80
F:\AT32-workspace\AT32F403ACGU7_clone_windows_desktop_virtual_com_port\Release/../JPEG/tjpgd.c:1346
		cr = pc[64] - 128;
 8004488:	f1ac 0c80 	sub.w	ip, ip, #128	; 0x80
F:\AT32-workspace\AT32F403ACGU7_clone_windows_desktop_virtual_com_port\Release/../JPEG/tjpgd.c:1347
		for (iy = 0; iy < my; iy += 8) {
 800448c:	2900      	cmp	r1, #0
 800448e:	f43f a9ff 	beq.w	8003890 <jd_decomp+0x1b0>
 8004492:	f1bb 0f00 	cmp.w	fp, #0
 8004496:	f43f a9fb 	beq.w	8003890 <jd_decomp+0x1b0>
 800449a:	f04f 0a00 	mov.w	sl, #0
F:\AT32-workspace\AT32F403ACGU7_clone_windows_desktop_virtual_com_port\Release/../JPEG/tjpgd.c:1172
	uint8_t *pix = (uint8_t*)workbuf;
 800449e:	9b0c      	ldr	r3, [sp, #48]	; 0x30
F:\AT32-workspace\AT32F403ACGU7_clone_windows_desktop_virtual_com_port\Release/../JPEG/tjpgd.c:1347
		for (iy = 0; iy < my; iy += 8) {
 80044a0:	f8dd e004 	ldr.w	lr, [sp, #4]
 80044a4:	f8cd a008 	str.w	sl, [sp, #8]
F:\AT32-workspace\AT32F403ACGU7_clone_windows_desktop_virtual_com_port\Release/../JPEG/tjpgd.c:1350
			for (ix = 0; ix < mx; ix += 8) {
 80044a8:	3480      	adds	r4, #128	; 0x80
F:\AT32-workspace\AT32F403ACGU7_clone_windows_desktop_virtual_com_port\Release/../JPEG/tjpgd.c:1347
		for (iy = 0; iy < my; iy += 8) {
 80044aa:	2500      	movs	r5, #0
 80044ac:	e022      	b.n	80044f4 <jd_decomp+0xe14>
Convert_YCbCr_to_R8G8B8():
F:\AT32-workspace\AT32F403ACGU7_clone_windows_desktop_virtual_com_port\Release/../JPEG/tjpgd.c:123
	asm volatile (	"movs	r0, #45						\n\t"
 80044ae:	202d      	movs	r0, #45	; 0x2d
 80044b0:	fb00 f00c 	mul.w	r0, r0, ip
 80044b4:	eb06 1060 	add.w	r0, r6, r0, asr #5
 80044b8:	f380 0a08 	usat	sl, #8, r0
 80044bc:	2017      	movs	r0, #23
 80044be:	fb00 f10c 	mul.w	r1, r0, ip
 80044c2:	200b      	movs	r0, #11
 80044c4:	fb00 1009 	mla	r0, r0, r9, r1
 80044c8:	eba6 1060 	sub.w	r0, r6, r0, asr #5
 80044cc:	f380 0808 	usat	r8, #8, r0
 80044d0:	2071      	movs	r0, #113	; 0x71
 80044d2:	fb00 f009 	mul.w	r0, r0, r9
 80044d6:	eb06 10a0 	add.w	r0, r6, r0, asr #6
 80044da:	f380 0208 	usat	r2, #8, r0
mcu_output():
F:\AT32-workspace\AT32F403ACGU7_clone_windows_desktop_virtual_com_port\Release/../JPEG/tjpgd.c:1355
					*pix++ = r1;
 80044de:	f883 a000 	strb.w	sl, [r3]
F:\AT32-workspace\AT32F403ACGU7_clone_windows_desktop_virtual_com_port\Release/../JPEG/tjpgd.c:1356
					*pix++ = g1;
 80044e2:	f883 8001 	strb.w	r8, [r3, #1]
F:\AT32-workspace\AT32F403ACGU7_clone_windows_desktop_virtual_com_port\Release/../JPEG/tjpgd.c:1357
					*pix++ = b1;
 80044e6:	709a      	strb	r2, [r3, #2]
 80044e8:	3303      	adds	r3, #3
F:\AT32-workspace\AT32F403ACGU7_clone_windows_desktop_virtual_com_port\Release/../JPEG/tjpgd.c:1350
			for (ix = 0; ix < mx; ix += 8) {
 80044ea:	3508      	adds	r5, #8
 80044ec:	45ab      	cmp	fp, r5
 80044ee:	f104 0480 	add.w	r4, r4, #128	; 0x80
 80044f2:	d916      	bls.n	8004522 <jd_decomp+0xe42>
F:\AT32-workspace\AT32F403ACGU7_clone_windows_desktop_virtual_com_port\Release/../JPEG/tjpgd.c:1353
				if (jd->color_format == 0) { //RGB888 (24-bit/pix)
 80044f4:	f89e 2088 	ldrb.w	r2, [lr, #136]	; 0x88
F:\AT32-workspace\AT32F403ACGU7_clone_windows_desktop_virtual_com_port\Release/../JPEG/tjpgd.c:1351
				yy = *py;	//Получение значения компоненты Y (интенсивность)
 80044f8:	f934 6c80 	ldrsh.w	r6, [r4, #-128]
F:\AT32-workspace\AT32F403ACGU7_clone_windows_desktop_virtual_com_port\Release/../JPEG/tjpgd.c:1353
				if (jd->color_format == 0) { //RGB888 (24-bit/pix)
 80044fc:	2a00      	cmp	r2, #0
 80044fe:	d0d6      	beq.n	80044ae <jd_decomp+0xdce>
F:\AT32-workspace\AT32F403ACGU7_clone_windows_desktop_virtual_com_port\Release/../JPEG/tjpgd.c:1359
				else if (jd->color_format == 1) { //R5G6B5 (16-bit/pix)
 8004500:	2a01      	cmp	r2, #1
 8004502:	d01b      	beq.n	800453c <jd_decomp+0xe5c>
F:\AT32-workspace\AT32F403ACGU7_clone_windows_desktop_virtual_com_port\Release/../JPEG/tjpgd.c:1363
				else if (jd->color_format == 2) { //Grayscale (8-bit/pix)
 8004504:	2a02      	cmp	r2, #2
 8004506:	d038      	beq.n	800457a <jd_decomp+0xe9a>
Convert_Y_to_Grayscale16():
F:\AT32-workspace\AT32F403ACGU7_clone_windows_desktop_virtual_com_port\Release/../JPEG/tjpgd.c:106
	asm volatile (	"usat 	r0, #5, %[yy], asr #3			\n\t"
 8004508:	f3a6 00c5 	usat	r0, #5, r6, asr #3
 800450c:	ea40 1280 	orr.w	r2, r0, r0, lsl #6
 8004510:	ea42 22c0 	orr.w	r2, r2, r0, lsl #11
mcu_output():
F:\AT32-workspace\AT32F403ACGU7_clone_windows_desktop_virtual_com_port\Release/../JPEG/tjpgd.c:1350
			for (ix = 0; ix < mx; ix += 8) {
 8004514:	3508      	adds	r5, #8
 8004516:	45ab      	cmp	fp, r5
F:\AT32-workspace\AT32F403ACGU7_clone_windows_desktop_virtual_com_port\Release/../JPEG/tjpgd.c:1367
					*((uint16_t*)pix) = Convert_Y_to_Grayscale16(yy); //Преобразование Y в R5G6B5 (32 оттенка серого)
 8004518:	f823 2b02 	strh.w	r2, [r3], #2
F:\AT32-workspace\AT32F403ACGU7_clone_windows_desktop_virtual_com_port\Release/../JPEG/tjpgd.c:1350
			for (ix = 0; ix < mx; ix += 8) {
 800451c:	f104 0480 	add.w	r4, r4, #128	; 0x80
 8004520:	d8e8      	bhi.n	80044f4 <jd_decomp+0xe14>
F:\AT32-workspace\AT32F403ACGU7_clone_windows_desktop_virtual_com_port\Release/../JPEG/tjpgd.c:1347
		for (iy = 0; iy < my; iy += 8) {
 8004522:	9a02      	ldr	r2, [sp, #8]
 8004524:	990a      	ldr	r1, [sp, #40]	; 0x28
 8004526:	3208      	adds	r2, #8
 8004528:	4291      	cmp	r1, r2
 800452a:	9202      	str	r2, [sp, #8]
 800452c:	d928      	bls.n	8004580 <jd_decomp+0xea0>
F:\AT32-workspace\AT32F403ACGU7_clone_windows_desktop_virtual_com_port\Release/../JPEG/tjpgd.c:1349
			if (iy == 8) py += 64 * 2;
 800452e:	2a08      	cmp	r2, #8
F:\AT32-workspace\AT32F403ACGU7_clone_windows_desktop_virtual_com_port\Release/../JPEG/tjpgd.c:1348
			py = jd->mcubuf;
 8004530:	f8de 408c 	ldr.w	r4, [lr, #140]	; 0x8c
F:\AT32-workspace\AT32F403ACGU7_clone_windows_desktop_virtual_com_port\Release/../JPEG/tjpgd.c:1349
			if (iy == 8) py += 64 * 2;
 8004534:	d1b8      	bne.n	80044a8 <jd_decomp+0xdc8>
 8004536:	f504 7480 	add.w	r4, r4, #256	; 0x100
 800453a:	e7b5      	b.n	80044a8 <jd_decomp+0xdc8>
Convert_YCbCr_to_R5G6B5():
F:\AT32-workspace\AT32F403ACGU7_clone_windows_desktop_virtual_com_port\Release/../JPEG/tjpgd.c:76
	asm volatile (	"movs 	r2, #45						\n\t"
 800453c:	222d      	movs	r2, #45	; 0x2d
 800453e:	fb02 f20c 	mul.w	r2, r2, ip
 8004542:	eb06 1262 	add.w	r2, r6, r2, asr #5
 8004546:	f3a2 02c5 	usat	r2, #5, r2, asr #3
 800454a:	2117      	movs	r1, #23
 800454c:	fb01 f10c 	mul.w	r1, r1, ip
 8004550:	200b      	movs	r0, #11
 8004552:	fb00 1109 	mla	r1, r0, r9, r1
 8004556:	eba6 1161 	sub.w	r1, r6, r1, asr #5
 800455a:	f3a1 01c5 	usat	r1, #5, r1, asr #3
 800455e:	2071      	movs	r0, #113	; 0x71
 8004560:	fb00 f009 	mul.w	r0, r0, r9
 8004564:	eb06 10a0 	add.w	r0, r6, r0, asr #6
 8004568:	f3a0 00c5 	usat	r0, #5, r0, asr #3
 800456c:	ea40 1081 	orr.w	r0, r0, r1, lsl #6
 8004570:	ea40 28c2 	orr.w	r8, r0, r2, lsl #11
mcu_output():
F:\AT32-workspace\AT32F403ACGU7_clone_windows_desktop_virtual_com_port\Release/../JPEG/tjpgd.c:1360
					*((uint16_t*)pix) = Convert_YCbCr_to_R5G6B5(yy, cb, cr); //Преобразование YCbCr в R5G6B5
 8004574:	f823 8b02 	strh.w	r8, [r3], #2
F:\AT32-workspace\AT32F403ACGU7_clone_windows_desktop_virtual_com_port\Release/../JPEG/tjpgd.c:1361
					pix += 2;
 8004578:	e7b7      	b.n	80044ea <jd_decomp+0xe0a>
F:\AT32-workspace\AT32F403ACGU7_clone_windows_desktop_virtual_com_port\Release/../JPEG/tjpgd.c:1364
					*pix++ = yy;
 800457a:	f803 6b01 	strb.w	r6, [r3], #1
 800457e:	e7b4      	b.n	80044ea <jd_decomp+0xe0a>
 8004580:	9b01      	ldr	r3, [sp, #4]
 8004582:	f893 800d 	ldrb.w	r8, [r3, #13]
 8004586:	f7ff b983 	b.w	8003890 <jd_decomp+0x1b0>
mcu_load():
F:\AT32-workspace\AT32F403ACGU7_clone_windows_desktop_virtual_com_port\Release/../JPEG/tjpgd.c:1118
					if (d < 0) return (JRESULT)(0 - d);	/* Err: input device */
 800458a:	4264      	negs	r4, r4
 800458c:	b2e4      	uxtb	r4, r4
jd_decomp():
F:\AT32-workspace\AT32F403ACGU7_clone_windows_desktop_virtual_com_port\Release/../JPEG/tjpgd.c:1783
			if (rc != JDR_OK) return rc;
 800458e:	2c00      	cmp	r4, #0
 8004590:	f43f a902 	beq.w	8003798 <jd_decomp+0xb8>
 8004594:	4620      	mov	r0, r4
 8004596:	f7ff baf1 	b.w	8003b7c <jd_decomp+0x49c>
mcu_output():
F:\AT32-workspace\AT32F403ACGU7_clone_windows_desktop_virtual_com_port\Release/../JPEG/tjpgd.c:1282
			w = 1 << jd->scale;	//Размерность квадрата
 800459a:	2001      	movs	r0, #1
 800459c:	fa00 f008 	lsl.w	r0, r0, r8
F:\AT32-workspace\AT32F403ACGU7_clone_windows_desktop_virtual_com_port\Release/../JPEG/tjpgd.c:1281
			s = jd->scale * 2;	//Число значений для расчета среднего
 80045a0:	ea4f 0348 	mov.w	r3, r8, lsl #1
 80045a4:	9307      	str	r3, [sp, #28]
F:\AT32-workspace\AT32F403ACGU7_clone_windows_desktop_virtual_com_port\Release/../JPEG/tjpgd.c:1283
			a = mx - w; //Количество байт, которое необходимо пропустить для перехода на следующую строку
 80045a6:	ebab 0a00 	sub.w	sl, fp, r0
F:\AT32-workspace\AT32F403ACGU7_clone_windows_desktop_virtual_com_port\Release/../JPEG/tjpgd.c:1288
			else if (jd->color_format == 1 || jd->color_format == 3) {
 80045aa:	f1be 0f03 	cmp.w	lr, #3
 80045ae:	d023      	beq.n	80045f8 <jd_decomp+0xf18>
 80045b0:	2301      	movs	r3, #1
 80045b2:	e620      	b.n	80041f6 <jd_decomp+0xb16>
restart():
F:\AT32-workspace\AT32F403ACGU7_clone_windows_desktop_virtual_com_port\Release/../JPEG/tjpgd.c:881
	size_t dc = jd->dctr;
 80045b4:	e9d2 1500 	ldrd	r1, r5, [r2]
 80045b8:	2602      	movs	r6, #2
 80045ba:	4690      	mov	r8, r2
F:\AT32-workspace\AT32F403ACGU7_clone_windows_desktop_virtual_com_port\Release/../JPEG/tjpgd.c:917
				dc = jd->infunc(jd, dp, JD_SZBUF);
 80045bc:	f44f 6280 	mov.w	r2, #1024	; 0x400
 80045c0:	4640      	mov	r0, r8
F:\AT32-workspace\AT32F403ACGU7_clone_windows_desktop_virtual_com_port\Release/../JPEG/tjpgd.c:915
			if (!dc) {		/* No input data is available, re-fill input buffer */
 80045c2:	b949      	cbnz	r1, 80045d8 <jd_decomp+0xef8>
F:\AT32-workspace\AT32F403ACGU7_clone_windows_desktop_virtual_com_port\Release/../JPEG/tjpgd.c:916
				dp = jd->inbuf;
 80045c4:	f8d8 5008 	ldr.w	r5, [r8, #8]
F:\AT32-workspace\AT32F403ACGU7_clone_windows_desktop_virtual_com_port\Release/../JPEG/tjpgd.c:917
				dc = jd->infunc(jd, dp, JD_SZBUF);
 80045c8:	f8d8 3098 	ldr.w	r3, [r8, #152]	; 0x98
 80045cc:	4629      	mov	r1, r5
 80045ce:	4798      	blx	r3
F:\AT32-workspace\AT32F403ACGU7_clone_windows_desktop_virtual_com_port\Release/../JPEG/tjpgd.c:918
				if (!dc) return JDR_INP;
 80045d0:	4601      	mov	r1, r0
 80045d2:	2800      	cmp	r0, #0
 80045d4:	f43f ac78 	beq.w	8003ec8 <jd_decomp+0x7e8>
F:\AT32-workspace\AT32F403ACGU7_clone_windows_desktop_virtual_com_port\Release/../JPEG/tjpgd.c:920
			marker = (marker << 8) | *dp++;	/* Get a byte */
 80045d8:	f815 3b01 	ldrb.w	r3, [r5], #1
F:\AT32-workspace\AT32F403ACGU7_clone_windows_desktop_virtual_com_port\Release/../JPEG/tjpgd.c:914
		for (i = 0; i < 2; i++) {	/* Get a restart marker */
 80045dc:	2e01      	cmp	r6, #1
F:\AT32-workspace\AT32F403ACGU7_clone_windows_desktop_virtual_com_port\Release/../JPEG/tjpgd.c:920
			marker = (marker << 8) | *dp++;	/* Get a byte */
 80045de:	ea43 2404 	orr.w	r4, r3, r4, lsl #8
F:\AT32-workspace\AT32F403ACGU7_clone_windows_desktop_virtual_com_port\Release/../JPEG/tjpgd.c:921
			dc--;
 80045e2:	f101 31ff 	add.w	r1, r1, #4294967295
F:\AT32-workspace\AT32F403ACGU7_clone_windows_desktop_virtual_com_port\Release/../JPEG/tjpgd.c:920
			marker = (marker << 8) | *dp++;	/* Get a byte */
 80045e6:	b2a4      	uxth	r4, r4
F:\AT32-workspace\AT32F403ACGU7_clone_windows_desktop_virtual_com_port\Release/../JPEG/tjpgd.c:914
		for (i = 0; i < 2; i++) {	/* Get a restart marker */
 80045e8:	d10a      	bne.n	8004600 <jd_decomp+0xf20>
F:\AT32-workspace\AT32F403ACGU7_clone_windows_desktop_virtual_com_port\Release/../JPEG/tjpgd.c:923
		jd->dptr = dp; jd->dctr = dc;
 80045ea:	9b01      	ldr	r3, [sp, #4]
 80045ec:	e9c3 1500 	strd	r1, r5, [r3]
 80045f0:	e556      	b.n	80040a0 <jd_decomp+0x9c0>
mcu_output():
F:\AT32-workspace\AT32F403ACGU7_clone_windows_desktop_virtual_com_port\Release/../JPEG/tjpgd.c:1288
			else if (jd->color_format == 1 || jd->color_format == 3) {
 80045f2:	f1be 0f01 	cmp.w	lr, #1
 80045f6:	d1d8      	bne.n	80045aa <jd_decomp+0xeca>
F:\AT32-workspace\AT32F403ACGU7_clone_windows_desktop_virtual_com_port\Release/../JPEG/tjpgd.c:1291
			a *= k_byte;
 80045f8:	ea4f 0a4a 	mov.w	sl, sl, lsl #1
 80045fc:	2302      	movs	r3, #2
 80045fe:	e5fa      	b.n	80041f6 <jd_decomp+0xb16>
restart():
F:\AT32-workspace\AT32F403ACGU7_clone_windows_desktop_virtual_com_port\Release/../JPEG/tjpgd.c:1291
 8004600:	2601      	movs	r6, #1
 8004602:	e7db      	b.n	80045bc <jd_decomp+0xedc>
jd_decomp():
F:\AT32-workspace\AT32F403ACGU7_clone_windows_desktop_virtual_com_port\Release/../JPEG/tjpgd.c:1766
	if (scale > (JD_USE_SCALE ? 3 : 0)) return JDR_PAR;
 8004604:	2005      	movs	r0, #5
 8004606:	f7ff bab9 	b.w	8003b7c <jd_decomp+0x49c>
 800460a:	4634      	mov	r4, r6
 800460c:	464e      	mov	r6, r9
 800460e:	46d1      	mov	r9, sl
 8004610:	468a      	mov	sl, r1
 8004612:	e4ed      	b.n	8003ff0 <jd_decomp+0x910>
bitext():
F:\AT32-workspace\AT32F403ACGU7_clone_windows_desktop_virtual_com_port\Release/../JPEG/tjpgd.c:860
	jd->wreg = w; jd->dbit = wbit - nbit;
 8004614:	9a01      	ldr	r2, [sp, #4]
 8004616:	1b9b      	subs	r3, r3, r6
 8004618:	7313      	strb	r3, [r2, #12]
F:\AT32-workspace\AT32F403ACGU7_clone_windows_desktop_virtual_com_port\Release/../JPEG/tjpgd.c:863
	return (int)(w >> ((wbit - nbit) % 32));
 800461a:	f003 031f 	and.w	r3, r3, #31
F:\AT32-workspace\AT32F403ACGU7_clone_windows_desktop_virtual_com_port\Release/../JPEG/tjpgd.c:860
	jd->wreg = w; jd->dbit = wbit - nbit;
 800461e:	6614      	str	r4, [r2, #96]	; 0x60
F:\AT32-workspace\AT32F403ACGU7_clone_windows_desktop_virtual_com_port\Release/../JPEG/tjpgd.c:863
	return (int)(w >> ((wbit - nbit) % 32));
 8004620:	40dc      	lsrs	r4, r3
 8004622:	4622      	mov	r2, r4
mcu_load():
F:\AT32-workspace\AT32F403ACGU7_clone_windows_desktop_virtual_com_port\Release/../JPEG/tjpgd.c:1093
				if (e < 0) return (JRESULT)(0 - e);	/* Err: input */
 8004624:	e4f1      	b.n	800400a <jd_decomp+0x92a>
jd_decomp():
 8004626:	bf00      	nop

08004628 <LCD_String_Interpretator>:
LCD_String_Interpretator():
F:\AT32-workspace\AT32F403ACGU7_clone_windows_desktop_virtual_com_port\Release/../Display/display.c:98
	}
}

//интерпретатор строк с управлящими кодами: "команда", "данные", "пауза", "завершение пакета"
void LCD_String_Interpretator(LCD_Handler* lcd, uint8_t *str)
{
 8004628:	b5f8      	push	{r3, r4, r5, r6, r7, lr}
F:\AT32-workspace\AT32F403ACGU7_clone_windows_desktop_virtual_com_port\Release/../Display/display.c:99
	spi_type *spi = lcd->spi_data.spi;
 800462a:	6a45      	ldr	r5, [r0, #36]	; 0x24
F:\AT32-workspace\AT32F403ACGU7_clone_windows_desktop_virtual_com_port\Release/../Display/display.c:98
{
 800462c:	4604      	mov	r4, r0
F:\AT32-workspace\AT32F403ACGU7_clone_windows_desktop_virtual_com_port\Release/../Display/display.c:101 (discriminator 1)
	int i;
	while (spi->ctrl1_bit.spien) ; //ждем когда дисплей освободится
 800462e:	682b      	ldr	r3, [r5, #0]
 8004630:	065f      	lsls	r7, r3, #25
 8004632:	f3c3 1280 	ubfx	r2, r3, #6, #1
 8004636:	d4fa      	bmi.n	800462e <LCD_String_Interpretator+0x6>
F:\AT32-workspace\AT32F403ACGU7_clone_windows_desktop_virtual_com_port\Release/../Display/display.c:102
	spi->ctrl1_bit.fbn = SPI_FRAME_8BIT; //8-битная передача
 8004638:	682b      	ldr	r3, [r5, #0]
 800463a:	f362 23cb 	bfi	r3, r2, #11, #1
 800463e:	602b      	str	r3, [r5, #0]
F:\AT32-workspace\AT32F403ACGU7_clone_windows_desktop_virtual_com_port\Release/../Display/display.c:103
	spi->ctrl1_bit.spien = TRUE; //SPI включаем
 8004640:	682b      	ldr	r3, [r5, #0]
 8004642:	f043 0340 	orr.w	r3, r3, #64	; 0x40
 8004646:	602b      	str	r3, [r5, #0]
F:\AT32-workspace\AT32F403ACGU7_clone_windows_desktop_virtual_com_port\Release/../Display/display.c:104
	LCD_CS_LOW
 8004648:	6c23      	ldr	r3, [r4, #64]	; 0x40
 800464a:	b113      	cbz	r3, 8004652 <LCD_String_Interpretator+0x2a>
F:\AT32-workspace\AT32F403ACGU7_clone_windows_desktop_virtual_com_port\Release/../Display/display.c:104 (discriminator 1)
 800464c:	f8b4 2044 	ldrh.w	r2, [r4, #68]	; 0x44
 8004650:	615a      	str	r2, [r3, #20]
F:\AT32-workspace\AT32F403ACGU7_clone_windows_desktop_virtual_com_port\Release/../Display/display.c:106
	while (1) {
		switch (*str++) {
 8004652:	780b      	ldrb	r3, [r1, #0]
 8004654:	2b01      	cmp	r3, #1
 8004656:	d035      	beq.n	80046c4 <LCD_String_Interpretator+0x9c>
 8004658:	2b02      	cmp	r3, #2
 800465a:	d04d      	beq.n	80046f8 <LCD_String_Interpretator+0xd0>
 800465c:	b14b      	cbz	r3, 8004672 <LCD_String_Interpretator+0x4a>
F:\AT32-workspace\AT32F403ACGU7_clone_windows_desktop_virtual_com_port\Release/../Display/display.c:135
				delay_ms(*str++);
				break;
			//управляющий код "завершение пакета"
			case LCD_UPR_END:
			default:
				LCD_CS_HI
 800465e:	6c23      	ldr	r3, [r4, #64]	; 0x40
 8004660:	b113      	cbz	r3, 8004668 <LCD_String_Interpretator+0x40>
F:\AT32-workspace\AT32F403ACGU7_clone_windows_desktop_virtual_com_port\Release/../Display/display.c:135 (discriminator 1)
 8004662:	f8b4 2044 	ldrh.w	r2, [r4, #68]	; 0x44
 8004666:	611a      	str	r2, [r3, #16]
F:\AT32-workspace\AT32F403ACGU7_clone_windows_desktop_virtual_com_port\Release/../Display/display.c:136
				spi->ctrl1_bit.spien = FALSE; //выключаем spi
 8004668:	682b      	ldr	r3, [r5, #0]
 800466a:	f36f 1386 	bfc	r3, #6, #1
 800466e:	602b      	str	r3, [r5, #0]
F:\AT32-workspace\AT32F403ACGU7_clone_windows_desktop_virtual_com_port\Release/../Display/display.c:140
				return;
		}
	}
}
 8004670:	bdf8      	pop	{r3, r4, r5, r6, r7, pc}
LCD_WRITE_DC():
F:\AT32-workspace\AT32F403ACGU7_clone_windows_desktop_virtual_com_port\Release/../Display/display.c:74
	spi_type *spi = lcd->spi_data.spi;
 8004672:	6a63      	ldr	r3, [r4, #36]	; 0x24
F:\AT32-workspace\AT32F403ACGU7_clone_windows_desktop_virtual_com_port\Release/../Display/display.c:76
		LCD_DC_LOW
 8004674:	6ba0      	ldr	r0, [r4, #56]	; 0x38
LCD_String_Interpretator():
F:\AT32-workspace\AT32F403ACGU7_clone_windows_desktop_virtual_com_port\Release/../Display/display.c:110
				LCD_WRITE_DC(lcd, *str++, lcd_write_command);
 8004676:	784a      	ldrb	r2, [r1, #1]
LCD_WRITE_DC():
F:\AT32-workspace\AT32F403ACGU7_clone_windows_desktop_virtual_com_port\Release/../Display/display.c:76
		LCD_DC_LOW
 8004678:	8fa6      	ldrh	r6, [r4, #60]	; 0x3c
 800467a:	6146      	str	r6, [r0, #20]
F:\AT32-workspace\AT32F403ACGU7_clone_windows_desktop_virtual_com_port\Release/../Display/display.c:81
	*((volatile uint8_t *)&spi->dt) = data;
 800467c:	731a      	strb	r2, [r3, #12]
F:\AT32-workspace\AT32F403ACGU7_clone_windows_desktop_virtual_com_port\Release/../Display/display.c:82
	while(!spi->sts_bit.tdbe) ; //ждем окончания передачи
 800467e:	689a      	ldr	r2, [r3, #8]
 8004680:	0796      	lsls	r6, r2, #30
 8004682:	d5fc      	bpl.n	800467e <LCD_String_Interpretator+0x56>
F:\AT32-workspace\AT32F403ACGU7_clone_windows_desktop_virtual_com_port\Release/../Display/display.c:83
	while(spi->sts_bit.bf) ; 	//ждем когда SPI освободится
 8004684:	689a      	ldr	r2, [r3, #8]
 8004686:	0610      	lsls	r0, r2, #24
 8004688:	d4fc      	bmi.n	8004684 <LCD_String_Interpretator+0x5c>
LCD_String_Interpretator():
F:\AT32-workspace\AT32F403ACGU7_clone_windows_desktop_virtual_com_port\Release/../Display/display.c:112
				i = *str++;
 800468a:	788f      	ldrb	r7, [r1, #2]
 800468c:	f101 0e03 	add.w	lr, r1, #3
F:\AT32-workspace\AT32F403ACGU7_clone_windows_desktop_virtual_com_port\Release/../Display/display.c:114
				while(i--) {
 8004690:	2f00      	cmp	r7, #0
 8004692:	d037      	beq.n	8004704 <LCD_String_Interpretator+0xdc>
 8004694:	f107 0c03 	add.w	ip, r7, #3
 8004698:	448c      	add	ip, r1
F:\AT32-workspace\AT32F403ACGU7_clone_windows_desktop_virtual_com_port\Release/../Display/display.c:112
				i = *str++;
 800469a:	4671      	mov	r1, lr
LCD_WRITE_DC():
F:\AT32-workspace\AT32F403ACGU7_clone_windows_desktop_virtual_com_port\Release/../Display/display.c:74
	spi_type *spi = lcd->spi_data.spi;
 800469c:	6a63      	ldr	r3, [r4, #36]	; 0x24
F:\AT32-workspace\AT32F403ACGU7_clone_windows_desktop_virtual_com_port\Release/../Display/display.c:79
		LCD_DC_HI
 800469e:	6ba0      	ldr	r0, [r4, #56]	; 0x38
LCD_String_Interpretator():
F:\AT32-workspace\AT32F403ACGU7_clone_windows_desktop_virtual_com_port\Release/../Display/display.c:115
					LCD_WRITE_DC(lcd, *str++, lcd_write_data);
 80046a0:	f811 2b01 	ldrb.w	r2, [r1], #1
LCD_WRITE_DC():
F:\AT32-workspace\AT32F403ACGU7_clone_windows_desktop_virtual_com_port\Release/../Display/display.c:79
		LCD_DC_HI
 80046a4:	8fa6      	ldrh	r6, [r4, #60]	; 0x3c
 80046a6:	6106      	str	r6, [r0, #16]
F:\AT32-workspace\AT32F403ACGU7_clone_windows_desktop_virtual_com_port\Release/../Display/display.c:81
	*((volatile uint8_t *)&spi->dt) = data;
 80046a8:	731a      	strb	r2, [r3, #12]
F:\AT32-workspace\AT32F403ACGU7_clone_windows_desktop_virtual_com_port\Release/../Display/display.c:82
	while(!spi->sts_bit.tdbe) ; //ждем окончания передачи
 80046aa:	689a      	ldr	r2, [r3, #8]
 80046ac:	0792      	lsls	r2, r2, #30
 80046ae:	d5fc      	bpl.n	80046aa <LCD_String_Interpretator+0x82>
F:\AT32-workspace\AT32F403ACGU7_clone_windows_desktop_virtual_com_port\Release/../Display/display.c:83
	while(spi->sts_bit.bf) ; 	//ждем когда SPI освободится
 80046b0:	689a      	ldr	r2, [r3, #8]
 80046b2:	0616      	lsls	r6, r2, #24
 80046b4:	d4fc      	bmi.n	80046b0 <LCD_String_Interpretator+0x88>
LCD_String_Interpretator():
F:\AT32-workspace\AT32F403ACGU7_clone_windows_desktop_virtual_com_port\Release/../Display/display.c:114
				while(i--) {
 80046b6:	458c      	cmp	ip, r1
 80046b8:	d1f0      	bne.n	800469c <LCD_String_Interpretator+0x74>
F:\AT32-workspace\AT32F403ACGU7_clone_windows_desktop_virtual_com_port\Release/../Display/display.c:124
					LCD_WRITE_DC(lcd, *str++, lcd_write_data);
 80046ba:	eb0e 0107 	add.w	r1, lr, r7
F:\AT32-workspace\AT32F403ACGU7_clone_windows_desktop_virtual_com_port\Release/../Display/display.c:106
		switch (*str++) {
 80046be:	780b      	ldrb	r3, [r1, #0]
 80046c0:	2b01      	cmp	r3, #1
 80046c2:	d1c9      	bne.n	8004658 <LCD_String_Interpretator+0x30>
F:\AT32-workspace\AT32F403ACGU7_clone_windows_desktop_virtual_com_port\Release/../Display/display.c:121
				i = *str++;
 80046c4:	784f      	ldrb	r7, [r1, #1]
 80046c6:	f101 0e02 	add.w	lr, r1, #2
F:\AT32-workspace\AT32F403ACGU7_clone_windows_desktop_virtual_com_port\Release/../Display/display.c:123
				while(i--) {
 80046ca:	b1df      	cbz	r7, 8004704 <LCD_String_Interpretator+0xdc>
 80046cc:	f107 0c02 	add.w	ip, r7, #2
 80046d0:	448c      	add	ip, r1
F:\AT32-workspace\AT32F403ACGU7_clone_windows_desktop_virtual_com_port\Release/../Display/display.c:121
				i = *str++;
 80046d2:	4671      	mov	r1, lr
LCD_WRITE_DC():
F:\AT32-workspace\AT32F403ACGU7_clone_windows_desktop_virtual_com_port\Release/../Display/display.c:74
	spi_type *spi = lcd->spi_data.spi;
 80046d4:	6a63      	ldr	r3, [r4, #36]	; 0x24
F:\AT32-workspace\AT32F403ACGU7_clone_windows_desktop_virtual_com_port\Release/../Display/display.c:79
		LCD_DC_HI
 80046d6:	6ba0      	ldr	r0, [r4, #56]	; 0x38
LCD_String_Interpretator():
F:\AT32-workspace\AT32F403ACGU7_clone_windows_desktop_virtual_com_port\Release/../Display/display.c:124
					LCD_WRITE_DC(lcd, *str++, lcd_write_data);
 80046d8:	f811 2b01 	ldrb.w	r2, [r1], #1
LCD_WRITE_DC():
F:\AT32-workspace\AT32F403ACGU7_clone_windows_desktop_virtual_com_port\Release/../Display/display.c:79
		LCD_DC_HI
 80046dc:	8fa6      	ldrh	r6, [r4, #60]	; 0x3c
 80046de:	6106      	str	r6, [r0, #16]
F:\AT32-workspace\AT32F403ACGU7_clone_windows_desktop_virtual_com_port\Release/../Display/display.c:81
	*((volatile uint8_t *)&spi->dt) = data;
 80046e0:	731a      	strb	r2, [r3, #12]
F:\AT32-workspace\AT32F403ACGU7_clone_windows_desktop_virtual_com_port\Release/../Display/display.c:82
	while(!spi->sts_bit.tdbe) ; //ждем окончания передачи
 80046e2:	689a      	ldr	r2, [r3, #8]
 80046e4:	0790      	lsls	r0, r2, #30
 80046e6:	d5fc      	bpl.n	80046e2 <LCD_String_Interpretator+0xba>
F:\AT32-workspace\AT32F403ACGU7_clone_windows_desktop_virtual_com_port\Release/../Display/display.c:83
	while(spi->sts_bit.bf) ; 	//ждем когда SPI освободится
 80046e8:	689a      	ldr	r2, [r3, #8]
 80046ea:	0612      	lsls	r2, r2, #24
 80046ec:	d4fc      	bmi.n	80046e8 <LCD_String_Interpretator+0xc0>
LCD_String_Interpretator():
F:\AT32-workspace\AT32F403ACGU7_clone_windows_desktop_virtual_com_port\Release/../Display/display.c:123
				while(i--) {
 80046ee:	458c      	cmp	ip, r1
 80046f0:	d1f0      	bne.n	80046d4 <LCD_String_Interpretator+0xac>
F:\AT32-workspace\AT32F403ACGU7_clone_windows_desktop_virtual_com_port\Release/../Display/display.c:124
					LCD_WRITE_DC(lcd, *str++, lcd_write_data);
 80046f2:	eb0e 0107 	add.w	r1, lr, r7
 80046f6:	e7e2      	b.n	80046be <LCD_String_Interpretator+0x96>
F:\AT32-workspace\AT32F403ACGU7_clone_windows_desktop_virtual_com_port\Release/../Display/display.c:130
				delay_ms(*str++);
 80046f8:	7848      	ldrb	r0, [r1, #1]
 80046fa:	1c8e      	adds	r6, r1, #2
 80046fc:	f7fe fab8 	bl	8002c70 <delay_ms>
 8004700:	4631      	mov	r1, r6
F:\AT32-workspace\AT32F403ACGU7_clone_windows_desktop_virtual_com_port\Release/../Display/display.c:131
				break;
 8004702:	e7a6      	b.n	8004652 <LCD_String_Interpretator+0x2a>
F:\AT32-workspace\AT32F403ACGU7_clone_windows_desktop_virtual_com_port\Release/../Display/display.c:121
				i = *str++;
 8004704:	4671      	mov	r1, lr
 8004706:	e7a4      	b.n	8004652 <LCD_String_Interpretator+0x2a>

08004708 <LCD_DisplayAdd>:
LCD_DisplayAdd():
F:\AT32-workspace\AT32F403ACGU7_clone_windows_desktop_virtual_com_port\Release/../Display/display.c:165
							DisplaySleepOutCallback sleep_out,
							void *connection_data,
							LCD_DATA_BUS data_bus,
							LCD_BackLight_data bkl_data
					   )
{
 8004708:	e92d 4ff0 	stmdb	sp!, {r4, r5, r6, r7, r8, r9, sl, fp, lr}
 800470c:	b083      	sub	sp, #12
 800470e:	461f      	mov	r7, r3
 8004710:	f9bd 3038 	ldrsh.w	r3, [sp, #56]	; 0x38
 8004714:	9300      	str	r3, [sp, #0]
 8004716:	f9bd 303c 	ldrsh.w	r3, [sp, #60]	; 0x3c
 800471a:	f8bd 9030 	ldrh.w	r9, [sp, #48]	; 0x30
 800471e:	f8bd 8034 	ldrh.w	r8, [sp, #52]	; 0x34
 8004722:	f89d a040 	ldrb.w	sl, [sp, #64]	; 0x40
 8004726:	f89d b058 	ldrb.w	fp, [sp, #88]	; 0x58
 800472a:	9301      	str	r3, [sp, #4]
F:\AT32-workspace\AT32F403ACGU7_clone_windows_desktop_virtual_com_port\Release/../Display/display.c:170

#ifdef LCD_DYNAMIC_MEM
	LCD_Handler* lcd = (LCD_Handler*)malloc(sizeof(LCD_Handler));
#endif
	if (!lcd) return 0;
 800472c:	460c      	mov	r4, r1
 800472e:	2900      	cmp	r1, #0
 8004730:	f000 80e2 	beq.w	80048f8 <LCD_DisplayAdd+0x1f0>
F:\AT32-workspace\AT32F403ACGU7_clone_windows_desktop_virtual_com_port\Release/../Display/display.c:171
	memset(lcd, 0, sizeof(LCD_Handler));
 8004734:	2100      	movs	r1, #0
 8004736:	4605      	mov	r5, r0
 8004738:	4616      	mov	r6, r2
 800473a:	4620      	mov	r0, r4
 800473c:	2274      	movs	r2, #116	; 0x74
 800473e:	f000 fce1 	bl	8005104 <memset>
F:\AT32-workspace\AT32F403ACGU7_clone_windows_desktop_virtual_com_port\Release/../Display/display.c:175
	LCD_DMA_TypeDef *hdma = 0;
	lcd->data_bus = data_bus;
	//инициализация данных подключения
	lcd->spi_data = *((LCD_SPI_Connected_data*)connection_data);
 8004742:	f8dd c054 	ldr.w	ip, [sp, #84]	; 0x54
F:\AT32-workspace\AT32F403ACGU7_clone_windows_desktop_virtual_com_port\Release/../Display/display.c:173
	lcd->data_bus = data_bus;
 8004746:	f884 b048 	strb.w	fp, [r4, #72]	; 0x48
F:\AT32-workspace\AT32F403ACGU7_clone_windows_desktop_virtual_com_port\Release/../Display/display.c:175
	lcd->spi_data = *((LCD_SPI_Connected_data*)connection_data);
 800474a:	e8bc 000f 	ldmia.w	ip!, {r0, r1, r2, r3}
 800474e:	f104 0e24 	add.w	lr, r4, #36	; 0x24
 8004752:	e8ae 000f 	stmia.w	lr!, {r0, r1, r2, r3}
 8004756:	e8bc 000f 	ldmia.w	ip!, {r0, r1, r2, r3}
 800475a:	e8ae 000f 	stmia.w	lr!, {r0, r1, r2, r3}
 800475e:	f8dc 3000 	ldr.w	r3, [ip]
 8004762:	f8ce 3000 	str.w	r3, [lr]
F:\AT32-workspace\AT32F403ACGU7_clone_windows_desktop_virtual_com_port\Release/../Display/display.c:178
	hdma = &lcd->spi_data.dma_tx;
	//настройка DMA
	if (hdma->dma) {
 8004766:	6aa2      	ldr	r2, [r4, #40]	; 0x28
 8004768:	2a00      	cmp	r2, #0
 800476a:	d04e      	beq.n	800480a <LCD_DisplayAdd+0x102>
F:\AT32-workspace\AT32F403ACGU7_clone_windows_desktop_virtual_com_port\Release/../Display/display.c:179
		dma_channel_type *dma_x = ((dma_channel_type *)((uint32_t)((uint32_t)hdma->dma + 8 + 20 * (hdma->stream - 1))));
 800476c:	6ae3      	ldr	r3, [r4, #44]	; 0x2c
 800476e:	eb03 0383 	add.w	r3, r3, r3, lsl #2
 8004772:	eb02 0283 	add.w	r2, r2, r3, lsl #2
 8004776:	f1a2 010c 	sub.w	r1, r2, #12
F:\AT32-workspace\AT32F403ACGU7_clone_windows_desktop_virtual_com_port\Release/../Display/display.c:180
		dma_x->ctrl_bit.chen = FALSE; //отключаем канал DMA
 800477a:	f852 3c0c 	ldr.w	r3, [r2, #-12]
 800477e:	f36f 0300 	bfc	r3, #0, #1
 8004782:	f842 3c0c 	str.w	r3, [r2, #-12]
F:\AT32-workspace\AT32F403ACGU7_clone_windows_desktop_virtual_com_port\Release/../Display/display.c:181 (discriminator 1)
		while(dma_x->ctrl_bit.chen) ; //ждем отключения канала
 8004786:	680b      	ldr	r3, [r1, #0]
 8004788:	f013 0301 	ands.w	r3, r3, #1
 800478c:	d1fb      	bne.n	8004786 <LCD_DisplayAdd+0x7e>
F:\AT32-workspace\AT32F403ACGU7_clone_windows_desktop_virtual_com_port\Release/../Display/display.c:182
		if (lcd->data_bus == LCD_DATA_8BIT_BUS) {
 800478e:	f1bb 0f01 	cmp.w	fp, #1
 8004792:	d010      	beq.n	80047b6 <LCD_DisplayAdd+0xae>
F:\AT32-workspace\AT32F403ACGU7_clone_windows_desktop_virtual_com_port\Release/../Display/display.c:186
			dma_x->ctrl_bit.pwidth = DMA_PERIPHERAL_DATA_WIDTH_BYTE;
			dma_x->ctrl_bit.mwidth = DMA_MEMORY_DATA_WIDTH_BYTE;
		}
		else if (lcd->data_bus == LCD_DATA_16BIT_BUS) {
 8004794:	f1bb 0f02 	cmp.w	fp, #2
 8004798:	d119      	bne.n	80047ce <LCD_DisplayAdd+0xc6>
F:\AT32-workspace\AT32F403ACGU7_clone_windows_desktop_virtual_com_port\Release/../Display/display.c:187
			dma_x->ctrl_bit.pwidth = DMA_PERIPHERAL_DATA_WIDTH_HALFWORD;
 800479a:	f852 3c0c 	ldr.w	r3, [r2, #-12]
 800479e:	2101      	movs	r1, #1
 80047a0:	f361 2309 	bfi	r3, r1, #8, #2
 80047a4:	f842 3c0c 	str.w	r3, [r2, #-12]
F:\AT32-workspace\AT32F403ACGU7_clone_windows_desktop_virtual_com_port\Release/../Display/display.c:188
			dma_x->ctrl_bit.mwidth = DMA_MEMORY_DATA_WIDTH_HALFWORD;
 80047a8:	f852 3c0c 	ldr.w	r3, [r2, #-12]
 80047ac:	f361 238b 	bfi	r3, r1, #10, #2
 80047b0:	f842 3c0c 	str.w	r3, [r2, #-12]
 80047b4:	e00b      	b.n	80047ce <LCD_DisplayAdd+0xc6>
F:\AT32-workspace\AT32F403ACGU7_clone_windows_desktop_virtual_com_port\Release/../Display/display.c:183
			dma_x->ctrl_bit.pwidth = DMA_PERIPHERAL_DATA_WIDTH_BYTE;
 80047b6:	f852 1c0c 	ldr.w	r1, [r2, #-12]
 80047ba:	f363 2109 	bfi	r1, r3, #8, #2
 80047be:	f842 1c0c 	str.w	r1, [r2, #-12]
F:\AT32-workspace\AT32F403ACGU7_clone_windows_desktop_virtual_com_port\Release/../Display/display.c:184
			dma_x->ctrl_bit.mwidth = DMA_MEMORY_DATA_WIDTH_BYTE;
 80047c2:	f852 1c0c 	ldr.w	r1, [r2, #-12]
 80047c6:	f363 218b 	bfi	r1, r3, #10, #2
 80047ca:	f842 1c0c 	str.w	r1, [r2, #-12]
F:\AT32-workspace\AT32F403ACGU7_clone_windows_desktop_virtual_com_port\Release/../Display/display.c:191
		}
		//запрещаем прерывания по ошибке и передачи половины буфера
		dma_x->ctrl_bit.dterrien = FALSE;
 80047ce:	f852 3c0c 	ldr.w	r3, [r2, #-12]
 80047d2:	f36f 03c3 	bfc	r3, #3, #1
 80047d6:	f842 3c0c 	str.w	r3, [r2, #-12]
F:\AT32-workspace\AT32F403ACGU7_clone_windows_desktop_virtual_com_port\Release/../Display/display.c:192
		dma_x->ctrl_bit.hdtien = FALSE;
 80047da:	f852 3c0c 	ldr.w	r3, [r2, #-12]
 80047de:	f36f 0382 	bfc	r3, #2, #1
 80047e2:	f842 3c0c 	str.w	r3, [r2, #-12]
F:\AT32-workspace\AT32F403ACGU7_clone_windows_desktop_virtual_com_port\Release/../Display/display.c:194
		//разрешаем прерывание по окончанию передачи
		dma_x->ctrl_bit.fdtien = TRUE;
 80047e6:	f852 3c0c 	ldr.w	r3, [r2, #-12]
 80047ea:	f043 0302 	orr.w	r3, r3, #2
 80047ee:	f842 3c0c 	str.w	r3, [r2, #-12]
F:\AT32-workspace\AT32F403ACGU7_clone_windows_desktop_virtual_com_port\Release/../Display/display.c:195
		dma_x->ctrl_bit.pincm = DMA_PERIPHERAL_INC_DISABLE;	//инкремент адреса периферии отключен
 80047f2:	f852 3c0c 	ldr.w	r3, [r2, #-12]
 80047f6:	f36f 1386 	bfc	r3, #6, #1
 80047fa:	f842 3c0c 	str.w	r3, [r2, #-12]
F:\AT32-workspace\AT32F403ACGU7_clone_windows_desktop_virtual_com_port\Release/../Display/display.c:196
		dma_x->ctrl_bit.mincm = DMA_MEMORY_INC_ENABLE;		//инкремент адреса памяти включен
 80047fe:	f852 3c0c 	ldr.w	r3, [r2, #-12]
 8004802:	f043 0380 	orr.w	r3, r3, #128	; 0x80
 8004806:	f842 3c0c 	str.w	r3, [r2, #-12]
F:\AT32-workspace\AT32F403ACGU7_clone_windows_desktop_virtual_com_port\Release/../Display/display.c:199
	}
	//настройка ориентации дисплея и смещения начала координат
	uint16_t max_res = max(resolution1, resolution2);
 800480a:	42b7      	cmp	r7, r6
 800480c:	4639      	mov	r1, r7
 800480e:	bf38      	it	cc
 8004810:	4631      	movcc	r1, r6
F:\AT32-workspace\AT32F403ACGU7_clone_windows_desktop_virtual_com_port\Release/../Display/display.c:200
	uint16_t min_res = min(resolution1, resolution2);
 8004812:	42be      	cmp	r6, r7
 8004814:	bf28      	it	cs
 8004816:	463e      	movcs	r6, r7
F:\AT32-workspace\AT32F403ACGU7_clone_windows_desktop_virtual_com_port\Release/../Display/display.c:201
	if (orientation==PAGE_ORIENTATION_PORTRAIT || orientation==PAGE_ORIENTATION_PORTRAIT_MIRROR) {
 8004818:	f1ba 0f00 	cmp.w	sl, #0
 800481c:	d13c      	bne.n	8004898 <LCD_DisplayAdd+0x190>
F:\AT32-workspace\AT32F403ACGU7_clone_windows_desktop_virtual_com_port\Release/../Display/display.c:207
		lcd->Width = min_res;
		lcd->Height = max_res;
		lcd->Width_Controller = width_controller;
		lcd->Height_Controller = height_controller;
		if (orientation==PAGE_ORIENTATION_PORTRAIT) {
			lcd->x_offs = w_offs;
 800481e:	9b00      	ldr	r3, [sp, #0]
 8004820:	8163      	strh	r3, [r4, #10]
F:\AT32-workspace\AT32F403ACGU7_clone_windows_desktop_virtual_com_port\Release/../Display/display.c:208
			lcd->y_offs = h_offs;
 8004822:	9b01      	ldr	r3, [sp, #4]
F:\AT32-workspace\AT32F403ACGU7_clone_windows_desktop_virtual_com_port\Release/../Display/display.c:212
		}
		else {
			lcd->x_offs = lcd->Width_Controller - lcd->Width - w_offs;
			lcd->y_offs = lcd->Height_Controller - lcd->Height - h_offs;
 8004824:	81a3      	strh	r3, [r4, #12]
F:\AT32-workspace\AT32F403ACGU7_clone_windows_desktop_virtual_com_port\Release/../Display/display.c:202
		lcd->Width = min_res;
 8004826:	80a6      	strh	r6, [r4, #4]
F:\AT32-workspace\AT32F403ACGU7_clone_windows_desktop_virtual_com_port\Release/../Display/display.c:203
		lcd->Height = max_res;
 8004828:	80e1      	strh	r1, [r4, #6]
F:\AT32-workspace\AT32F403ACGU7_clone_windows_desktop_virtual_com_port\Release/../Display/display.c:204
		lcd->Width_Controller = width_controller;
 800482a:	f8a4 9000 	strh.w	r9, [r4]
F:\AT32-workspace\AT32F403ACGU7_clone_windows_desktop_virtual_com_port\Release/../Display/display.c:205
		lcd->Height_Controller = height_controller;
 800482e:	f8a4 8002 	strh.w	r8, [r4, #2]
F:\AT32-workspace\AT32F403ACGU7_clone_windows_desktop_virtual_com_port\Release/../Display/display.c:234
	else {
		LCD_Delete(lcd);
		return 0;
	}

	if (lcd->Width_Controller < lcd->Width ||
 8004832:	45b1      	cmp	r9, r6
 8004834:	d34d      	bcc.n	80048d2 <LCD_DisplayAdd+0x1ca>
F:\AT32-workspace\AT32F403ACGU7_clone_windows_desktop_virtual_com_port\Release/../Display/display.c:234 (discriminator 1)
 8004836:	4541      	cmp	r1, r8
 8004838:	d84b      	bhi.n	80048d2 <LCD_DisplayAdd+0x1ca>
F:\AT32-workspace\AT32F403ACGU7_clone_windows_desktop_virtual_com_port\Release/../Display/display.c:235
		lcd->Height_Controller < lcd->Height ||
 800483a:	9b11      	ldr	r3, [sp, #68]	; 0x44
 800483c:	2b00      	cmp	r3, #0
 800483e:	d048      	beq.n	80048d2 <LCD_DisplayAdd+0x1ca>
F:\AT32-workspace\AT32F403ACGU7_clone_windows_desktop_virtual_com_port\Release/../Display/display.c:236
		init==NULL ||
 8004840:	9b12      	ldr	r3, [sp, #72]	; 0x48
 8004842:	2b00      	cmp	r3, #0
 8004844:	d045      	beq.n	80048d2 <LCD_DisplayAdd+0x1ca>
F:\AT32-workspace\AT32F403ACGU7_clone_windows_desktop_virtual_com_port\Release/../Display/display.c:242
		set_win==NULL )	{
		LCD_Delete(lcd);
		return 0;
	}
	lcd->Orientation = orientation;
	lcd->Init_callback = init;
 8004846:	9a11      	ldr	r2, [sp, #68]	; 0x44
 8004848:	6162      	str	r2, [r4, #20]
F:\AT32-workspace\AT32F403ACGU7_clone_windows_desktop_virtual_com_port\Release/../Display/display.c:243
	lcd->SetActiveWindow_callback = set_win;
 800484a:	9a12      	ldr	r2, [sp, #72]	; 0x48
 800484c:	61a2      	str	r2, [r4, #24]
F:\AT32-workspace\AT32F403ACGU7_clone_windows_desktop_virtual_com_port\Release/../Display/display.c:244
	lcd->SleepIn_callback = sleep_in;
 800484e:	9a13      	ldr	r2, [sp, #76]	; 0x4c
 8004850:	61e2      	str	r2, [r4, #28]
F:\AT32-workspace\AT32F403ACGU7_clone_windows_desktop_virtual_com_port\Release/../Display/display.c:246
	lcd->SleepOut_callback = sleep_out;
	lcd->bkl_data = bkl_data;
 8004852:	ab17      	add	r3, sp, #92	; 0x5c
F:\AT32-workspace\AT32F403ACGU7_clone_windows_desktop_virtual_com_port\Release/../Display/display.c:245
	lcd->SleepOut_callback = sleep_out;
 8004854:	9a14      	ldr	r2, [sp, #80]	; 0x50
 8004856:	6222      	str	r2, [r4, #32]
F:\AT32-workspace\AT32F403ACGU7_clone_windows_desktop_virtual_com_port\Release/../Display/display.c:246
	lcd->bkl_data = bkl_data;
 8004858:	cb0f      	ldmia	r3, {r0, r1, r2, r3}
F:\AT32-workspace\AT32F403ACGU7_clone_windows_desktop_virtual_com_port\Release/../Display/display.c:247
	lcd->display_number = 0;
 800485a:	2700      	movs	r7, #0
F:\AT32-workspace\AT32F403ACGU7_clone_windows_desktop_virtual_com_port\Release/../Display/display.c:246
	lcd->bkl_data = bkl_data;
 800485c:	f104 064c 	add.w	r6, r4, #76	; 0x4c
F:\AT32-workspace\AT32F403ACGU7_clone_windows_desktop_virtual_com_port\Release/../Display/display.c:241
	lcd->Orientation = orientation;
 8004860:	f884 a008 	strb.w	sl, [r4, #8]
F:\AT32-workspace\AT32F403ACGU7_clone_windows_desktop_virtual_com_port\Release/../Display/display.c:246
	lcd->bkl_data = bkl_data;
 8004864:	e886 000f 	stmia.w	r6, {r0, r1, r2, r3}
F:\AT32-workspace\AT32F403ACGU7_clone_windows_desktop_virtual_com_port\Release/../Display/display.c:249
	lcd->next = 0;
	lcd->prev = 0;
 8004868:	e9c4 771b 	strd	r7, r7, [r4, #108]	; 0x6c
F:\AT32-workspace\AT32F403ACGU7_clone_windows_desktop_virtual_com_port\Release/../Display/display.c:247
	lcd->display_number = 0;
 800486c:	f884 7064 	strb.w	r7, [r4, #100]	; 0x64
F:\AT32-workspace\AT32F403ACGU7_clone_windows_desktop_virtual_com_port\Release/../Display/display.c:250
	if (!lcds) {
 8004870:	2d00      	cmp	r5, #0
 8004872:	d041      	beq.n	80048f8 <LCD_DisplayAdd+0x1f0>
F:\AT32-workspace\AT32F403ACGU7_clone_windows_desktop_virtual_com_port\Release/../Display/display.c:254
		return lcd;
	}
	LCD_Handler *prev = lcds;
	while (prev->next) {
 8004874:	6f2b      	ldr	r3, [r5, #112]	; 0x70
 8004876:	b14b      	cbz	r3, 800488c <LCD_DisplayAdd+0x184>
 8004878:	2201      	movs	r2, #1
 800487a:	461d      	mov	r5, r3
 800487c:	6f1b      	ldr	r3, [r3, #112]	; 0x70
 800487e:	1c51      	adds	r1, r2, #1
 8004880:	4610      	mov	r0, r2
 8004882:	b2ca      	uxtb	r2, r1
 8004884:	2b00      	cmp	r3, #0
 8004886:	d1f8      	bne.n	800487a <LCD_DisplayAdd+0x172>
 8004888:	f884 0064 	strb.w	r0, [r4, #100]	; 0x64
F:\AT32-workspace\AT32F403ACGU7_clone_windows_desktop_virtual_com_port\Release/../Display/display.c:260
		prev = (LCD_Handler *)prev->next;
		lcd->display_number++;
	}
	lcd->prev = (void*)prev;
	prev->next = (void*)lcd;
	return lcd;
 800488c:	4620      	mov	r0, r4
F:\AT32-workspace\AT32F403ACGU7_clone_windows_desktop_virtual_com_port\Release/../Display/display.c:258
	lcd->prev = (void*)prev;
 800488e:	66e5      	str	r5, [r4, #108]	; 0x6c
F:\AT32-workspace\AT32F403ACGU7_clone_windows_desktop_virtual_com_port\Release/../Display/display.c:259
	prev->next = (void*)lcd;
 8004890:	672c      	str	r4, [r5, #112]	; 0x70
F:\AT32-workspace\AT32F403ACGU7_clone_windows_desktop_virtual_com_port\Release/../Display/display.c:261
}
 8004892:	b003      	add	sp, #12
 8004894:	e8bd 8ff0 	ldmia.w	sp!, {r4, r5, r6, r7, r8, r9, sl, fp, pc}
F:\AT32-workspace\AT32F403ACGU7_clone_windows_desktop_virtual_com_port\Release/../Display/display.c:201 (discriminator 1)
	if (orientation==PAGE_ORIENTATION_PORTRAIT || orientation==PAGE_ORIENTATION_PORTRAIT_MIRROR) {
 8004898:	f1ba 0f02 	cmp.w	sl, #2
 800489c:	d022      	beq.n	80048e4 <LCD_DisplayAdd+0x1dc>
F:\AT32-workspace\AT32F403ACGU7_clone_windows_desktop_virtual_com_port\Release/../Display/display.c:215
	else if (orientation==PAGE_ORIENTATION_LANDSCAPE || orientation==PAGE_ORIENTATION_LANDSCAPE_MIRROR)	{
 800489e:	f1ba 0f01 	cmp.w	sl, #1
 80048a2:	d02d      	beq.n	8004900 <LCD_DisplayAdd+0x1f8>
F:\AT32-workspace\AT32F403ACGU7_clone_windows_desktop_virtual_com_port\Release/../Display/display.c:215 (discriminator 1)
 80048a4:	f1ba 0f03 	cmp.w	sl, #3
 80048a8:	d113      	bne.n	80048d2 <LCD_DisplayAdd+0x1ca>
F:\AT32-workspace\AT32F403ACGU7_clone_windows_desktop_virtual_com_port\Release/../Display/display.c:226
			lcd->y_offs = w_offs;
 80048aa:	9b00      	ldr	r3, [sp, #0]
 80048ac:	81a3      	strh	r3, [r4, #12]
F:\AT32-workspace\AT32F403ACGU7_clone_windows_desktop_virtual_com_port\Release/../Display/display.c:225
			lcd->x_offs = lcd->Width_Controller - lcd->Width - h_offs;
 80048ae:	9b01      	ldr	r3, [sp, #4]
 80048b0:	eba8 0303 	sub.w	r3, r8, r3
 80048b4:	1a5b      	subs	r3, r3, r1
 80048b6:	8163      	strh	r3, [r4, #10]
F:\AT32-workspace\AT32F403ACGU7_clone_windows_desktop_virtual_com_port\Release/../Display/display.c:226
			lcd->y_offs = w_offs;
 80048b8:	4632      	mov	r2, r6
 80048ba:	464b      	mov	r3, r9
F:\AT32-workspace\AT32F403ACGU7_clone_windows_desktop_virtual_com_port\Release/../Display/display.c:216
		lcd->Width = max_res;
 80048bc:	80a1      	strh	r1, [r4, #4]
F:\AT32-workspace\AT32F403ACGU7_clone_windows_desktop_virtual_com_port\Release/../Display/display.c:217
		lcd->Height = min_res;
 80048be:	80e6      	strh	r6, [r4, #6]
F:\AT32-workspace\AT32F403ACGU7_clone_windows_desktop_virtual_com_port\Release/../Display/display.c:218
		lcd->Width_Controller = height_controller;
 80048c0:	f8a4 8000 	strh.w	r8, [r4]
F:\AT32-workspace\AT32F403ACGU7_clone_windows_desktop_virtual_com_port\Release/../Display/display.c:219
		lcd->Height_Controller = width_controller;
 80048c4:	f8a4 9002 	strh.w	r9, [r4, #2]
F:\AT32-workspace\AT32F403ACGU7_clone_windows_desktop_virtual_com_port\Release/../Display/display.c:226
			lcd->y_offs = w_offs;
 80048c8:	460e      	mov	r6, r1
 80048ca:	46c1      	mov	r9, r8
 80048cc:	4611      	mov	r1, r2
 80048ce:	4698      	mov	r8, r3
 80048d0:	e7af      	b.n	8004832 <LCD_DisplayAdd+0x12a>
LCD_Delete():
F:\AT32-workspace\AT32F403ACGU7_clone_windows_desktop_virtual_com_port\Release/../Display/display.c:272
#ifdef LCD_DYNAMIC_MEM
		if (lcd->tmp_buf) {
			free(lcd->tmp_buf);
		}
#endif
		memset(lcd, 0, sizeof(LCD_Handler));
 80048d2:	2274      	movs	r2, #116	; 0x74
 80048d4:	2100      	movs	r1, #0
 80048d6:	4620      	mov	r0, r4
 80048d8:	f000 fc14 	bl	8005104 <memset>
LCD_DisplayAdd():
F:\AT32-workspace\AT32F403ACGU7_clone_windows_desktop_virtual_com_port\Release/../Display/display.c:231
		return 0;
 80048dc:	2000      	movs	r0, #0
F:\AT32-workspace\AT32F403ACGU7_clone_windows_desktop_virtual_com_port\Release/../Display/display.c:261
}
 80048de:	b003      	add	sp, #12
 80048e0:	e8bd 8ff0 	ldmia.w	sp!, {r4, r5, r6, r7, r8, r9, sl, fp, pc}
F:\AT32-workspace\AT32F403ACGU7_clone_windows_desktop_virtual_com_port\Release/../Display/display.c:211
			lcd->x_offs = lcd->Width_Controller - lcd->Width - w_offs;
 80048e4:	9b00      	ldr	r3, [sp, #0]
 80048e6:	eba9 0203 	sub.w	r2, r9, r3
F:\AT32-workspace\AT32F403ACGU7_clone_windows_desktop_virtual_com_port\Release/../Display/display.c:212
			lcd->y_offs = lcd->Height_Controller - lcd->Height - h_offs;
 80048ea:	9b01      	ldr	r3, [sp, #4]
F:\AT32-workspace\AT32F403ACGU7_clone_windows_desktop_virtual_com_port\Release/../Display/display.c:211
			lcd->x_offs = lcd->Width_Controller - lcd->Width - w_offs;
 80048ec:	1b92      	subs	r2, r2, r6
F:\AT32-workspace\AT32F403ACGU7_clone_windows_desktop_virtual_com_port\Release/../Display/display.c:212
			lcd->y_offs = lcd->Height_Controller - lcd->Height - h_offs;
 80048ee:	eba8 0303 	sub.w	r3, r8, r3
F:\AT32-workspace\AT32F403ACGU7_clone_windows_desktop_virtual_com_port\Release/../Display/display.c:211
			lcd->x_offs = lcd->Width_Controller - lcd->Width - w_offs;
 80048f2:	8162      	strh	r2, [r4, #10]
F:\AT32-workspace\AT32F403ACGU7_clone_windows_desktop_virtual_com_port\Release/../Display/display.c:212
			lcd->y_offs = lcd->Height_Controller - lcd->Height - h_offs;
 80048f4:	1a5b      	subs	r3, r3, r1
 80048f6:	e795      	b.n	8004824 <LCD_DisplayAdd+0x11c>
 80048f8:	4620      	mov	r0, r4
F:\AT32-workspace\AT32F403ACGU7_clone_windows_desktop_virtual_com_port\Release/../Display/display.c:261
}
 80048fa:	b003      	add	sp, #12
 80048fc:	e8bd 8ff0 	ldmia.w	sp!, {r4, r5, r6, r7, r8, r9, sl, fp, pc}
F:\AT32-workspace\AT32F403ACGU7_clone_windows_desktop_virtual_com_port\Release/../Display/display.c:221
			lcd->x_offs = h_offs;
 8004900:	9b01      	ldr	r3, [sp, #4]
 8004902:	8163      	strh	r3, [r4, #10]
F:\AT32-workspace\AT32F403ACGU7_clone_windows_desktop_virtual_com_port\Release/../Display/display.c:222
			lcd->y_offs = lcd->Height_Controller - lcd->Height - w_offs;
 8004904:	9b00      	ldr	r3, [sp, #0]
 8004906:	eba9 0303 	sub.w	r3, r9, r3
 800490a:	1b9b      	subs	r3, r3, r6
 800490c:	81a3      	strh	r3, [r4, #12]
 800490e:	e7d3      	b.n	80048b8 <LCD_DisplayAdd+0x1b0>

08004910 <LCD_Init>:
LCD_HardWareReset():
F:\AT32-workspace\AT32F403ACGU7_clone_windows_desktop_virtual_com_port\Release/../Display/display.c:88
	if (lcd->spi_data.reset_port) {
 8004910:	6b03      	ldr	r3, [r0, #48]	; 0x30
LCD_Init():
F:\AT32-workspace\AT32F403ACGU7_clone_windows_desktop_virtual_com_port\Release/../Display/display.c:281
	}
}

//инициализирует дисплей
void LCD_Init(LCD_Handler* lcd)
{
 8004912:	b510      	push	{r4, lr}
 8004914:	4604      	mov	r4, r0
LCD_HardWareReset():
F:\AT32-workspace\AT32F403ACGU7_clone_windows_desktop_virtual_com_port\Release/../Display/display.c:88
	if (lcd->spi_data.reset_port) {
 8004916:	b153      	cbz	r3, 800492e <LCD_Init+0x1e>
F:\AT32-workspace\AT32F403ACGU7_clone_windows_desktop_virtual_com_port\Release/../Display/display.c:89
		lcd->spi_data.reset_port->clr = lcd->spi_data.reset_pin;
 8004918:	8e82      	ldrh	r2, [r0, #52]	; 0x34
 800491a:	615a      	str	r2, [r3, #20]
F:\AT32-workspace\AT32F403ACGU7_clone_windows_desktop_virtual_com_port\Release/../Display/display.c:90
		delay_ms(25);
 800491c:	2019      	movs	r0, #25
 800491e:	f7fe f9a7 	bl	8002c70 <delay_ms>
F:\AT32-workspace\AT32F403ACGU7_clone_windows_desktop_virtual_com_port\Release/../Display/display.c:91
		lcd->spi_data.reset_port->scr = lcd->spi_data.reset_pin;
 8004922:	6b23      	ldr	r3, [r4, #48]	; 0x30
 8004924:	8ea2      	ldrh	r2, [r4, #52]	; 0x34
 8004926:	611a      	str	r2, [r3, #16]
F:\AT32-workspace\AT32F403ACGU7_clone_windows_desktop_virtual_com_port\Release/../Display/display.c:92
		delay_ms(25);
 8004928:	2019      	movs	r0, #25
 800492a:	f7fe f9a1 	bl	8002c70 <delay_ms>
LCD_Init():
F:\AT32-workspace\AT32F403ACGU7_clone_windows_desktop_virtual_com_port\Release/../Display/display.c:283
	LCD_HardWareReset(lcd);
	LCD_String_Interpretator(lcd, lcd->Init_callback(lcd->Orientation));
 800492e:	6963      	ldr	r3, [r4, #20]
 8004930:	7a20      	ldrb	r0, [r4, #8]
 8004932:	4798      	blx	r3
 8004934:	4601      	mov	r1, r0
 8004936:	4620      	mov	r0, r4
 8004938:	f7ff fe76 	bl	8004628 <LCD_String_Interpretator>
F:\AT32-workspace\AT32F403ACGU7_clone_windows_desktop_virtual_com_port\Release/../Display/display.c:284
	LCD_SetBackLight(lcd, lcd->bkl_data.bk_percent);
 800493c:	f894 105a 	ldrb.w	r1, [r4, #90]	; 0x5a
LCD_SetBackLight():
F:\AT32-workspace\AT32F403ACGU7_clone_windows_desktop_virtual_com_port\Release/../Display/display.c:323
	if (bk_percent > 100) {
		bk_percent = 100;
	}
	lcd->bkl_data.bk_percent = bk_percent;
	//подсветка с использованием PWM
	if (lcd->bkl_data.htim_bk) {
 8004940:	6ce2      	ldr	r2, [r4, #76]	; 0x4c
 8004942:	2964      	cmp	r1, #100	; 0x64
 8004944:	460b      	mov	r3, r1
 8004946:	bf28      	it	cs
 8004948:	2364      	movcs	r3, #100	; 0x64
F:\AT32-workspace\AT32F403ACGU7_clone_windows_desktop_virtual_com_port\Release/../Display/display.c:321
	lcd->bkl_data.bk_percent = bk_percent;
 800494a:	f884 305a 	strb.w	r3, [r4, #90]	; 0x5a
F:\AT32-workspace\AT32F403ACGU7_clone_windows_desktop_virtual_com_port\Release/../Display/display.c:323
	if (lcd->bkl_data.htim_bk) {
 800494e:	b18a      	cbz	r2, 8004974 <LCD_Init+0x64>
F:\AT32-workspace\AT32F403ACGU7_clone_windows_desktop_virtual_com_port\Release/../Display/display.c:325
		//вычисляем % яркости, как часть от периода счетчика
		uint32_t bk_value = lcd->bkl_data.htim_bk->pr * bk_percent / 100;
 8004950:	6ad1      	ldr	r1, [r2, #44]	; 0x2c
 8004952:	4810      	ldr	r0, [pc, #64]	; (8004994 <LCD_Init+0x84>)
 8004954:	fb01 f303 	mul.w	r3, r1, r3
F:\AT32-workspace\AT32F403ACGU7_clone_windows_desktop_virtual_com_port\Release/../Display/display.c:327
		//задаем скважность PWM конкретного канала
		switch(lcd->bkl_data.channel_htim_bk) {
 8004958:	6d21      	ldr	r1, [r4, #80]	; 0x50
F:\AT32-workspace\AT32F403ACGU7_clone_windows_desktop_virtual_com_port\Release/../Display/display.c:325
		uint32_t bk_value = lcd->bkl_data.htim_bk->pr * bk_percent / 100;
 800495a:	fba0 0303 	umull	r0, r3, r0, r3
 800495e:	095b      	lsrs	r3, r3, #5
F:\AT32-workspace\AT32F403ACGU7_clone_windows_desktop_virtual_com_port\Release/../Display/display.c:327
		switch(lcd->bkl_data.channel_htim_bk) {
 8004960:	2906      	cmp	r1, #6
 8004962:	d806      	bhi.n	8004972 <LCD_Init+0x62>
 8004964:	e8df f001 	tbb	[pc, r1]
 8004968:	0510050e 	.word	0x0510050e
 800496c:	0512      	.short	0x0512
 800496e:	04          	.byte	0x04
 800496f:	00          	.byte	0x00
F:\AT32-workspace\AT32F403ACGU7_clone_windows_desktop_virtual_com_port\Release/../Display/display.c:338
				break;
			case TMR_SELECT_CHANNEL_3:
				lcd->bkl_data.htim_bk->c3dt = bk_value;
				break;
			case TMR_SELECT_CHANNEL_4:
				lcd->bkl_data.htim_bk->c4dt = bk_value;
 8004970:	6413      	str	r3, [r2, #64]	; 0x40
LCD_Init():
F:\AT32-workspace\AT32F403ACGU7_clone_windows_desktop_virtual_com_port\Release/../Display/display.c:285
}
 8004972:	bd10      	pop	{r4, pc}
LCD_SetBackLight():
F:\AT32-workspace\AT32F403ACGU7_clone_windows_desktop_virtual_com_port\Release/../Display/display.c:345
			default:
				break;
		}
	}
	//подсветка без PWM (просто вкл./выкл.), если таймер с PWM недоступен
	else if (lcd->bkl_data.blk_port) {
 8004974:	6d63      	ldr	r3, [r4, #84]	; 0x54
 8004976:	2b00      	cmp	r3, #0
 8004978:	d0fb      	beq.n	8004972 <LCD_Init+0x62>
F:\AT32-workspace\AT32F403ACGU7_clone_windows_desktop_virtual_com_port\Release/../Display/display.c:347
		if (bk_percent) {
			lcd->bkl_data.blk_port->scr = lcd->bkl_data.blk_pin;
 800497a:	f8b4 2058 	ldrh.w	r2, [r4, #88]	; 0x58
F:\AT32-workspace\AT32F403ACGU7_clone_windows_desktop_virtual_com_port\Release/../Display/display.c:346
		if (bk_percent) {
 800497e:	b139      	cbz	r1, 8004990 <LCD_Init+0x80>
F:\AT32-workspace\AT32F403ACGU7_clone_windows_desktop_virtual_com_port\Release/../Display/display.c:347
			lcd->bkl_data.blk_port->scr = lcd->bkl_data.blk_pin;
 8004980:	611a      	str	r2, [r3, #16]
LCD_Init():
F:\AT32-workspace\AT32F403ACGU7_clone_windows_desktop_virtual_com_port\Release/../Display/display.c:285
}
 8004982:	bd10      	pop	{r4, pc}
LCD_SetBackLight():
F:\AT32-workspace\AT32F403ACGU7_clone_windows_desktop_virtual_com_port\Release/../Display/display.c:329
				lcd->bkl_data.htim_bk->c1dt = bk_value;
 8004984:	6353      	str	r3, [r2, #52]	; 0x34
LCD_Init():
F:\AT32-workspace\AT32F403ACGU7_clone_windows_desktop_virtual_com_port\Release/../Display/display.c:285
}
 8004986:	bd10      	pop	{r4, pc}
LCD_SetBackLight():
F:\AT32-workspace\AT32F403ACGU7_clone_windows_desktop_virtual_com_port\Release/../Display/display.c:332
				lcd->bkl_data.htim_bk->c2dt = bk_value;
 8004988:	6393      	str	r3, [r2, #56]	; 0x38
LCD_Init():
F:\AT32-workspace\AT32F403ACGU7_clone_windows_desktop_virtual_com_port\Release/../Display/display.c:285
}
 800498a:	bd10      	pop	{r4, pc}
LCD_SetBackLight():
F:\AT32-workspace\AT32F403ACGU7_clone_windows_desktop_virtual_com_port\Release/../Display/display.c:335
				lcd->bkl_data.htim_bk->c3dt = bk_value;
 800498c:	63d3      	str	r3, [r2, #60]	; 0x3c
LCD_Init():
F:\AT32-workspace\AT32F403ACGU7_clone_windows_desktop_virtual_com_port\Release/../Display/display.c:285
}
 800498e:	bd10      	pop	{r4, pc}
LCD_SetBackLight():
F:\AT32-workspace\AT32F403ACGU7_clone_windows_desktop_virtual_com_port\Release/../Display/display.c:350
		}
		else {
			lcd->bkl_data.blk_port->clr = lcd->bkl_data.blk_pin;
 8004990:	615a      	str	r2, [r3, #20]
LCD_Init():
F:\AT32-workspace\AT32F403ACGU7_clone_windows_desktop_virtual_com_port\Release/../Display/display.c:285
}
 8004992:	bd10      	pop	{r4, pc}
 8004994:	51eb851f 	.word	0x51eb851f

08004998 <LCD_Fill>:
LCD_Fill():
F:\AT32-workspace\AT32F403ACGU7_clone_windows_desktop_virtual_com_port\Release/../Display/display.c:691

#endif

/* Закрашивает весь дисплей заданным цветом */
void LCD_Fill(LCD_Handler* lcd, uint32_t color)
{
 8004998:	b510      	push	{r4, lr}
F:\AT32-workspace\AT32F403ACGU7_clone_windows_desktop_virtual_com_port\Release/../Display/display.c:692
	LCD_FillWindow(lcd, 0, 0, lcd->Width - 1, lcd->Height - 1, color);
 800499a:	88c4      	ldrh	r4, [r0, #6]
 800499c:	8883      	ldrh	r3, [r0, #4]
 800499e:	3c01      	subs	r4, #1
F:\AT32-workspace\AT32F403ACGU7_clone_windows_desktop_virtual_com_port\Release/../Display/display.c:691
{
 80049a0:	b082      	sub	sp, #8
F:\AT32-workspace\AT32F403ACGU7_clone_windows_desktop_virtual_com_port\Release/../Display/display.c:692
	LCD_FillWindow(lcd, 0, 0, lcd->Width - 1, lcd->Height - 1, color);
 80049a2:	2200      	movs	r2, #0
 80049a4:	b2a4      	uxth	r4, r4
 80049a6:	3b01      	subs	r3, #1
 80049a8:	e9cd 4100 	strd	r4, r1, [sp]
 80049ac:	b29b      	uxth	r3, r3
 80049ae:	4611      	mov	r1, r2
 80049b0:	f000 fa93 	bl	8004eda <LCD_FillWindow>
F:\AT32-workspace\AT32F403ACGU7_clone_windows_desktop_virtual_com_port\Release/../Display/display.c:693
}
 80049b4:	b002      	add	sp, #8
 80049b6:	bd10      	pop	{r4, pc}

080049b8 <LCD_WriteChar>:
LCD_WriteChar():
F:\AT32-workspace\AT32F403ACGU7_clone_windows_desktop_virtual_com_port\Release/../Display/display.c:965
 *    LCD_SYMBOL_PRINT_FAST - быстрый вывод с полным затиранием знакоместа;
 *    LCD_SYMBOL_PRINT_PSETBYPSET - вывод символа по точкам, при этом цвет окружения bgcolor игнорируется (режим наложения).
 * Ширина символа до 32 пикселей (4 байта на строку). Высота символа библиотекой не ограничивается.
 */
void LCD_WriteChar(LCD_Handler* lcd, uint16_t x, uint16_t y, char ch, FontDef *font, uint32_t txcolor, uint32_t bgcolor, LCD_PrintSymbolMode modesym)
{
 80049b8:	e92d 4ff0 	stmdb	sp!, {r4, r5, r6, r7, r8, r9, sl, fp, lr}
 80049bc:	b08b      	sub	sp, #44	; 0x2c
LCD_Color():
F:\AT32-workspace\AT32F403ACGU7_clone_windows_desktop_virtual_com_port\Release/../Display/display.c:1056
	lcd->AtPos.y = y;
}

inline uint16_t LCD_Color (LCD_Handler *lcd, uint8_t r, uint8_t g, uint8_t b)
{
	uint16_t color = ((r & 0xF8) << 8) | ((g & 0xF8) << 3) | (b >> 3);
 80049be:	4cac      	ldr	r4, [pc, #688]	; (8004c70 <LCD_WriteChar+0x2b8>)
LCD_WriteChar():
F:\AT32-workspace\AT32F403ACGU7_clone_windows_desktop_virtual_com_port\Release/../Display/display.c:965
{
 80049c0:	9105      	str	r1, [sp, #20]
 80049c2:	4693      	mov	fp, r2
 80049c4:	9a15      	ldr	r2, [sp, #84]	; 0x54
 80049c6:	9f14      	ldr	r7, [sp, #80]	; 0x50
 80049c8:	f89d c05c 	ldrb.w	ip, [sp, #92]	; 0x5c
LCD_Color():
F:\AT32-workspace\AT32F403ACGU7_clone_windows_desktop_virtual_com_port\Release/../Display/display.c:1056
	uint16_t color = ((r & 0xF8) << 8) | ((g & 0xF8) << 3) | (b >> 3);
 80049cc:	ea04 2412 	and.w	r4, r4, r2, lsr #8
 80049d0:	f3c2 01c4 	ubfx	r1, r2, #3, #5
 80049d4:	0952      	lsrs	r2, r2, #5
 80049d6:	4321      	orrs	r1, r4
 80049d8:	f402 62f8 	and.w	r2, r2, #1984	; 0x7c0
 80049dc:	430a      	orrs	r2, r1
F:\AT32-workspace\AT32F403ACGU7_clone_windows_desktop_virtual_com_port\Release/../Display/display.c:1057
	if (lcd->data_bus == LCD_DATA_8BIT_BUS) {//8-битная передача
 80049de:	f890 1048 	ldrb.w	r1, [r0, #72]	; 0x48
F:\AT32-workspace\AT32F403ACGU7_clone_windows_desktop_virtual_com_port\Release/../Display/display.c:1056
	uint16_t color = ((r & 0xF8) << 8) | ((g & 0xF8) << 3) | (b >> 3);
 80049e2:	b292      	uxth	r2, r2
F:\AT32-workspace\AT32F403ACGU7_clone_windows_desktop_virtual_com_port\Release/../Display/display.c:1057
	if (lcd->data_bus == LCD_DATA_8BIT_BUS) {//8-битная передача
 80049e4:	2901      	cmp	r1, #1
F:\AT32-workspace\AT32F403ACGU7_clone_windows_desktop_virtual_com_port\Release/../Display/display.c:1056
	uint16_t color = ((r & 0xF8) << 8) | ((g & 0xF8) << 3) | (b >> 3);
 80049e6:	9204      	str	r2, [sp, #16]
LCD_WriteChar():
F:\AT32-workspace\AT32F403ACGU7_clone_windows_desktop_virtual_com_port\Release/../Display/display.c:965
{
 80049e8:	9a16      	ldr	r2, [sp, #88]	; 0x58
LCD_Color():
F:\AT32-workspace\AT32F403ACGU7_clone_windows_desktop_virtual_com_port\Release/../Display/display.c:1057
	if (lcd->data_bus == LCD_DATA_8BIT_BUS) {//8-битная передача
 80049ea:	f000 8135 	beq.w	8004c58 <LCD_WriteChar+0x2a0>
F:\AT32-workspace\AT32F403ACGU7_clone_windows_desktop_virtual_com_port\Release/../Display/display.c:1056
	uint16_t color = ((r & 0xF8) << 8) | ((g & 0xF8) << 3) | (b >> 3);
 80049ee:	9d04      	ldr	r5, [sp, #16]
 80049f0:	4e9f      	ldr	r6, [pc, #636]	; (8004c70 <LCD_WriteChar+0x2b8>)
 80049f2:	f3c2 04c4 	ubfx	r4, r2, #3, #5
 80049f6:	ea06 2612 	and.w	r6, r6, r2, lsr #8
 80049fa:	0952      	lsrs	r2, r2, #5
 80049fc:	4334      	orrs	r4, r6
 80049fe:	f402 62f8 	and.w	r2, r2, #1984	; 0x7c0
 8004a02:	4322      	orrs	r2, r4
F:\AT32-workspace\AT32F403ACGU7_clone_windows_desktop_virtual_com_port\Release/../Display/display.c:1057
	if (lcd->data_bus == LCD_DATA_8BIT_BUS) {//8-битная передача
 8004a04:	2901      	cmp	r1, #1
F:\AT32-workspace\AT32F403ACGU7_clone_windows_desktop_virtual_com_port\Release/../Display/display.c:1056
	uint16_t color = ((r & 0xF8) << 8) | ((g & 0xF8) << 3) | (b >> 3);
 8004a06:	b294      	uxth	r4, r2
F:\AT32-workspace\AT32F403ACGU7_clone_windows_desktop_virtual_com_port\Release/../Display/display.c:1057
	if (lcd->data_bus == LCD_DATA_8BIT_BUS) {//8-битная передача
 8004a08:	d101      	bne.n	8004a0e <LCD_WriteChar+0x56>
F:\AT32-workspace\AT32F403ACGU7_clone_windows_desktop_virtual_com_port\Release/../Display/display.c:1058
		color = (color >> 8) | ((color & 0xFF) << 8);
 8004a0a:	ba64      	rev16	r4, r4
 8004a0c:	b2a4      	uxth	r4, r4
LCD_WriteChar():
F:\AT32-workspace\AT32F403ACGU7_clone_windows_desktop_virtual_com_port\Release/../Display/display.c:972
	ch = ch < font->firstcode || ch > font->lastcode ? 0: ch - font->firstcode;
 8004a0e:	f897 a008 	ldrb.w	sl, [r7, #8]
 8004a12:	459a      	cmp	sl, r3
 8004a14:	d803      	bhi.n	8004a1e <LCD_WriteChar+0x66>
F:\AT32-workspace\AT32F403ACGU7_clone_windows_desktop_virtual_com_port\Release/../Display/display.c:972 (discriminator 1)
 8004a16:	7a7a      	ldrb	r2, [r7, #9]
 8004a18:	429a      	cmp	r2, r3
 8004a1a:	f080 8085 	bcs.w	8004b28 <LCD_WriteChar+0x170>
F:\AT32-workspace\AT32F403ACGU7_clone_windows_desktop_virtual_com_port\Release/../Display/display.c:972
 8004a1e:	f04f 0a00 	mov.w	sl, #0
F:\AT32-workspace\AT32F403ACGU7_clone_windows_desktop_virtual_com_port\Release/../Display/display.c:973 (discriminator 6)
	int bytes_per_line = ((font->width - 1) >> 3) + 1;
 8004a22:	7839      	ldrb	r1, [r7, #0]
 8004a24:	f101 38ff 	add.w	r8, r1, #4294967295
 8004a28:	ea4f 08e8 	mov.w	r8, r8, asr #3
 8004a2c:	f108 0801 	add.w	r8, r8, #1
F:\AT32-workspace\AT32F403ACGU7_clone_windows_desktop_virtual_com_port\Release/../Display/display.c:974 (discriminator 6)
	if (bytes_per_line > 4) { //Поддержка ширины символов до 32 пикселей (4 байта на строку)
 8004a30:	f1b8 0f04 	cmp.w	r8, #4
 8004a34:	dc75      	bgt.n	8004b22 <LCD_WriteChar+0x16a>
F:\AT32-workspace\AT32F403ACGU7_clone_windows_desktop_virtual_com_port\Release/../Display/display.c:968
	const uint8_t *b = font->data;
 8004a36:	687a      	ldr	r2, [r7, #4]
F:\AT32-workspace\AT32F403ACGU7_clone_windows_desktop_virtual_com_port\Release/../Display/display.c:978
	b += ch * bytes_per_line * font->height;
 8004a38:	787b      	ldrb	r3, [r7, #1]
 8004a3a:	fb08 fa0a 	mul.w	sl, r8, sl
 8004a3e:	fb03 2a0a 	mla	sl, r3, sl, r2
F:\AT32-workspace\AT32F403ACGU7_clone_windows_desktop_virtual_com_port\Release/../Display/display.c:977
	k = 1 << ((bytes_per_line << 3) - 1);
 8004a42:	ea4f 02c8 	mov.w	r2, r8, lsl #3
 8004a46:	3a01      	subs	r2, #1
 8004a48:	2601      	movs	r6, #1
 8004a4a:	4096      	lsls	r6, r2
F:\AT32-workspace\AT32F403ACGU7_clone_windows_desktop_virtual_com_port\Release/../Display/display.c:980
	if (modesym == LCD_SYMBOL_PRINT_FAST) {
 8004a4c:	f1bc 0f00 	cmp.w	ip, #0
 8004a50:	d06f      	beq.n	8004b32 <LCD_WriteChar+0x17a>
F:\AT32-workspace\AT32F403ACGU7_clone_windows_desktop_virtual_com_port\Release/../Display/display.c:1017
		for (i = 0; i < font->height; i++) {
 8004a52:	2b00      	cmp	r3, #0
 8004a54:	d065      	beq.n	8004b22 <LCD_WriteChar+0x16a>
 8004a56:	9a04      	ldr	r2, [sp, #16]
LCD_DrawPixel():
F:\AT32-workspace\AT32F403ACGU7_clone_windows_desktop_virtual_com_port\Release/../Display/display.c:701
	LCD_WriteData(lcd, &color1, 1);
 8004a58:	9714      	str	r7, [sp, #80]	; 0x50
 8004a5a:	ba52      	rev16	r2, r2
 8004a5c:	b292      	uxth	r2, r2
LCD_WriteChar():
F:\AT32-workspace\AT32F403ACGU7_clone_windows_desktop_virtual_com_port\Release/../Display/display.c:967
	uint32_t tmp = 0;
 8004a5e:	f04f 0900 	mov.w	r9, #0
F:\AT32-workspace\AT32F403ACGU7_clone_windows_desktop_virtual_com_port\Release/../Display/display.c:1018
			if (bytes_per_line == 1) { tmp = *((uint8_t*)b); }
 8004a62:	f1b8 0f01 	cmp.w	r8, #1
 8004a66:	9207      	str	r2, [sp, #28]
F:\AT32-workspace\AT32F403ACGU7_clone_windows_desktop_virtual_com_port\Release/../Display/display.c:1017
		for (i = 0; i < font->height; i++) {
 8004a68:	f8cd 900c 	str.w	r9, [sp, #12]
LCD_DrawPixel():
F:\AT32-workspace\AT32F403ACGU7_clone_windows_desktop_virtual_com_port\Release/../Display/display.c:701
	LCD_WriteData(lcd, &color1, 1);
 8004a6c:	465f      	mov	r7, fp
LCD_WriteChar():
F:\AT32-workspace\AT32F403ACGU7_clone_windows_desktop_virtual_com_port\Release/../Display/display.c:1018
			if (bytes_per_line == 1) { tmp = *((uint8_t*)b); }
 8004a6e:	d053      	beq.n	8004b18 <LCD_WriteChar+0x160>
F:\AT32-workspace\AT32F403ACGU7_clone_windows_desktop_virtual_com_port\Release/../Display/display.c:1019
			else if (bytes_per_line == 2) { tmp = *((uint16_t*)b); }
 8004a70:	f1b8 0f02 	cmp.w	r8, #2
 8004a74:	f000 80e0 	beq.w	8004c38 <LCD_WriteChar+0x280>
F:\AT32-workspace\AT32F403ACGU7_clone_windows_desktop_virtual_com_port\Release/../Display/display.c:1020
			else if (bytes_per_line == 3) { tmp = (*((uint8_t*)b)) | ((*((uint8_t*)(b + 1))) << 8) |  ((*((uint8_t*)(b + 2))) << 16); }
 8004a78:	f1b8 0f03 	cmp.w	r8, #3
 8004a7c:	f000 80df 	beq.w	8004c3e <LCD_WriteChar+0x286>
F:\AT32-workspace\AT32F403ACGU7_clone_windows_desktop_virtual_com_port\Release/../Display/display.c:1021
			else if (bytes_per_line == 4) { tmp = *((uint32_t*)b); }
 8004a80:	f1b8 0f04 	cmp.w	r8, #4
 8004a84:	bf08      	it	eq
 8004a86:	f8da 9000 	ldreq.w	r9, [sl]
F:\AT32-workspace\AT32F403ACGU7_clone_windows_desktop_virtual_com_port\Release/../Display/display.c:1022
			b += bytes_per_line;
 8004a8a:	44c2      	add	sl, r8
F:\AT32-workspace\AT32F403ACGU7_clone_windows_desktop_virtual_com_port\Release/../Display/display.c:1023
			for (j = 0; j < font->width; j++) {
 8004a8c:	2900      	cmp	r1, #0
 8004a8e:	d048      	beq.n	8004b22 <LCD_WriteChar+0x16a>
F:\AT32-workspace\AT32F403ACGU7_clone_windows_desktop_virtual_com_port\Release/../Display/display.c:1025
					LCD_DrawPixel(lcd, x + j, y + i, txcolor);
 8004a90:	fa0f fb87 	sxth.w	fp, r7
 8004a94:	f1bb 0f00 	cmp.w	fp, #0
 8004a98:	db34      	blt.n	8004b04 <LCD_WriteChar+0x14c>
F:\AT32-workspace\AT32F403ACGU7_clone_windows_desktop_virtual_com_port\Release/../Display/display.c:1024
				if ((tmp << j) & k) {
 8004a9a:	9c05      	ldr	r4, [sp, #20]
F:\AT32-workspace\AT32F403ACGU7_clone_windows_desktop_virtual_com_port\Release/../Display/display.c:1023
			for (j = 0; j < font->width; j++) {
 8004a9c:	2500      	movs	r5, #0
 8004a9e:	e003      	b.n	8004aa8 <LCD_WriteChar+0xf0>
 8004aa0:	3401      	adds	r4, #1
 8004aa2:	42a9      	cmp	r1, r5
 8004aa4:	b2a4      	uxth	r4, r4
 8004aa6:	dd2b      	ble.n	8004b00 <LCD_WriteChar+0x148>
F:\AT32-workspace\AT32F403ACGU7_clone_windows_desktop_virtual_com_port\Release/../Display/display.c:1024
				if ((tmp << j) & k) {
 8004aa8:	fa09 f305 	lsl.w	r3, r9, r5
 8004aac:	4233      	tst	r3, r6
 8004aae:	f105 0501 	add.w	r5, r5, #1
 8004ab2:	d0f5      	beq.n	8004aa0 <LCD_WriteChar+0xe8>
LCD_DrawPixel():
F:\AT32-workspace\AT32F403ACGU7_clone_windows_desktop_virtual_com_port\Release/../Display/display.c:698
	if (x > lcd->Width - 1 || y > lcd->Height - 1 || x < 0 || y < 0)	return;
 8004ab4:	8883      	ldrh	r3, [r0, #4]
LCD_WriteChar():
F:\AT32-workspace\AT32F403ACGU7_clone_windows_desktop_virtual_com_port\Release/../Display/display.c:1025
					LCD_DrawPixel(lcd, x + j, y + i, txcolor);
 8004ab6:	b222      	sxth	r2, r4
LCD_DrawPixel():
F:\AT32-workspace\AT32F403ACGU7_clone_windows_desktop_virtual_com_port\Release/../Display/display.c:698
	if (x > lcd->Width - 1 || y > lcd->Height - 1 || x < 0 || y < 0)	return;
 8004ab8:	4293      	cmp	r3, r2
 8004aba:	ddf1      	ble.n	8004aa0 <LCD_WriteChar+0xe8>
 8004abc:	88c3      	ldrh	r3, [r0, #6]
 8004abe:	455b      	cmp	r3, fp
F:\AT32-workspace\AT32F403ACGU7_clone_windows_desktop_virtual_com_port\Release/../Display/display.c:699
	LCD_SetActiveWindow(lcd, x, y, x, y);
 8004ac0:	4623      	mov	r3, r4
F:\AT32-workspace\AT32F403ACGU7_clone_windows_desktop_virtual_com_port\Release/../Display/display.c:698
	if (x > lcd->Width - 1 || y > lcd->Height - 1 || x < 0 || y < 0)	return;
 8004ac2:	dded      	ble.n	8004aa0 <LCD_WriteChar+0xe8>
 8004ac4:	2a00      	cmp	r2, #0
 8004ac6:	dbeb      	blt.n	8004aa0 <LCD_WriteChar+0xe8>
F:\AT32-workspace\AT32F403ACGU7_clone_windows_desktop_virtual_com_port\Release/../Display/display.c:699
	LCD_SetActiveWindow(lcd, x, y, x, y);
 8004ac8:	4621      	mov	r1, r4
 8004aca:	463a      	mov	r2, r7
 8004acc:	9700      	str	r7, [sp, #0]
 8004ace:	9006      	str	r0, [sp, #24]
 8004ad0:	f000 f92a 	bl	8004d28 <LCD_SetActiveWindow>
LCD_Color():
F:\AT32-workspace\AT32F403ACGU7_clone_windows_desktop_virtual_com_port\Release/../Display/display.c:1057
	if (lcd->data_bus == LCD_DATA_8BIT_BUS) {//8-битная передача
 8004ad4:	9806      	ldr	r0, [sp, #24]
F:\AT32-workspace\AT32F403ACGU7_clone_windows_desktop_virtual_com_port\Release/../Display/display.c:1058
		color = (color >> 8) | ((color & 0xFF) << 8);
 8004ad6:	9907      	ldr	r1, [sp, #28]
F:\AT32-workspace\AT32F403ACGU7_clone_windows_desktop_virtual_com_port\Release/../Display/display.c:1057
	if (lcd->data_bus == LCD_DATA_8BIT_BUS) {//8-битная передача
 8004ad8:	f890 2048 	ldrb.w	r2, [r0, #72]	; 0x48
F:\AT32-workspace\AT32F403ACGU7_clone_windows_desktop_virtual_com_port\Release/../Display/display.c:1058
		color = (color >> 8) | ((color & 0xFF) << 8);
 8004adc:	9b04      	ldr	r3, [sp, #16]
 8004ade:	2a01      	cmp	r2, #1
 8004ae0:	bf08      	it	eq
 8004ae2:	460b      	moveq	r3, r1
LCD_DrawPixel():
F:\AT32-workspace\AT32F403ACGU7_clone_windows_desktop_virtual_com_port\Release/../Display/display.c:701
	LCD_WriteData(lcd, &color1, 1);
 8004ae4:	f10d 0126 	add.w	r1, sp, #38	; 0x26
 8004ae8:	2201      	movs	r2, #1
F:\AT32-workspace\AT32F403ACGU7_clone_windows_desktop_virtual_com_port\Release/../Display/display.c:700
	uint16_t color1 = LCD_Color_24b_to_16b(lcd, color);
 8004aea:	f8ad 3026 	strh.w	r3, [sp, #38]	; 0x26
F:\AT32-workspace\AT32F403ACGU7_clone_windows_desktop_virtual_com_port\Release/../Display/display.c:701
	LCD_WriteData(lcd, &color1, 1);
 8004aee:	f000 f97a 	bl	8004de6 <LCD_WriteData>
LCD_WriteChar():
F:\AT32-workspace\AT32F403ACGU7_clone_windows_desktop_virtual_com_port\Release/../Display/display.c:1023
			for (j = 0; j < font->width; j++) {
 8004af2:	9b14      	ldr	r3, [sp, #80]	; 0x50
 8004af4:	9806      	ldr	r0, [sp, #24]
 8004af6:	7819      	ldrb	r1, [r3, #0]
 8004af8:	3401      	adds	r4, #1
 8004afa:	42a9      	cmp	r1, r5
 8004afc:	b2a4      	uxth	r4, r4
 8004afe:	dcd3      	bgt.n	8004aa8 <LCD_WriteChar+0xf0>
 8004b00:	9b14      	ldr	r3, [sp, #80]	; 0x50
 8004b02:	785b      	ldrb	r3, [r3, #1]
F:\AT32-workspace\AT32F403ACGU7_clone_windows_desktop_virtual_com_port\Release/../Display/display.c:1017
		for (i = 0; i < font->height; i++) {
 8004b04:	9a03      	ldr	r2, [sp, #12]
 8004b06:	3201      	adds	r2, #1
 8004b08:	4293      	cmp	r3, r2
 8004b0a:	9203      	str	r2, [sp, #12]
 8004b0c:	dd09      	ble.n	8004b22 <LCD_WriteChar+0x16a>
 8004b0e:	3701      	adds	r7, #1
F:\AT32-workspace\AT32F403ACGU7_clone_windows_desktop_virtual_com_port\Release/../Display/display.c:1018
			if (bytes_per_line == 1) { tmp = *((uint8_t*)b); }
 8004b10:	f1b8 0f01 	cmp.w	r8, #1
 8004b14:	b2bf      	uxth	r7, r7
 8004b16:	d1ab      	bne.n	8004a70 <LCD_WriteChar+0xb8>
F:\AT32-workspace\AT32F403ACGU7_clone_windows_desktop_virtual_com_port\Release/../Display/display.c:1018 (discriminator 1)
 8004b18:	f89a 9000 	ldrb.w	r9, [sl]
F:\AT32-workspace\AT32F403ACGU7_clone_windows_desktop_virtual_com_port\Release/../Display/display.c:1022 (discriminator 1)
			b += bytes_per_line;
 8004b1c:	44c2      	add	sl, r8
F:\AT32-workspace\AT32F403ACGU7_clone_windows_desktop_virtual_com_port\Release/../Display/display.c:1023 (discriminator 1)
			for (j = 0; j < font->width; j++) {
 8004b1e:	2900      	cmp	r1, #0
 8004b20:	d1b6      	bne.n	8004a90 <LCD_WriteChar+0xd8>
F:\AT32-workspace\AT32F403ACGU7_clone_windows_desktop_virtual_com_port\Release/../Display/display.c:1030
}
 8004b22:	b00b      	add	sp, #44	; 0x2c
 8004b24:	e8bd 8ff0 	ldmia.w	sp!, {r4, r5, r6, r7, r8, r9, sl, fp, pc}
F:\AT32-workspace\AT32F403ACGU7_clone_windows_desktop_virtual_com_port\Release/../Display/display.c:972 (discriminator 3)
	ch = ch < font->firstcode || ch > font->lastcode ? 0: ch - font->firstcode;
 8004b28:	eba3 0a0a 	sub.w	sl, r3, sl
 8004b2c:	fa5f fa8a 	uxtb.w	sl, sl
 8004b30:	e777      	b.n	8004a22 <LCD_WriteChar+0x6a>
F:\AT32-workspace\AT32F403ACGU7_clone_windows_desktop_virtual_com_port\Release/../Display/display.c:981
		LCD_SetActiveWindow(lcd, x, y, x + font->width - 1, y + font->height - 1);
 8004b32:	f10b 32ff 	add.w	r2, fp, #4294967295
 8004b36:	4413      	add	r3, r2
 8004b38:	b29b      	uxth	r3, r3
 8004b3a:	9300      	str	r3, [sp, #0]
 8004b3c:	9b05      	ldr	r3, [sp, #20]
F:\AT32-workspace\AT32F403ACGU7_clone_windows_desktop_virtual_com_port\Release/../Display/display.c:979
	spi_type *spi = lcd->spi_data.spi;
 8004b3e:	f8d0 9024 	ldr.w	r9, [r0, #36]	; 0x24
 8004b42:	9003      	str	r0, [sp, #12]
F:\AT32-workspace\AT32F403ACGU7_clone_windows_desktop_virtual_com_port\Release/../Display/display.c:981
		LCD_SetActiveWindow(lcd, x, y, x + font->width - 1, y + font->height - 1);
 8004b44:	3b01      	subs	r3, #1
 8004b46:	440b      	add	r3, r1
 8004b48:	465a      	mov	r2, fp
 8004b4a:	9905      	ldr	r1, [sp, #20]
 8004b4c:	b29b      	uxth	r3, r3
 8004b4e:	f000 f8eb 	bl	8004d28 <LCD_SetActiveWindow>
F:\AT32-workspace\AT32F403ACGU7_clone_windows_desktop_virtual_com_port\Release/../Display/display.c:982
		LCD_CS_LOW
 8004b52:	9803      	ldr	r0, [sp, #12]
 8004b54:	6c01      	ldr	r1, [r0, #64]	; 0x40
 8004b56:	b111      	cbz	r1, 8004b5e <LCD_WriteChar+0x1a6>
F:\AT32-workspace\AT32F403ACGU7_clone_windows_desktop_virtual_com_port\Release/../Display/display.c:982 (discriminator 1)
 8004b58:	f8b0 3044 	ldrh.w	r3, [r0, #68]	; 0x44
 8004b5c:	614b      	str	r3, [r1, #20]
F:\AT32-workspace\AT32F403ACGU7_clone_windows_desktop_virtual_com_port\Release/../Display/display.c:983
		LCD_DC_HI
 8004b5e:	6b83      	ldr	r3, [r0, #56]	; 0x38
 8004b60:	8f82      	ldrh	r2, [r0, #60]	; 0x3c
 8004b62:	611a      	str	r2, [r3, #16]
F:\AT32-workspace\AT32F403ACGU7_clone_windows_desktop_virtual_com_port\Release/../Display/display.c:984
		spi->ctrl1_bit.fbn = SPI_FRAME_8BIT; //установим 8-битную передачу
 8004b64:	f8d9 3000 	ldr.w	r3, [r9]
 8004b68:	f36f 23cb 	bfc	r3, #11, #1
 8004b6c:	f8c9 3000 	str.w	r3, [r9]
F:\AT32-workspace\AT32F403ACGU7_clone_windows_desktop_virtual_com_port\Release/../Display/display.c:985
		if (lcd->data_bus == LCD_DATA_16BIT_BUS) {
 8004b70:	f890 3048 	ldrb.w	r3, [r0, #72]	; 0x48
 8004b74:	2b02      	cmp	r3, #2
 8004b76:	d073      	beq.n	8004c60 <LCD_WriteChar+0x2a8>
F:\AT32-workspace\AT32F403ACGU7_clone_windows_desktop_virtual_com_port\Release/../Display/display.c:988
		spi->ctrl1_bit.spien = TRUE; // SPI включаем
 8004b78:	f8d9 3000 	ldr.w	r3, [r9]
 8004b7c:	f043 0340 	orr.w	r3, r3, #64	; 0x40
 8004b80:	f8c9 3000 	str.w	r3, [r9]
F:\AT32-workspace\AT32F403ACGU7_clone_windows_desktop_virtual_com_port\Release/../Display/display.c:989
		for (i = 0; i < font->height; i++) {
 8004b84:	787b      	ldrb	r3, [r7, #1]
 8004b86:	2b00      	cmp	r3, #0
 8004b88:	d03d      	beq.n	8004c06 <LCD_WriteChar+0x24e>
F:\AT32-workspace\AT32F403ACGU7_clone_windows_desktop_virtual_com_port\Release/../Display/display.c:995
			for (j = 0; j < font->width; j++)
 8004b8a:	f897 e000 	ldrb.w	lr, [r7]
F:\AT32-workspace\AT32F403ACGU7_clone_windows_desktop_virtual_com_port\Release/../Display/display.c:989
		for (i = 0; i < font->height; i++) {
 8004b8e:	f04f 0c00 	mov.w	ip, #0
F:\AT32-workspace\AT32F403ACGU7_clone_windows_desktop_virtual_com_port\Release/../Display/display.c:990
			if (bytes_per_line == 1)      { tmp = *((uint8_t*)b);  }
 8004b92:	f1b8 0f01 	cmp.w	r8, #1
 8004b96:	d07f      	beq.n	8004c98 <LCD_WriteChar+0x2e0>
F:\AT32-workspace\AT32F403ACGU7_clone_windows_desktop_virtual_com_port\Release/../Display/display.c:991
			else if (bytes_per_line == 2) { tmp = *((uint16_t*)b); }
 8004b98:	f1b8 0f02 	cmp.w	r8, #2
 8004b9c:	d07f      	beq.n	8004c9e <LCD_WriteChar+0x2e6>
F:\AT32-workspace\AT32F403ACGU7_clone_windows_desktop_virtual_com_port\Release/../Display/display.c:992
			else if (bytes_per_line == 3) { tmp = (*((uint8_t*)b)) | ((*((uint8_t*)(b + 1))) << 8) |  ((*((uint8_t*)(b + 2))) << 16); }
 8004b9e:	f1b8 0f03 	cmp.w	r8, #3
 8004ba2:	d07f      	beq.n	8004ca4 <LCD_WriteChar+0x2ec>
F:\AT32-workspace\AT32F403ACGU7_clone_windows_desktop_virtual_com_port\Release/../Display/display.c:993
			else { tmp = *((uint32_t*)b); }
 8004ba4:	f8da 1000 	ldr.w	r1, [sl]
F:\AT32-workspace\AT32F403ACGU7_clone_windows_desktop_virtual_com_port\Release/../Display/display.c:994
			b += bytes_per_line;
 8004ba8:	44c2      	add	sl, r8
F:\AT32-workspace\AT32F403ACGU7_clone_windows_desktop_virtual_com_port\Release/../Display/display.c:995
			for (j = 0; j < font->width; j++)
 8004baa:	f1be 0f00 	cmp.w	lr, #0
 8004bae:	d025      	beq.n	8004bfc <LCD_WriteChar+0x244>
 8004bb0:	2200      	movs	r2, #0
F:\AT32-workspace\AT32F403ACGU7_clone_windows_desktop_virtual_com_port\Release/../Display/display.c:997
				color = (tmp << j) & k ? txcolor16: bgcolor16;
 8004bb2:	fa01 f302 	lsl.w	r3, r1, r2
 8004bb6:	4233      	tst	r3, r6
 8004bb8:	bf14      	ite	ne
 8004bba:	46ae      	movne	lr, r5
 8004bbc:	46a6      	moveq	lr, r4
F:\AT32-workspace\AT32F403ACGU7_clone_windows_desktop_virtual_com_port\Release/../Display/display.c:998 (discriminator 1)
				while(!spi->sts_bit.tdbe) ; //ждем окончания передачи
 8004bbe:	f8d9 3008 	ldr.w	r3, [r9, #8]
 8004bc2:	079b      	lsls	r3, r3, #30
 8004bc4:	d5fb      	bpl.n	8004bbe <LCD_WriteChar+0x206>
F:\AT32-workspace\AT32F403ACGU7_clone_windows_desktop_virtual_com_port\Release/../Display/display.c:999
				if (lcd->data_bus == LCD_DATA_16BIT_BUS) {
 8004bc6:	f890 3048 	ldrb.w	r3, [r0, #72]	; 0x48
 8004bca:	2b02      	cmp	r3, #2
 8004bcc:	d152      	bne.n	8004c74 <LCD_WriteChar+0x2bc>
F:\AT32-workspace\AT32F403ACGU7_clone_windows_desktop_virtual_com_port\Release/../Display/display.c:1000
					spi->dt = color;
 8004bce:	f8c9 e00c 	str.w	lr, [r9, #12]
F:\AT32-workspace\AT32F403ACGU7_clone_windows_desktop_virtual_com_port\Release/../Display/display.c:995
			for (j = 0; j < font->width; j++)
 8004bd2:	f897 e000 	ldrb.w	lr, [r7]
 8004bd6:	3201      	adds	r2, #1
 8004bd8:	4596      	cmp	lr, r2
 8004bda:	dd0e      	ble.n	8004bfa <LCD_WriteChar+0x242>
F:\AT32-workspace\AT32F403ACGU7_clone_windows_desktop_virtual_com_port\Release/../Display/display.c:997
				color = (tmp << j) & k ? txcolor16: bgcolor16;
 8004bdc:	fa01 f302 	lsl.w	r3, r1, r2
 8004be0:	4233      	tst	r3, r6
 8004be2:	bf14      	ite	ne
 8004be4:	46ab      	movne	fp, r5
 8004be6:	46a3      	moveq	fp, r4
F:\AT32-workspace\AT32F403ACGU7_clone_windows_desktop_virtual_com_port\Release/../Display/display.c:998
				while(!spi->sts_bit.tdbe) ; //ждем окончания передачи
 8004be8:	f8d9 3008 	ldr.w	r3, [r9, #8]
 8004bec:	079b      	lsls	r3, r3, #30
 8004bee:	d5fb      	bpl.n	8004be8 <LCD_WriteChar+0x230>
F:\AT32-workspace\AT32F403ACGU7_clone_windows_desktop_virtual_com_port\Release/../Display/display.c:995
			for (j = 0; j < font->width; j++)
 8004bf0:	3201      	adds	r2, #1
 8004bf2:	4596      	cmp	lr, r2
F:\AT32-workspace\AT32F403ACGU7_clone_windows_desktop_virtual_com_port\Release/../Display/display.c:1000
					spi->dt = color;
 8004bf4:	f8c9 b00c 	str.w	fp, [r9, #12]
F:\AT32-workspace\AT32F403ACGU7_clone_windows_desktop_virtual_com_port\Release/../Display/display.c:995
			for (j = 0; j < font->width; j++)
 8004bf8:	dcf0      	bgt.n	8004bdc <LCD_WriteChar+0x224>
 8004bfa:	787b      	ldrb	r3, [r7, #1]
F:\AT32-workspace\AT32F403ACGU7_clone_windows_desktop_virtual_com_port\Release/../Display/display.c:989 (discriminator 2)
		for (i = 0; i < font->height; i++) {
 8004bfc:	f10c 0c01 	add.w	ip, ip, #1
 8004c00:	4563      	cmp	r3, ip
 8004c02:	dcc6      	bgt.n	8004b92 <LCD_WriteChar+0x1da>
F:\AT32-workspace\AT32F403ACGU7_clone_windows_desktop_virtual_com_port\Release/../Display/display.c:1014
		LCD_CS_HI
 8004c04:	6c01      	ldr	r1, [r0, #64]	; 0x40
F:\AT32-workspace\AT32F403ACGU7_clone_windows_desktop_virtual_com_port\Release/../Display/display.c:1010 (discriminator 1)
		while(!spi->sts_bit.tdbe) ; //ждем окончания передачи
 8004c06:	f8d9 3008 	ldr.w	r3, [r9, #8]
 8004c0a:	079a      	lsls	r2, r3, #30
 8004c0c:	d5fb      	bpl.n	8004c06 <LCD_WriteChar+0x24e>
F:\AT32-workspace\AT32F403ACGU7_clone_windows_desktop_virtual_com_port\Release/../Display/display.c:1011 (discriminator 1)
		while(spi->sts_bit.bf) ; 	//ждем когда SPI освободится
 8004c0e:	f8d9 3008 	ldr.w	r3, [r9, #8]
 8004c12:	f3c3 12c0 	ubfx	r2, r3, #7, #1
 8004c16:	061b      	lsls	r3, r3, #24
 8004c18:	d4f9      	bmi.n	8004c0e <LCD_WriteChar+0x256>
F:\AT32-workspace\AT32F403ACGU7_clone_windows_desktop_virtual_com_port\Release/../Display/display.c:1013
		spi->ctrl1_bit.spien = FALSE;
 8004c1a:	f8d9 3000 	ldr.w	r3, [r9]
 8004c1e:	f362 1386 	bfi	r3, r2, #6, #1
 8004c22:	f8c9 3000 	str.w	r3, [r9]
F:\AT32-workspace\AT32F403ACGU7_clone_windows_desktop_virtual_com_port\Release/../Display/display.c:1014
		LCD_CS_HI
 8004c26:	2900      	cmp	r1, #0
 8004c28:	f43f af7b 	beq.w	8004b22 <LCD_WriteChar+0x16a>
F:\AT32-workspace\AT32F403ACGU7_clone_windows_desktop_virtual_com_port\Release/../Display/display.c:1014 (discriminator 1)
 8004c2c:	f8b0 3044 	ldrh.w	r3, [r0, #68]	; 0x44
 8004c30:	610b      	str	r3, [r1, #16]
F:\AT32-workspace\AT32F403ACGU7_clone_windows_desktop_virtual_com_port\Release/../Display/display.c:1030 (discriminator 1)
}
 8004c32:	b00b      	add	sp, #44	; 0x2c
 8004c34:	e8bd 8ff0 	ldmia.w	sp!, {r4, r5, r6, r7, r8, r9, sl, fp, pc}
F:\AT32-workspace\AT32F403ACGU7_clone_windows_desktop_virtual_com_port\Release/../Display/display.c:1019 (discriminator 1)
			else if (bytes_per_line == 2) { tmp = *((uint16_t*)b); }
 8004c38:	f8ba 9000 	ldrh.w	r9, [sl]
 8004c3c:	e725      	b.n	8004a8a <LCD_WriteChar+0xd2>
F:\AT32-workspace\AT32F403ACGU7_clone_windows_desktop_virtual_com_port\Release/../Display/display.c:1020 (discriminator 1)
			else if (bytes_per_line == 3) { tmp = (*((uint8_t*)b)) | ((*((uint8_t*)(b + 1))) << 8) |  ((*((uint8_t*)(b + 2))) << 16); }
 8004c3e:	f89a 9002 	ldrb.w	r9, [sl, #2]
 8004c42:	f89a 2001 	ldrb.w	r2, [sl, #1]
 8004c46:	ea4f 4909 	mov.w	r9, r9, lsl #16
 8004c4a:	ea49 2902 	orr.w	r9, r9, r2, lsl #8
 8004c4e:	f89a 2000 	ldrb.w	r2, [sl]
 8004c52:	ea49 0902 	orr.w	r9, r9, r2
 8004c56:	e718      	b.n	8004a8a <LCD_WriteChar+0xd2>
LCD_Color():
F:\AT32-workspace\AT32F403ACGU7_clone_windows_desktop_virtual_com_port\Release/../Display/display.c:1058
		color = (color >> 8) | ((color & 0xFF) << 8);
 8004c58:	9c04      	ldr	r4, [sp, #16]
 8004c5a:	ba65      	rev16	r5, r4
 8004c5c:	b2ad      	uxth	r5, r5
 8004c5e:	e6c7      	b.n	80049f0 <LCD_WriteChar+0x38>
LCD_WriteChar():
F:\AT32-workspace\AT32F403ACGU7_clone_windows_desktop_virtual_com_port\Release/../Display/display.c:986
			spi->ctrl1_bit.fbn = SPI_FRAME_16BIT; //16-битная передача
 8004c60:	f8d9 3000 	ldr.w	r3, [r9]
 8004c64:	f443 6300 	orr.w	r3, r3, #2048	; 0x800
 8004c68:	f8c9 3000 	str.w	r3, [r9]
 8004c6c:	e784      	b.n	8004b78 <LCD_WriteChar+0x1c0>
 8004c6e:	bf00      	nop
 8004c70:	fffff800 	.word	0xfffff800
F:\AT32-workspace\AT32F403ACGU7_clone_windows_desktop_virtual_com_port\Release/../Display/display.c:1003
					uint8_t color1 = color & 0xFF, color2 = color >> 8;
 8004c74:	fa5f f38e 	uxtb.w	r3, lr
F:\AT32-workspace\AT32F403ACGU7_clone_windows_desktop_virtual_com_port\Release/../Display/display.c:1004
					*((volatile uint8_t *)&spi->dt) = color1;
 8004c78:	f889 300c 	strb.w	r3, [r9, #12]
F:\AT32-workspace\AT32F403ACGU7_clone_windows_desktop_virtual_com_port\Release/../Display/display.c:1003
					uint8_t color1 = color & 0xFF, color2 = color >> 8;
 8004c7c:	f3ce 2e07 	ubfx	lr, lr, #8, #8
F:\AT32-workspace\AT32F403ACGU7_clone_windows_desktop_virtual_com_port\Release/../Display/display.c:1005 (discriminator 1)
					while(!spi->sts_bit.tdbe) ; //ждем окончания передачи
 8004c80:	f8d9 3008 	ldr.w	r3, [r9, #8]
 8004c84:	079b      	lsls	r3, r3, #30
 8004c86:	d5fb      	bpl.n	8004c80 <LCD_WriteChar+0x2c8>
F:\AT32-workspace\AT32F403ACGU7_clone_windows_desktop_virtual_com_port\Release/../Display/display.c:1006
					*((volatile uint8_t *)&spi->dt) = color2;
 8004c88:	f889 e00c 	strb.w	lr, [r9, #12]
F:\AT32-workspace\AT32F403ACGU7_clone_windows_desktop_virtual_com_port\Release/../Display/display.c:995
			for (j = 0; j < font->width; j++)
 8004c8c:	f897 e000 	ldrb.w	lr, [r7]
 8004c90:	3201      	adds	r2, #1
 8004c92:	4572      	cmp	r2, lr
 8004c94:	db8d      	blt.n	8004bb2 <LCD_WriteChar+0x1fa>
 8004c96:	e7b0      	b.n	8004bfa <LCD_WriteChar+0x242>
F:\AT32-workspace\AT32F403ACGU7_clone_windows_desktop_virtual_com_port\Release/../Display/display.c:990 (discriminator 1)
			if (bytes_per_line == 1)      { tmp = *((uint8_t*)b);  }
 8004c98:	f89a 1000 	ldrb.w	r1, [sl]
 8004c9c:	e784      	b.n	8004ba8 <LCD_WriteChar+0x1f0>
F:\AT32-workspace\AT32F403ACGU7_clone_windows_desktop_virtual_com_port\Release/../Display/display.c:991 (discriminator 1)
			else if (bytes_per_line == 2) { tmp = *((uint16_t*)b); }
 8004c9e:	f8ba 1000 	ldrh.w	r1, [sl]
 8004ca2:	e781      	b.n	8004ba8 <LCD_WriteChar+0x1f0>
F:\AT32-workspace\AT32F403ACGU7_clone_windows_desktop_virtual_com_port\Release/../Display/display.c:992 (discriminator 1)
			else if (bytes_per_line == 3) { tmp = (*((uint8_t*)b)) | ((*((uint8_t*)(b + 1))) << 8) |  ((*((uint8_t*)(b + 2))) << 16); }
 8004ca4:	f89a 1002 	ldrb.w	r1, [sl, #2]
 8004ca8:	f89a 2001 	ldrb.w	r2, [sl, #1]
 8004cac:	0409      	lsls	r1, r1, #16
 8004cae:	ea41 2102 	orr.w	r1, r1, r2, lsl #8
 8004cb2:	f89a 2000 	ldrb.w	r2, [sl]
 8004cb6:	4311      	orrs	r1, r2
 8004cb8:	e776      	b.n	8004ba8 <LCD_WriteChar+0x1f0>
 8004cba:	bf00      	nop

08004cbc <LCD_WriteString>:
LCD_WriteString():
F:\AT32-workspace\AT32F403ACGU7_clone_windows_desktop_virtual_com_port\Release/../Display/display.c:1037
{
 8004cbc:	e92d 4ff0 	stmdb	sp!, {r4, r5, r6, r7, r8, r9, sl, fp, lr}
 8004cc0:	461f      	mov	r7, r3
 8004cc2:	b085      	sub	sp, #20
F:\AT32-workspace\AT32F403ACGU7_clone_windows_desktop_virtual_com_port\Release/../Display/display.c:1038
	while (*str) {
 8004cc4:	781b      	ldrb	r3, [r3, #0]
F:\AT32-workspace\AT32F403ACGU7_clone_windows_desktop_virtual_com_port\Release/../Display/display.c:1037
{
 8004cc6:	9e0e      	ldr	r6, [sp, #56]	; 0x38
 8004cc8:	f89d a044 	ldrb.w	sl, [sp, #68]	; 0x44
 8004ccc:	e9dd 890f 	ldrd	r8, r9, [sp, #60]	; 0x3c
 8004cd0:	4605      	mov	r5, r0
 8004cd2:	460c      	mov	r4, r1
 8004cd4:	4693      	mov	fp, r2
F:\AT32-workspace\AT32F403ACGU7_clone_windows_desktop_virtual_com_port\Release/../Display/display.c:1038
	while (*str) {
 8004cd6:	b303      	cbz	r3, 8004d1a <LCD_WriteString+0x5e>
F:\AT32-workspace\AT32F403ACGU7_clone_windows_desktop_virtual_com_port\Release/../Display/display.c:1039
		if (x + font->width > lcd->Width) {
 8004cd8:	f896 c000 	ldrb.w	ip, [r6]
 8004cdc:	88aa      	ldrh	r2, [r5, #4]
 8004cde:	44a4      	add	ip, r4
 8004ce0:	4594      	cmp	ip, r2
F:\AT32-workspace\AT32F403ACGU7_clone_windows_desktop_virtual_com_port\Release/../Display/display.c:1046
		LCD_WriteChar(lcd, x, y, *str, font, color, bgcolor, modesym);
 8004ce2:	4628      	mov	r0, r5
F:\AT32-workspace\AT32F403ACGU7_clone_windows_desktop_virtual_com_port\Release/../Display/display.c:1039
		if (x + font->width > lcd->Width) {
 8004ce4:	dd09      	ble.n	8004cfa <LCD_WriteString+0x3e>
F:\AT32-workspace\AT32F403ACGU7_clone_windows_desktop_virtual_com_port\Release/../Display/display.c:1041
			y += font->height;
 8004ce6:	7871      	ldrb	r1, [r6, #1]
F:\AT32-workspace\AT32F403ACGU7_clone_windows_desktop_virtual_com_port\Release/../Display/display.c:1042
			if (y + font->height > lcd->Height) {
 8004ce8:	88ec      	ldrh	r4, [r5, #6]
F:\AT32-workspace\AT32F403ACGU7_clone_windows_desktop_virtual_com_port\Release/../Display/display.c:1041
			y += font->height;
 8004cea:	448b      	add	fp, r1
 8004cec:	fa1f fb8b 	uxth.w	fp, fp
F:\AT32-workspace\AT32F403ACGU7_clone_windows_desktop_virtual_com_port\Release/../Display/display.c:1042
			if (y + font->height > lcd->Height) {
 8004cf0:	4459      	add	r1, fp
 8004cf2:	42a1      	cmp	r1, r4
F:\AT32-workspace\AT32F403ACGU7_clone_windows_desktop_virtual_com_port\Release/../Display/display.c:1040
			x = 0;
 8004cf4:	f04f 0400 	mov.w	r4, #0
F:\AT32-workspace\AT32F403ACGU7_clone_windows_desktop_virtual_com_port\Release/../Display/display.c:1042
			if (y + font->height > lcd->Height) {
 8004cf8:	dc0f      	bgt.n	8004d1a <LCD_WriteString+0x5e>
F:\AT32-workspace\AT32F403ACGU7_clone_windows_desktop_virtual_com_port\Release/../Display/display.c:1046
		LCD_WriteChar(lcd, x, y, *str, font, color, bgcolor, modesym);
 8004cfa:	4621      	mov	r1, r4
 8004cfc:	e9cd 9a02 	strd	r9, sl, [sp, #8]
 8004d00:	e9cd 6800 	strd	r6, r8, [sp]
 8004d04:	465a      	mov	r2, fp
 8004d06:	f7ff fe57 	bl	80049b8 <LCD_WriteChar>
F:\AT32-workspace\AT32F403ACGU7_clone_windows_desktop_virtual_com_port\Release/../Display/display.c:1047
		x += font->width;
 8004d0a:	f896 c000 	ldrb.w	ip, [r6]
F:\AT32-workspace\AT32F403ACGU7_clone_windows_desktop_virtual_com_port\Release/../Display/display.c:1038
	while (*str) {
 8004d0e:	f817 3f01 	ldrb.w	r3, [r7, #1]!
F:\AT32-workspace\AT32F403ACGU7_clone_windows_desktop_virtual_com_port\Release/../Display/display.c:1047
		x += font->width;
 8004d12:	4464      	add	r4, ip
 8004d14:	b2a4      	uxth	r4, r4
F:\AT32-workspace\AT32F403ACGU7_clone_windows_desktop_virtual_com_port\Release/../Display/display.c:1038
	while (*str) {
 8004d16:	2b00      	cmp	r3, #0
 8004d18:	d1e0      	bne.n	8004cdc <LCD_WriteString+0x20>
F:\AT32-workspace\AT32F403ACGU7_clone_windows_desktop_virtual_com_port\Release/../Display/display.c:1050
	lcd->AtPos.x = x;
 8004d1a:	81ec      	strh	r4, [r5, #14]
F:\AT32-workspace\AT32F403ACGU7_clone_windows_desktop_virtual_com_port\Release/../Display/display.c:1051
	lcd->AtPos.y = y;
 8004d1c:	f8a5 b010 	strh.w	fp, [r5, #16]
F:\AT32-workspace\AT32F403ACGU7_clone_windows_desktop_virtual_com_port\Release/../Display/display.c:1052
}
 8004d20:	b005      	add	sp, #20
 8004d22:	e8bd 8ff0 	ldmia.w	sp!, {r4, r5, r6, r7, r8, r9, sl, fp, pc}
 8004d26:	bf00      	nop

08004d28 <LCD_SetActiveWindow>:
LCD_SetActiveWindow():
F:\AT32-workspace\AT32F403ACGU7_clone_windows_desktop_virtual_com_port\Release/../Display/display_asm.S:47
		.section  .text.LCD_SetActiveWindow
		.weak  LCD_SetActiveWindow
		.type  LCD_SetActiveWindow, %function
LCD_SetActiveWindow:
 		//r0 = lcd, r1 = x1, r2 = y1, r3 = x2, [sp + 0] = y2
 		push 	{r4, r5, lr}  			//сохраняем регистры, sp = sp - 12
 8004d28:	b530      	push	{r4, r5, lr}
F:\AT32-workspace\AT32F403ACGU7_clone_windows_desktop_virtual_com_port\Release/../Display/display_asm.S:51
 		//----------- формируем в стеке список команд с параметрами ----------
		//список формируется в обратном порядке (по правилу работы стека:
		//LIFO (англ. last in, first out, «последним пришёл — первым ушёл»)
		movs	r5, #0x2c				//команда 0x2c контроллера дисплея
 8004d2a:	252c      	movs	r5, #44	; 0x2c
F:\AT32-workspace\AT32F403ACGU7_clone_windows_desktop_virtual_com_port\Release/../Display/display_asm.S:52
		ldrh	lr, [r0, #lcd_y_offs]	//y_offs из обработчика Lcd
 8004d2c:	f8b0 e00c 	ldrh.w	lr, [r0, #12]
F:\AT32-workspace\AT32F403ACGU7_clone_windows_desktop_virtual_com_port\Release/../Display/display_asm.S:53
		ldrh	r4, [sp, #12] 			//y2 = [sp + 12] из стека
 8004d30:	f8bd 400c 	ldrh.w	r4, [sp, #12]
F:\AT32-workspace\AT32F403ACGU7_clone_windows_desktop_virtual_com_port\Release/../Display/display_asm.S:54
		add		r4, r4, lr				//y2 = y2 + y_offs
 8004d34:	4474      	add	r4, lr
F:\AT32-workspace\AT32F403ACGU7_clone_windows_desktop_virtual_com_port\Release/../Display/display_asm.S:55
		add		r2, r2, lr				//y1 = y1 + y_offs
 8004d36:	4472      	add	r2, lr
F:\AT32-workspace\AT32F403ACGU7_clone_windows_desktop_virtual_com_port\Release/../Display/display_asm.S:56
		push 	{r2, r4, r5}	 		//в стек: 0x2c, y2, y1
 8004d38:	b434      	push	{r2, r4, r5}
F:\AT32-workspace\AT32F403ACGU7_clone_windows_desktop_virtual_com_port\Release/../Display/display_asm.S:57
		movs	r5, #0x2b				//команда 0x2b контроллера дисплея
 8004d3a:	252b      	movs	r5, #43	; 0x2b
F:\AT32-workspace\AT32F403ACGU7_clone_windows_desktop_virtual_com_port\Release/../Display/display_asm.S:58
		ldrh	lr, [r0, #lcd_x_offs]	//x_offs из обработчика Lcd
 8004d3c:	f8b0 e00a 	ldrh.w	lr, [r0, #10]
F:\AT32-workspace\AT32F403ACGU7_clone_windows_desktop_virtual_com_port\Release/../Display/display_asm.S:59
		add		r4, r3, lr				//x2 = x2 + x_offs
 8004d40:	eb03 040e 	add.w	r4, r3, lr
F:\AT32-workspace\AT32F403ACGU7_clone_windows_desktop_virtual_com_port\Release/../Display/display_asm.S:60
		add		r3, r1, lr				//x1 = x1 + x_offs
 8004d44:	eb01 030e 	add.w	r3, r1, lr
F:\AT32-workspace\AT32F403ACGU7_clone_windows_desktop_virtual_com_port\Release/../Display/display_asm.S:61
		movs	r2, 0x2a				//команда 0x2a контроллера дисплея
 8004d48:	222a      	movs	r2, #42	; 0x2a
F:\AT32-workspace\AT32F403ACGU7_clone_windows_desktop_virtual_com_port\Release/../Display/display_asm.S:62
		push 	{r2, r3, r4, r5}		//в стек: 0x2b, x2, x1, 0x2a
 8004d4a:	b43c      	push	{r2, r3, r4, r5}
F:\AT32-workspace\AT32F403ACGU7_clone_windows_desktop_virtual_com_port\Release/../Display/display_asm.S:63
		ldr		lr, [r0, #lcd_spi]		//spi из обработчика Lcd
 8004d4c:	f8d0 e024 	ldr.w	lr, [r0, #36]	; 0x24
F:\AT32-workspace\AT32F403ACGU7_clone_windows_desktop_virtual_com_port\Release/../Display/display_asm.S:64
		ldr		r3, [r0, #lcd_cs_port]	//порт cs из обработчика Lcd
 8004d50:	6c03      	ldr	r3, [r0, #64]	; 0x40
F:\AT32-workspace\AT32F403ACGU7_clone_windows_desktop_virtual_com_port\Release/../Display/display_asm.S:65
		ldr 	r4, [r0, #lcd_dc_port]	//порт dc из обработчика Lcd
 8004d52:	6b84      	ldr	r4, [r0, #56]	; 0x38
F:\AT32-workspace\AT32F403ACGU7_clone_windows_desktop_virtual_com_port\Release/../Display/display_asm.S:66
		ldrh	r5, [r0, #lcd_cs_pin]	//пин cs из обработчика Lcd
 8004d54:	f8b0 5044 	ldrh.w	r5, [r0, #68]	; 0x44
F:\AT32-workspace\AT32F403ACGU7_clone_windows_desktop_virtual_com_port\Release/../Display/display_asm.S:67
		ldrh	r12, [r0, #lcd_dc_pin]	//пин dc из обработчика Lcd
 8004d58:	f8b0 c03c 	ldrh.w	ip, [r0, #60]	; 0x3c
F:\AT32-workspace\AT32F403ACGU7_clone_windows_desktop_virtual_com_port\Release/../Display/display_asm.S:69
.LCD_SetWin1:							//ожидание освобождения spi
		ldr 	r0, [lr, #0x00] 		//читаем регистр SPI_CTRL1
 8004d5c:	f8de 0000 	ldr.w	r0, [lr]
F:\AT32-workspace\AT32F403ACGU7_clone_windows_desktop_virtual_com_port\Release/../Display/display_asm.S:70
		movs	r1, r0					//сохраняем CR1 в r1 для последующего использования
 8004d60:	0001      	movs	r1, r0
F:\AT32-workspace\AT32F403ACGU7_clone_windows_desktop_virtual_com_port\Release/../Display/display_asm.S:71
		ands	r0, r0, #64  			//проверяем состояние бита SPIEN (6 бит) рег. SPI_CTRL1
 8004d62:	f010 0040 	ands.w	r0, r0, #64	; 0x40
F:\AT32-workspace\AT32F403ACGU7_clone_windows_desktop_virtual_com_port\Release/../Display/display_asm.S:72
		bne		.LCD_SetWin1 			//если бит установлен, то идем на повторный опрос
 8004d66:	d1f9      	bne.n	8004d5c <LCD_SetActiveWindow+0x34>
F:\AT32-workspace\AT32F403ACGU7_clone_windows_desktop_virtual_com_port\Release/../Display/display_asm.S:74
		//------------------- настройка spi -------------------
		bic		r1, r1, #0b1010110000000000 //очистка: SLBEN (15 бит), CCEN (13 бит), FBN (11 бит), ORA (10 бит)
 8004d68:	f421 412c 	bic.w	r1, r1, #44032	; 0xac00
F:\AT32-workspace\AT32F403ACGU7_clone_windows_desktop_virtual_com_port\Release/../Display/display_asm.S:75
		orr		r1, r1, #64					//установка SPIEN в 1 (6 бит) - включение spi
 8004d6c:	f041 0140 	orr.w	r1, r1, #64	; 0x40
F:\AT32-workspace\AT32F403ACGU7_clone_windows_desktop_virtual_com_port\Release/../Display/display_asm.S:76
		str		r1, [lr, #0x00] 			//запись в рег. SPI_CTRL1
 8004d70:	f8ce 1000 	str.w	r1, [lr]
F:\AT32-workspace\AT32F403ACGU7_clone_windows_desktop_virtual_com_port\Release/../Display/display_asm.S:78
		//-----------------------------------------------------
		cbz		r3, .LCD_SetWin1_1		//проверка: поддерживается ли cs?
 8004d74:	b103      	cbz	r3, 8004d78 <LCD_SetActiveWindow+0x50>
F:\AT32-workspace\AT32F403ACGU7_clone_windows_desktop_virtual_com_port\Release/../Display/display_asm.S:79
		str		r5, [r3, #0x14] 		//запись в GPIOx_CLR регистр порта, cs low
 8004d76:	615d      	str	r5, [r3, #20]
F:\AT32-workspace\AT32F403ACGU7_clone_windows_desktop_virtual_com_port\Release/../Display/display_asm.S:81
.LCD_SetWin1_1:
		str		r12, [r4, #0x14]		//запись в GPIOx_CLR регистр порта, dc low
 8004d78:	f8c4 c014 	str.w	ip, [r4, #20]
F:\AT32-workspace\AT32F403ACGU7_clone_windows_desktop_virtual_com_port\Release/../Display/display_asm.S:82
		pop		{r0}					//"вытаскиваем" команду из стека
 8004d7c:	bc01      	pop	{r0}
F:\AT32-workspace\AT32F403ACGU7_clone_windows_desktop_virtual_com_port\Release/../Display/display_asm.S:83
		strb	r0, [lr, #0x0c]			//запись команды в регистр SPI_DT
 8004d7e:	f88e 000c 	strb.w	r0, [lr, #12]
F:\AT32-workspace\AT32F403ACGU7_clone_windows_desktop_virtual_com_port\Release/../Display/display_asm.S:85
.LCD_SetWin2:							//ожидание готовности к приему новых данных spi
		ldr 	r1, [lr, #0x08] 		//чтение из регистра SPI_STS
 8004d82:	f8de 1008 	ldr.w	r1, [lr, #8]
F:\AT32-workspace\AT32F403ACGU7_clone_windows_desktop_virtual_com_port\Release/../Display/display_asm.S:86
		ands	r1, r1, #2 				//проверяем 1 бит (флаг TDBE)
 8004d86:	f011 0102 	ands.w	r1, r1, #2
F:\AT32-workspace\AT32F403ACGU7_clone_windows_desktop_virtual_com_port\Release/../Display/display_asm.S:87
		beq		.LCD_SetWin2			//пока бит сброшен продолжаем опрос статуса
 8004d8a:	d0fa      	beq.n	8004d82 <LCD_SetActiveWindow+0x5a>
F:\AT32-workspace\AT32F403ACGU7_clone_windows_desktop_virtual_com_port\Release/../Display/display_asm.S:89
.LCD_SetWin3:
		ldr 	r1, [lr, #0x08]			//чтение из регистра SPI_STS
 8004d8c:	f8de 1008 	ldr.w	r1, [lr, #8]
F:\AT32-workspace\AT32F403ACGU7_clone_windows_desktop_virtual_com_port\Release/../Display/display_asm.S:90
		ands	r1, r1, #128 			//проверяем 7 бит (флаг BF)
 8004d90:	f011 0180 	ands.w	r1, r1, #128	; 0x80
F:\AT32-workspace\AT32F403ACGU7_clone_windows_desktop_virtual_com_port\Release/../Display/display_asm.S:91
		bne		.LCD_SetWin3			//пока бит установлен продолжаем опрос статуса
 8004d94:	d1fa      	bne.n	8004d8c <LCD_SetActiveWindow+0x64>
F:\AT32-workspace\AT32F403ACGU7_clone_windows_desktop_virtual_com_port\Release/../Display/display_asm.S:92
		cmp		r0, #0x2c				//последняя команда (без параметров)?
 8004d96:	282c      	cmp	r0, #44	; 0x2c
F:\AT32-workspace\AT32F403ACGU7_clone_windows_desktop_virtual_com_port\Release/../Display/display_asm.S:93
		beq		.LCD_SetWin6_1			//идем на завершение
 8004d98:	d01a      	beq.n	8004dd0 <LCD_SetActiveWindow+0xa8>
F:\AT32-workspace\AT32F403ACGU7_clone_windows_desktop_virtual_com_port\Release/../Display/display_asm.S:94
		str		r12, [r4, #0x10]		//запись в GPIOx_SCR регистр порта, dc hi
 8004d9a:	f8c4 c010 	str.w	ip, [r4, #16]
F:\AT32-workspace\AT32F403ACGU7_clone_windows_desktop_virtual_com_port\Release/../Display/display_asm.S:95
		movs	r2, #2					//r2 = 2, цикл по числу параметров команды
 8004d9e:	2202      	movs	r2, #2
F:\AT32-workspace\AT32F403ACGU7_clone_windows_desktop_virtual_com_port\Release/../Display/display_asm.S:97
.LCD_SetWin3_1:
		pop		{r0}					//"вытаскиваем" параметр из стека
 8004da0:	bc01      	pop	{r0}
F:\AT32-workspace\AT32F403ACGU7_clone_windows_desktop_virtual_com_port\Release/../Display/display_asm.S:98
		mov 	r1, r0, lsr #8			//x1 = x >> 8
 8004da2:	ea4f 2110 	mov.w	r1, r0, lsr #8
F:\AT32-workspace\AT32F403ACGU7_clone_windows_desktop_virtual_com_port\Release/../Display/display_asm.S:99
		strb	r1, [lr, #0x0c]			//передаем старший байт параметра
 8004da6:	f88e 100c 	strb.w	r1, [lr, #12]
F:\AT32-workspace\AT32F403ACGU7_clone_windows_desktop_virtual_com_port\Release/../Display/display_asm.S:101
.LCD_SetWin4:
		ldr 	r1, [lr, #0x08] 		//чтение из регистра SPI_STS
 8004daa:	f8de 1008 	ldr.w	r1, [lr, #8]
F:\AT32-workspace\AT32F403ACGU7_clone_windows_desktop_virtual_com_port\Release/../Display/display_asm.S:102
		ands	r1, r1, #2 				//проверяем 1 бит (флаг TDBE)
 8004dae:	f011 0102 	ands.w	r1, r1, #2
F:\AT32-workspace\AT32F403ACGU7_clone_windows_desktop_virtual_com_port\Release/../Display/display_asm.S:103
		beq		.LCD_SetWin4
 8004db2:	d0fa      	beq.n	8004daa <LCD_SetActiveWindow+0x82>
F:\AT32-workspace\AT32F403ACGU7_clone_windows_desktop_virtual_com_port\Release/../Display/display_asm.S:104
		strb	r0, [lr, #0x0c]			//передаем младший байт параметра
 8004db4:	f88e 000c 	strb.w	r0, [lr, #12]
F:\AT32-workspace\AT32F403ACGU7_clone_windows_desktop_virtual_com_port\Release/../Display/display_asm.S:106
.LCD_SetWin5:
		ldr 	r1, [lr, #0x08]			//ждем флаг TDBE
 8004db8:	f8de 1008 	ldr.w	r1, [lr, #8]
F:\AT32-workspace\AT32F403ACGU7_clone_windows_desktop_virtual_com_port\Release/../Display/display_asm.S:107
		lsls	r1, r1, #2
 8004dbc:	0089      	lsls	r1, r1, #2
F:\AT32-workspace\AT32F403ACGU7_clone_windows_desktop_virtual_com_port\Release/../Display/display_asm.S:108
		beq		.LCD_SetWin5
 8004dbe:	d0fb      	beq.n	8004db8 <LCD_SetActiveWindow+0x90>
F:\AT32-workspace\AT32F403ACGU7_clone_windows_desktop_virtual_com_port\Release/../Display/display_asm.S:109
		subs	r2, r2, #1				//уменьшаем счетчик с обновлением флагов
 8004dc0:	3a01      	subs	r2, #1
F:\AT32-workspace\AT32F403ACGU7_clone_windows_desktop_virtual_com_port\Release/../Display/display_asm.S:110
		bne		.LCD_SetWin3_1			//в счетчике не ноль -> передаем второй параметр команды
 8004dc2:	d1ed      	bne.n	8004da0 <LCD_SetActiveWindow+0x78>
F:\AT32-workspace\AT32F403ACGU7_clone_windows_desktop_virtual_com_port\Release/../Display/display_asm.S:112
.LCD_SetWin6:
		ldr 	r1, [lr, #0x08]			//ждем флаг BF
 8004dc4:	f8de 1008 	ldr.w	r1, [lr, #8]
F:\AT32-workspace\AT32F403ACGU7_clone_windows_desktop_virtual_com_port\Release/../Display/display_asm.S:113
		ands	r1, r1, #128
 8004dc8:	f011 0180 	ands.w	r1, r1, #128	; 0x80
F:\AT32-workspace\AT32F403ACGU7_clone_windows_desktop_virtual_com_port\Release/../Display/display_asm.S:114
		bne		.LCD_SetWin6
 8004dcc:	d1fa      	bne.n	8004dc4 <LCD_SetActiveWindow+0x9c>
F:\AT32-workspace\AT32F403ACGU7_clone_windows_desktop_virtual_com_port\Release/../Display/display_asm.S:115
		b		.LCD_SetWin1_1			//переход к следующей команде
 8004dce:	e7d3      	b.n	8004d78 <LCD_SetActiveWindow+0x50>
F:\AT32-workspace\AT32F403ACGU7_clone_windows_desktop_virtual_com_port\Release/../Display/display_asm.S:117
.LCD_SetWin6_1:
		cbz		r3, .LCD_SetWin7		//проверка: поддерживается ли cs?
 8004dd0:	b103      	cbz	r3, 8004dd4 <LCD_SetActiveWindow+0xac>
F:\AT32-workspace\AT32F403ACGU7_clone_windows_desktop_virtual_com_port\Release/../Display/display_asm.S:118
		str		r5, [r3, #0x10]			//запись в GPIOx_SCR регистр порта, cs hi
 8004dd2:	611d      	str	r5, [r3, #16]
F:\AT32-workspace\AT32F403ACGU7_clone_windows_desktop_virtual_com_port\Release/../Display/display_asm.S:120
.LCD_SetWin7:
		ldr 	r0, [lr, #0x00]			//читаем рег. SPI_CTRL1
 8004dd4:	f8de 0000 	ldr.w	r0, [lr]
F:\AT32-workspace\AT32F403ACGU7_clone_windows_desktop_virtual_com_port\Release/../Display/display_asm.S:121
		bic		r0, r0, #64				//сбросим 6 бит (SPIEN)
 8004dd8:	f020 0040 	bic.w	r0, r0, #64	; 0x40
F:\AT32-workspace\AT32F403ACGU7_clone_windows_desktop_virtual_com_port\Release/../Display/display_asm.S:122
		orr		r0, r0, #2048			//установим 11 бит (FBN) - 16-битный кадр spi
 8004ddc:	f440 6000 	orr.w	r0, r0, #2048	; 0x800
F:\AT32-workspace\AT32F403ACGU7_clone_windows_desktop_virtual_com_port\Release/../Display/display_asm.S:123
		str 	r0, [lr, #0x00]			//записываем рег. SPI_CTRL1
 8004de0:	f8ce 0000 	str.w	r0, [lr]
F:\AT32-workspace\AT32F403ACGU7_clone_windows_desktop_virtual_com_port\Release/../Display/display_asm.S:124
		pop 	{r4, r5, pc}			//восстанавливаем регистры, адрес возврата из подпрограммы помещается в pc
 8004de4:	bd30      	pop	{r4, r5, pc}

08004de6 <LCD_WriteData>:
LCD_WriteData():
F:\AT32-workspace\AT32F403ACGU7_clone_windows_desktop_virtual_com_port\Release/../Display/display_asm.S:134
		.section  .text.LCD_WriteData
		.weak  LCD_WriteData
		.type  LCD_WriteData, %function
LCD_WriteData:
		//r0 = lcd, r1 = data, r2 = len
		push 	{r4, r5, lr}			//сохраняем регистры
 8004de6:	b530      	push	{r4, r5, lr}
F:\AT32-workspace\AT32F403ACGU7_clone_windows_desktop_virtual_com_port\Release/../Display/display_asm.S:135
		eors	r5, r5					//флаг - в режим копирования (инкремент адресов памяти включен)
 8004de8:	406d      	eors	r5, r5
F:\AT32-workspace\AT32F403ACGU7_clone_windows_desktop_virtual_com_port\Release/../Display/display_asm.S:137
.LCD_WriteData0:
		ldr		lr, [r0, #lcd_spi]		//получаем адрес spi из обработчика lcd
 8004dea:	f8d0 e024 	ldr.w	lr, [r0, #36]	; 0x24
F:\AT32-workspace\AT32F403ACGU7_clone_windows_desktop_virtual_com_port\Release/../Display/display_asm.S:139
.LCD_WriteData1:						//ожидание освобождения spi, если оно занято
		ldr 	r3, [lr, #0x00] 		//читаем регистр SPI_CTRL1
 8004dee:	f8de 3000 	ldr.w	r3, [lr]
F:\AT32-workspace\AT32F403ACGU7_clone_windows_desktop_virtual_com_port\Release/../Display/display_asm.S:140
		mov		r12, r3					//сохраняем SPI_CTRL1 в r12 для последующего использования
 8004df2:	469c      	mov	ip, r3
F:\AT32-workspace\AT32F403ACGU7_clone_windows_desktop_virtual_com_port\Release/../Display/display_asm.S:141
		ands	r3, r3, #64  			//проверяем состояние бита SPIEN рег. SPI_CTRL1 (6 бит), 64 определяет 6 бит
 8004df4:	f013 0340 	ands.w	r3, r3, #64	; 0x40
F:\AT32-workspace\AT32F403ACGU7_clone_windows_desktop_virtual_com_port\Release/../Display/display_asm.S:142
		bne		.LCD_WriteData1			//если бит установлен (не ноль), то продолжим ожидание
 8004df8:	d1f9      	bne.n	8004dee <LCD_WriteData+0x8>
F:\AT32-workspace\AT32F403ACGU7_clone_windows_desktop_virtual_com_port\Release/../Display/display_asm.S:143
		orr		r12, r12, #64			//установим 6 бит (SPIEN) - включение spi, 64 определяет 6 бит
 8004dfa:	f04c 0c40 	orr.w	ip, ip, #64	; 0x40
F:\AT32-workspace\AT32F403ACGU7_clone_windows_desktop_virtual_com_port\Release/../Display/display_asm.S:144
		str 	r12, [lr, #0x00]		//записываем в рег. SPI_CTRL1
 8004dfe:	f8ce c000 	str.w	ip, [lr]
F:\AT32-workspace\AT32F403ACGU7_clone_windows_desktop_virtual_com_port\Release/../Display/display_asm.S:145
		ldr		r3, [r0, #lcd_cs_port]	//получаем адрес порта вывода cs из обработчика lcd
 8004e02:	6c03      	ldr	r3, [r0, #64]	; 0x40
F:\AT32-workspace\AT32F403ACGU7_clone_windows_desktop_virtual_com_port\Release/../Display/display_asm.S:146
		cbz		r3, .LCD_WriteData2		//проверка: поддерживается ли cs (проверка адреса порта на ноль)?
 8004e04:	b11b      	cbz	r3, 8004e0e <LCD_WriteData+0x28>
F:\AT32-workspace\AT32F403ACGU7_clone_windows_desktop_virtual_com_port\Release/../Display/display_asm.S:147
		ldrh	r12, [r0, #lcd_cs_pin]	//получаем номер пина cs из обработчика lcd
 8004e06:	f8b0 c044 	ldrh.w	ip, [r0, #68]	; 0x44
F:\AT32-workspace\AT32F403ACGU7_clone_windows_desktop_virtual_com_port\Release/../Display/display_asm.S:148
		str		r12, [r3, #0x14] 		//запись в GPIOx_CLR регистр порта, cs low
 8004e0a:	f8c3 c014 	str.w	ip, [r3, #20]
F:\AT32-workspace\AT32F403ACGU7_clone_windows_desktop_virtual_com_port\Release/../Display/display_asm.S:150
.LCD_WriteData2:
		ldr 	r4, [r0, #lcd_dc_port]	//получаем адрес порта вывода dc из обработчика lcd
 8004e0e:	6b84      	ldr	r4, [r0, #56]	; 0x38
F:\AT32-workspace\AT32F403ACGU7_clone_windows_desktop_virtual_com_port\Release/../Display/display_asm.S:151
		ldrh	r0, [r0, #lcd_dc_pin]	//получаем номер пина dc из обработчика lcd
 8004e10:	8f80      	ldrh	r0, [r0, #60]	; 0x3c
F:\AT32-workspace\AT32F403ACGU7_clone_windows_desktop_virtual_com_port\Release/../Display/display_asm.S:152
		str		r0, [r4, #0x10]			//dc hi, запись в GPIOx_SCR регистр порта
 8004e12:	6120      	str	r0, [r4, #16]
F:\AT32-workspace\AT32F403ACGU7_clone_windows_desktop_virtual_com_port\Release/../Display/display_asm.S:154
.LCD_WriteData3:
		ldrh	r0, [r1, #0]			//берем полуслово по адресу в r1
 8004e14:	8808      	ldrh	r0, [r1, #0]
F:\AT32-workspace\AT32F403ACGU7_clone_windows_desktop_virtual_com_port\Release/../Display/display_asm.S:155
		str		r0, [lr, #0x0c]			//и помещаем его в рег. SPI_DT
 8004e16:	f8ce 000c 	str.w	r0, [lr, #12]
F:\AT32-workspace\AT32F403ACGU7_clone_windows_desktop_virtual_com_port\Release/../Display/display_asm.S:156
		orrs	r5, r5					//проверка флага копирование/заливка на ноль
 8004e1a:	432d      	orrs	r5, r5
F:\AT32-workspace\AT32F403ACGU7_clone_windows_desktop_virtual_com_port\Release/../Display/display_asm.S:157
		cbnz	r5, .LCD_WriteData4		//если не ноль, то пропускаем инкремент адреса в r1
 8004e1c:	b905      	cbnz	r5, 8004e20 <LCD_WriteData+0x3a>
F:\AT32-workspace\AT32F403ACGU7_clone_windows_desktop_virtual_com_port\Release/../Display/display_asm.S:158
		adds	r1, #2					//если 0 (режим копирования), то увеличиваем адрес в r1 на 2 (копирование полуслов)
 8004e1e:	3102      	adds	r1, #2
F:\AT32-workspace\AT32F403ACGU7_clone_windows_desktop_virtual_com_port\Release/../Display/display_asm.S:160
.LCD_WriteData4:
		ldr 	r0, [lr, #0x08]			//ждем флаг TDBE (1 бит)
 8004e20:	f8de 0008 	ldr.w	r0, [lr, #8]
F:\AT32-workspace\AT32F403ACGU7_clone_windows_desktop_virtual_com_port\Release/../Display/display_asm.S:161
		ands	r0, r0, #2				//2 определяет 1 бит
 8004e24:	f010 0002 	ands.w	r0, r0, #2
F:\AT32-workspace\AT32F403ACGU7_clone_windows_desktop_virtual_com_port\Release/../Display/display_asm.S:162
		beq		.LCD_WriteData4			//если ноль
 8004e28:	d0fa      	beq.n	8004e20 <LCD_WriteData+0x3a>
F:\AT32-workspace\AT32F403ACGU7_clone_windows_desktop_virtual_com_port\Release/../Display/display_asm.S:163
		subs	r2, #1					//уменьшаем счетчик
 8004e2a:	3a01      	subs	r2, #1
F:\AT32-workspace\AT32F403ACGU7_clone_windows_desktop_virtual_com_port\Release/../Display/display_asm.S:164
		bne		.LCD_WriteData3			//в счетчике не ноль
 8004e2c:	d1f2      	bne.n	8004e14 <LCD_WriteData+0x2e>
F:\AT32-workspace\AT32F403ACGU7_clone_windows_desktop_virtual_com_port\Release/../Display/display_asm.S:166
.LCD_WriteData5:
		ldr 	r0, [lr, #0x08]			//ждем флаг BF (бит 7)
 8004e2e:	f8de 0008 	ldr.w	r0, [lr, #8]
F:\AT32-workspace\AT32F403ACGU7_clone_windows_desktop_virtual_com_port\Release/../Display/display_asm.S:167
		ands	r0, r0, #128			//128 определяет 7 бит
 8004e32:	f010 0080 	ands.w	r0, r0, #128	; 0x80
F:\AT32-workspace\AT32F403ACGU7_clone_windows_desktop_virtual_com_port\Release/../Display/display_asm.S:168
		bne		.LCD_WriteData5   		//если не ноль, то продолжим ожидание
 8004e36:	d1fa      	bne.n	8004e2e <LCD_WriteData+0x48>
F:\AT32-workspace\AT32F403ACGU7_clone_windows_desktop_virtual_com_port\Release/../Display/display_asm.S:169
		cbz		r3, .LCD_WriteData6		//проверка: поддерживается ли cs?
 8004e38:	b10b      	cbz	r3, 8004e3e <LCD_WriteData+0x58>
F:\AT32-workspace\AT32F403ACGU7_clone_windows_desktop_virtual_com_port\Release/../Display/display_asm.S:170
		str		r12, [r3, #0x10]		//cs hi, запись в GPIOx_SCR регистр порта
 8004e3a:	f8c3 c010 	str.w	ip, [r3, #16]
F:\AT32-workspace\AT32F403ACGU7_clone_windows_desktop_virtual_com_port\Release/../Display/display_asm.S:172
.LCD_WriteData6:
		ldr 	r0, [lr, #0x00]			//читаем рег. SPI_CTRL1
 8004e3e:	f8de 0000 	ldr.w	r0, [lr]
F:\AT32-workspace\AT32F403ACGU7_clone_windows_desktop_virtual_com_port\Release/../Display/display_asm.S:173
		bic		r0, r0, #64				//сбросим 6 бит (SPIEN), 64 определяет 6 бит
 8004e42:	f020 0040 	bic.w	r0, r0, #64	; 0x40
F:\AT32-workspace\AT32F403ACGU7_clone_windows_desktop_virtual_com_port\Release/../Display/display_asm.S:174
		str 	r0, [lr, #0x00]			//записываем рег. SPI_CTRL1
 8004e46:	f8ce 0000 	str.w	r0, [lr]
F:\AT32-workspace\AT32F403ACGU7_clone_windows_desktop_virtual_com_port\Release/../Display/display_asm.S:175
		pop 	{r4, r5, pc}			//восстанавливаем регистры, адрес возврата из подпрограммы помещается в pc
 8004e4a:	bd30      	pop	{r4, r5, pc}

08004e4c <LCD_WriteDataDMA>:
LCD_WriteDataDMA():
F:\AT32-workspace\AT32F403ACGU7_clone_windows_desktop_virtual_com_port\Release/../Display/display_asm.S:185
		.section  .text.LCD_WriteDataDMA
		.weak  LCD_WriteDataDMA
		.type  LCD_WriteDataDMA, %function
LCD_WriteDataDMA:
		//r0 = lcd, r1 = data, r2 = len
		ldr		r12, [r0, #lcd_dma_ctrl]//dma из обработчика lcd
 8004e4c:	f8d0 c028 	ldr.w	ip, [r0, #40]	; 0x28
F:\AT32-workspace\AT32F403ACGU7_clone_windows_desktop_virtual_com_port\Release/../Display/display_asm.S:186
		orrs	r12, r12				//проверка: dma == 0 ?
 8004e50:	ea5c 0c0c 	orrs.w	ip, ip, ip
F:\AT32-workspace\AT32F403ACGU7_clone_windows_desktop_virtual_com_port\Release/../Display/display_asm.S:187
		beq		LCD_WriteData			//если dma == 0, то переходим к процедуре передачи без DMA
 8004e54:	f43f afc7 	beq.w	8004de6 <LCD_WriteData>
F:\AT32-workspace\AT32F403ACGU7_clone_windows_desktop_virtual_com_port\Release/../Display/display_asm.S:188
		push 	{r4, r5, lr}			//сохраняем регистры
 8004e58:	b530      	push	{r4, r5, lr}
F:\AT32-workspace\AT32F403ACGU7_clone_windows_desktop_virtual_com_port\Release/../Display/display_asm.S:189
		eors	r5, r5					//флаг - в режим копирования (инкремент адресов памяти включен)
 8004e5a:	406d      	eors	r5, r5
F:\AT32-workspace\AT32F403ACGU7_clone_windows_desktop_virtual_com_port\Release/../Display/display_asm.S:191
.LCD_WriteDataDMA0:
		ldr		lr, [r0, #lcd_spi]		//spi из обработчика lcd
 8004e5c:	f8d0 e024 	ldr.w	lr, [r0, #36]	; 0x24
F:\AT32-workspace\AT32F403ACGU7_clone_windows_desktop_virtual_com_port\Release/../Display/display_asm.S:193
.LCD_WriteDataDMA1:						//ожидание освобождения spi, если оно занято
		ldr 	r3, [lr, #0x00] 		//читаем регистр SPI_CTRL1
 8004e60:	f8de 3000 	ldr.w	r3, [lr]
F:\AT32-workspace\AT32F403ACGU7_clone_windows_desktop_virtual_com_port\Release/../Display/display_asm.S:194
		movs	r4, r3					//сохраняем SPI_CTRL1 в r4 для последующего использования
 8004e64:	001c      	movs	r4, r3
F:\AT32-workspace\AT32F403ACGU7_clone_windows_desktop_virtual_com_port\Release/../Display/display_asm.S:195
		ands	r3, r3, #64  			//проверяем состояние бита SPIEN рег. SPI_CTRL1
 8004e66:	f013 0340 	ands.w	r3, r3, #64	; 0x40
F:\AT32-workspace\AT32F403ACGU7_clone_windows_desktop_virtual_com_port\Release/../Display/display_asm.S:196
		bne		.LCD_WriteData1			//если бит установлен (не ноль), то продолжим ожидание
 8004e6a:	f47f afc0 	bne.w	8004dee <LCD_WriteData+0x8>
F:\AT32-workspace\AT32F403ACGU7_clone_windows_desktop_virtual_com_port\Release/../Display/display_asm.S:197
		orr		r4, r4, #64				//установим 6 бит (SPIEN) - включение spi
 8004e6e:	f044 0440 	orr.w	r4, r4, #64	; 0x40
F:\AT32-workspace\AT32F403ACGU7_clone_windows_desktop_virtual_com_port\Release/../Display/display_asm.S:198
		str 	r4, [lr, #0x00]			//записываем в рег. SPI_CTRL1
 8004e72:	f8ce 4000 	str.w	r4, [lr]
F:\AT32-workspace\AT32F403ACGU7_clone_windows_desktop_virtual_com_port\Release/../Display/display_asm.S:199
		ldr		r4, [lr, #0x04]			//читаем рег. SPI_CTRL2
 8004e76:	f8de 4004 	ldr.w	r4, [lr, #4]
F:\AT32-workspace\AT32F403ACGU7_clone_windows_desktop_virtual_com_port\Release/../Display/display_asm.S:200
		orr		r4, r4, #2				//установим 1 бит (DMATEN) SPI_CTRL2
 8004e7a:	f044 0402 	orr.w	r4, r4, #2
F:\AT32-workspace\AT32F403ACGU7_clone_windows_desktop_virtual_com_port\Release/../Display/display_asm.S:201
		str 	r4, [lr, #0x04]			//записываем в рег. SPI_CTRL2
 8004e7e:	f8ce 4004 	str.w	r4, [lr, #4]
F:\AT32-workspace\AT32F403ACGU7_clone_windows_desktop_virtual_com_port\Release/../Display/display_asm.S:202
		ldr		r3, [r0, #lcd_cs_port]	//порт cs из обработчика lcd
 8004e82:	6c03      	ldr	r3, [r0, #64]	; 0x40
F:\AT32-workspace\AT32F403ACGU7_clone_windows_desktop_virtual_com_port\Release/../Display/display_asm.S:203
		cbz		r3, .LCD_WriteDataDMA2	//проверка: поддерживается ли cs?
 8004e84:	b113      	cbz	r3, 8004e8c <LCD_WriteDataDMA+0x40>
F:\AT32-workspace\AT32F403ACGU7_clone_windows_desktop_virtual_com_port\Release/../Display/display_asm.S:204
		ldrh	r4, [r0, #lcd_cs_pin]	//пин cs из обработчика lcd
 8004e86:	f8b0 4044 	ldrh.w	r4, [r0, #68]	; 0x44
F:\AT32-workspace\AT32F403ACGU7_clone_windows_desktop_virtual_com_port\Release/../Display/display_asm.S:205
		str		r4, [r3, #0x14] 		//cs low, запись в GPIOx_CLR регистр порта
 8004e8a:	615c      	str	r4, [r3, #20]
F:\AT32-workspace\AT32F403ACGU7_clone_windows_desktop_virtual_com_port\Release/../Display/display_asm.S:207
.LCD_WriteDataDMA2:
		ldr 	r3, [r0, #lcd_dc_port]	//порт dc из обработчика lcd
 8004e8c:	6b83      	ldr	r3, [r0, #56]	; 0x38
F:\AT32-workspace\AT32F403ACGU7_clone_windows_desktop_virtual_com_port\Release/../Display/display_asm.S:208
		ldrh	r4, [r0, #lcd_dc_pin]	//пин dc из обработчика lcd
 8004e8e:	8f84      	ldrh	r4, [r0, #60]	; 0x3c
F:\AT32-workspace\AT32F403ACGU7_clone_windows_desktop_virtual_com_port\Release/../Display/display_asm.S:209
		str		r4, [r3, #0x10]			//dc hi, запись в рег. GPIOx_SCR
 8004e90:	611c      	str	r4, [r3, #16]
F:\AT32-workspace\AT32F403ACGU7_clone_windows_desktop_virtual_com_port\Release/../Display/display_asm.S:210
		add		r4, r0, #lcd_sz_mem		//в r4 адрес переменной lcd->size_mem
 8004e92:	f100 0460 	add.w	r4, r0, #96	; 0x60
F:\AT32-workspace\AT32F403ACGU7_clone_windows_desktop_virtual_com_port\Release/../Display/display_asm.S:211
		ldr		r0, [r0, #lcd_dma_strm]	//номер потока (stream) DMA из обработчика lcd
 8004e96:	6ac0      	ldr	r0, [r0, #44]	; 0x2c
F:\AT32-workspace\AT32F403ACGU7_clone_windows_desktop_virtual_com_port\Release/../Display/display_asm.S:212
		subs	r0, r0, #1				//stream--
 8004e98:	3801      	subs	r0, #1
F:\AT32-workspace\AT32F403ACGU7_clone_windows_desktop_virtual_com_port\Release/../Display/display_asm.S:213
		movs 	r3, #20					//множитель для формулы: адрес потока = адрес DMA + 20 * (номер потока - 1) + 8
 8004e9a:	2314      	movs	r3, #20
F:\AT32-workspace\AT32F403ACGU7_clone_windows_desktop_virtual_com_port\Release/../Display/display_asm.S:214
		mla		r12, r0, r3, r12		//r12 = r12 + r0 * r3
 8004e9c:	fb00 cc03 	mla	ip, r0, r3, ip
F:\AT32-workspace\AT32F403ACGU7_clone_windows_desktop_virtual_com_port\Release/../Display/display_asm.S:215
		add		r0, r12, #8				//r0 = r12 + 8, в r0 - адрес потока DMA
 8004ea0:	f10c 0008 	add.w	r0, ip, #8
F:\AT32-workspace\AT32F403ACGU7_clone_windows_desktop_virtual_com_port\Release/../Display/display_asm.S:216
		movw	r3, #0xffff				//в r3 запиcать 0xffff
 8004ea4:	f64f 73ff 	movw	r3, #65535	; 0xffff
F:\AT32-workspace\AT32F403ACGU7_clone_windows_desktop_virtual_com_port\Release/../Display/display_asm.S:217
		cmp		r2, r3					//r2 > 65535 ?
 8004ea8:	429a      	cmp	r2, r3
F:\AT32-workspace\AT32F403ACGU7_clone_windows_desktop_virtual_com_port\Release/../Display/display_asm.S:218
		itee	gt						//выполнение IT-блока из 3-х команд:
 8004eaa:	bfce      	itee	gt
F:\AT32-workspace\AT32F403ACGU7_clone_windows_desktop_virtual_com_port\Release/../Display/display_asm.S:219
		subgt	r2, r2, r3				//останется передать len = len - 65535, для текущей передачи 65535
 8004eac:	1ad2      	subgt	r2, r2, r3
F:\AT32-workspace\AT32F403ACGU7_clone_windows_desktop_virtual_com_port\Release/../Display/display_asm.S:220
		movle	r3, r2					//для текущей передачи len
 8004eae:	4613      	movle	r3, r2
F:\AT32-workspace\AT32F403ACGU7_clone_windows_desktop_virtual_com_port\Release/../Display/display_asm.S:221
		movle	r2, #0x00				//останется передать 0
 8004eb0:	2200      	movle	r2, #0
F:\AT32-workspace\AT32F403ACGU7_clone_windows_desktop_virtual_com_port\Release/../Display/display_asm.S:222
		str		r2, [r4]				//запись в переменную обработчика lcd->size_mem сколько данных останется передать
 8004eb2:	6022      	str	r2, [r4, #0]
F:\AT32-workspace\AT32F403ACGU7_clone_windows_desktop_virtual_com_port\Release/../Display/display_asm.S:223
		str		r3, [r0, #4]			//запись в регистр DTCNT DMA количества данных для текущей передачи
 8004eb4:	6043      	str	r3, [r0, #4]
F:\AT32-workspace\AT32F403ACGU7_clone_windows_desktop_virtual_com_port\Release/../Display/display_asm.S:224
		add		lr, lr, #0x0c			//адрес регистра DT spi, 0x0c смещение относительно базового адреса spi, определяющее DT
 8004eb6:	f10e 0e0c 	add.w	lr, lr, #12
F:\AT32-workspace\AT32F403ACGU7_clone_windows_desktop_virtual_com_port\Release/../Display/display_asm.S:225
		str		lr, [r0, #8]			//запись в рег. PADDR DMA адреса регистра DT spi (spi->DT)
 8004eba:	f8c0 e008 	str.w	lr, [r0, #8]
F:\AT32-workspace\AT32F403ACGU7_clone_windows_desktop_virtual_com_port\Release/../Display/display_asm.S:226
		str		r1, [r0, #12]			//запись в рег. MADDR DMA адреса блока данных для передачи (data)
 8004ebe:	60c1      	str	r1, [r0, #12]
F:\AT32-workspace\AT32F403ACGU7_clone_windows_desktop_virtual_com_port\Release/../Display/display_asm.S:227
		ldr		r1, [r0, #0]			//чтение рег. CCTRL канала DMA
 8004ec0:	6801      	ldr	r1, [r0, #0]
F:\AT32-workspace\AT32F403ACGU7_clone_windows_desktop_virtual_com_port\Release/../Display/display_asm.S:228
		orrs	r5, r5					//флаг копирование/заливка
 8004ec2:	432d      	orrs	r5, r5
F:\AT32-workspace\AT32F403ACGU7_clone_windows_desktop_virtual_com_port\Release/../Display/display_asm.S:229
		ite		eq						//IT-блок по типу if ноль then else
 8004ec4:	bf0c      	ite	eq
F:\AT32-workspace\AT32F403ACGU7_clone_windows_desktop_virtual_com_port\Release/../Display/display_asm.S:230
		orreq	r1, r1, #128			//установка 7 (MINCM) бита - режим копирования блока данных на дисплей (флаг в r5 = 0)
 8004ec6:	f041 0180 	orreq.w	r1, r1, #128	; 0x80
F:\AT32-workspace\AT32F403ACGU7_clone_windows_desktop_virtual_com_port\Release/../Display/display_asm.S:231
		bicne	r1, r1, #128			//сброс 7 (MINCM) бита - режим заливки одним цветом (флаг r5 != 0)
 8004eca:	f021 0180 	bicne.w	r1, r1, #128	; 0x80
F:\AT32-workspace\AT32F403ACGU7_clone_windows_desktop_virtual_com_port\Release/../Display/display_asm.S:232
		orr		r1, r1, #1				//установка 0 (CHEN) бита - включение/разрешение DMA канала
 8004ece:	f041 0101 	orr.w	r1, r1, #1
F:\AT32-workspace\AT32F403ACGU7_clone_windows_desktop_virtual_com_port\Release/../Display/display_asm.S:233
		bic		r1, r1, #64				//сброс 6 (PINC) бита - инкремент адреса периферии отключен
 8004ed2:	f021 0140 	bic.w	r1, r1, #64	; 0x40
F:\AT32-workspace\AT32F403ACGU7_clone_windows_desktop_virtual_com_port\Release/../Display/display_asm.S:234
		str		r1, [r0, #0]			//запись параметра в рег. CCTRL канала DMA
 8004ed6:	6001      	str	r1, [r0, #0]
F:\AT32-workspace\AT32F403ACGU7_clone_windows_desktop_virtual_com_port\Release/../Display/display_asm.S:235
		pop 	{r4, r5, pc}			//восстанавливаем регистры, адрес возврата из подпрограммы помещается в pc
 8004ed8:	bd30      	pop	{r4, r5, pc}

08004eda <LCD_FillWindow>:
LCD_FillWindow():
F:\AT32-workspace\AT32F403ACGU7_clone_windows_desktop_virtual_com_port\Release/../Display/display_asm.S:244
		.section  .text.LCD_FillWindow
		.weak  LCD_FillWindow
		.type  LCD_FillWindow, %function
LCD_FillWindow:
		//r0 = lcd, r1 = x1, r2 = y1, r3 = x2, [sp + 0] = y2, [sp + 4] = color
		push	{r4, r5, lr}			//сохраняем регистры, sp = sp - 12
 8004eda:	b530      	push	{r4, r5, lr}
F:\AT32-workspace\AT32F403ACGU7_clone_windows_desktop_virtual_com_port\Release/../Display/display_asm.S:245
		cmp		r1, r3					//x1 > x2 ? Сортировка по возрастанию
 8004edc:	4299      	cmp	r1, r3
F:\AT32-workspace\AT32F403ACGU7_clone_windows_desktop_virtual_com_port\Release/../Display/display_asm.S:246
		ittt	gt						//IT - блок
 8004ede:	bfc2      	ittt	gt
F:\AT32-workspace\AT32F403ACGU7_clone_windows_desktop_virtual_com_port\Release/../Display/display_asm.S:247
		movgt	lr, r1					//lr = r1, lr = x1
 8004ee0:	468e      	movgt	lr, r1
F:\AT32-workspace\AT32F403ACGU7_clone_windows_desktop_virtual_com_port\Release/../Display/display_asm.S:248
		movgt	r1, r3					//r1 = r3, x1 = x2
 8004ee2:	4619      	movgt	r1, r3
F:\AT32-workspace\AT32F403ACGU7_clone_windows_desktop_virtual_com_port\Release/../Display/display_asm.S:249
		movgt	r3, lr					//r3 = lr, x2 = lr
 8004ee4:	4673      	movgt	r3, lr
F:\AT32-workspace\AT32F403ACGU7_clone_windows_desktop_virtual_com_port\Release/../Display/display_asm.S:250
		ldrh	r4, [sp, #12]			//получаем из стека параметр y2
 8004ee6:	f8bd 400c 	ldrh.w	r4, [sp, #12]
F:\AT32-workspace\AT32F403ACGU7_clone_windows_desktop_virtual_com_port\Release/../Display/display_asm.S:251
		cmp		r2, r4					//y1 > y2 ?  Сортировка по возрастанию
 8004eea:	42a2      	cmp	r2, r4
F:\AT32-workspace\AT32F403ACGU7_clone_windows_desktop_virtual_com_port\Release/../Display/display_asm.S:252
		ittt	gt						//IT - блок
 8004eec:	bfc2      	ittt	gt
F:\AT32-workspace\AT32F403ACGU7_clone_windows_desktop_virtual_com_port\Release/../Display/display_asm.S:253
		movgt	lr, r2					//lr = r2, lr = y1
 8004eee:	4696      	movgt	lr, r2
F:\AT32-workspace\AT32F403ACGU7_clone_windows_desktop_virtual_com_port\Release/../Display/display_asm.S:254
		movgt	r2, r4					//r2 = r4, y1 = y2
 8004ef0:	4622      	movgt	r2, r4
F:\AT32-workspace\AT32F403ACGU7_clone_windows_desktop_virtual_com_port\Release/../Display/display_asm.S:255
		movgt	r4, lr					//r4 = lr, y2 = lr
 8004ef2:	4674      	movgt	r4, lr
F:\AT32-workspace\AT32F403ACGU7_clone_windows_desktop_virtual_com_port\Release/../Display/display_asm.S:256
		ldrh	lr, [r0, #lcd_width]	//lcd->Width
 8004ef4:	f8b0 e004 	ldrh.w	lr, [r0, #4]
F:\AT32-workspace\AT32F403ACGU7_clone_windows_desktop_virtual_com_port\Release/../Display/display_asm.S:257
		sub		lr, lr, #1				//lcd->Width - 1
 8004ef8:	f1ae 0e01 	sub.w	lr, lr, #1
F:\AT32-workspace\AT32F403ACGU7_clone_windows_desktop_virtual_com_port\Release/../Display/display_asm.S:258
		cmp		r1, lr					//x1 > lcd->Width - 1 ?
 8004efc:	4571      	cmp	r1, lr
F:\AT32-workspace\AT32F403ACGU7_clone_windows_desktop_virtual_com_port\Release/../Display/display_asm.S:259
		bgt		.LCD_FillWindow_exit	//выход, если x1 выходит за границы дисплея
 8004efe:	dc31      	bgt.n	8004f64 <LCD_FillWindow+0x8a>
F:\AT32-workspace\AT32F403ACGU7_clone_windows_desktop_virtual_com_port\Release/../Display/display_asm.S:260
		ldrh	r12, [r0, #lcd_height]	//lcd->Height
 8004f00:	f8b0 c006 	ldrh.w	ip, [r0, #6]
F:\AT32-workspace\AT32F403ACGU7_clone_windows_desktop_virtual_com_port\Release/../Display/display_asm.S:261
		sub		r12, r12, #1			//lcd->Height - 1
 8004f04:	f1ac 0c01 	sub.w	ip, ip, #1
F:\AT32-workspace\AT32F403ACGU7_clone_windows_desktop_virtual_com_port\Release/../Display/display_asm.S:262
		cmp		r2, r12					//y1 > lcd->Height - 1
 8004f08:	4562      	cmp	r2, ip
F:\AT32-workspace\AT32F403ACGU7_clone_windows_desktop_virtual_com_port\Release/../Display/display_asm.S:263
		bgt		.LCD_FillWindow_exit	//выход, если y1 выходит за границы дисплея
 8004f0a:	dc2b      	bgt.n	8004f64 <LCD_FillWindow+0x8a>
F:\AT32-workspace\AT32F403ACGU7_clone_windows_desktop_virtual_com_port\Release/../Display/display_asm.S:264
		cmp		r3, lr					//x2 > lcd->Width - 1
 8004f0c:	4573      	cmp	r3, lr
F:\AT32-workspace\AT32F403ACGU7_clone_windows_desktop_virtual_com_port\Release/../Display/display_asm.S:265
		it		gt						//"обрезаем" x2, если он выходит за границы дисплея
 8004f0e:	bfc8      	it	gt
F:\AT32-workspace\AT32F403ACGU7_clone_windows_desktop_virtual_com_port\Release/../Display/display_asm.S:266
		movgt	r3, lr					//x2 = lcd->Width - 1
 8004f10:	4673      	movgt	r3, lr
F:\AT32-workspace\AT32F403ACGU7_clone_windows_desktop_virtual_com_port\Release/../Display/display_asm.S:267
		cmp		r4, r12					//y2 > lcd->Height - 1
 8004f12:	4564      	cmp	r4, ip
F:\AT32-workspace\AT32F403ACGU7_clone_windows_desktop_virtual_com_port\Release/../Display/display_asm.S:268
		it		gt						//"обрезаем" y2, если он выходит за границы дисплея
 8004f14:	bfc8      	it	gt
F:\AT32-workspace\AT32F403ACGU7_clone_windows_desktop_virtual_com_port\Release/../Display/display_asm.S:269
		movgt	r4, r12					//y2 = lcd->Height - 1
 8004f16:	4664      	movgt	r4, ip
F:\AT32-workspace\AT32F403ACGU7_clone_windows_desktop_virtual_com_port\Release/../Display/display_asm.S:270
		sub		sp, #8					//sp = sp - 8 (cоглашение о передаче параметров через стек)
 8004f18:	b082      	sub	sp, #8
F:\AT32-workspace\AT32F403ACGU7_clone_windows_desktop_virtual_com_port\Release/../Display/display_asm.S:271
		str		r4, [sp, #0]			//помещаем y2 на вершину стека
 8004f1a:	9400      	str	r4, [sp, #0]
F:\AT32-workspace\AT32F403ACGU7_clone_windows_desktop_virtual_com_port\Release/../Display/display_asm.S:273
		//--------------  Расчет len = (x2 - x1 + 1) * (y2 - y1 + 1) ---------------------------
		subs	r5, r3, r1				//r5 = x2 - x1
 8004f1c:	1a5d      	subs	r5, r3, r1
F:\AT32-workspace\AT32F403ACGU7_clone_windows_desktop_virtual_com_port\Release/../Display/display_asm.S:274
		add 	r5, #1					//r5 = r5 + 1
 8004f1e:	f105 0501 	add.w	r5, r5, #1
F:\AT32-workspace\AT32F403ACGU7_clone_windows_desktop_virtual_com_port\Release/../Display/display_asm.S:275
		subs	r4, r4, r2				//r4 = y2 - y1
 8004f22:	1aa4      	subs	r4, r4, r2
F:\AT32-workspace\AT32F403ACGU7_clone_windows_desktop_virtual_com_port\Release/../Display/display_asm.S:276
		mla		r5, r5, r4, r5			//r5 = r5 * r4 + r5 - сэкономили на 1 команде add r4, #1
 8004f24:	fb05 5504 	mla	r5, r5, r4, r5
F:\AT32-workspace\AT32F403ACGU7_clone_windows_desktop_virtual_com_port\Release/../Display/display_asm.S:278
		//--------------------------------------------------------------------------------------
		movs	r4, r0					//сохраняем r0 в r4 (чтобы не потерять адрес lcd)
 8004f28:	0004      	movs	r4, r0
F:\AT32-workspace\AT32F403ACGU7_clone_windows_desktop_virtual_com_port\Release/../Display/display_asm.S:279
		bl		LCD_SetActiveWindow 	//установка окна вывода: передаем r0(lcd), r1(x1), r2(y1), r3(x2), [sp+0](y2)
 8004f2a:	f7ff fefd 	bl	8004d28 <LCD_SetActiveWindow>
F:\AT32-workspace\AT32F403ACGU7_clone_windows_desktop_virtual_com_port\Release/../Display/display_asm.S:280
		add		sp, #8					//восстанавливаем указатель стека
 8004f2e:	b002      	add	sp, #8
F:\AT32-workspace\AT32F403ACGU7_clone_windows_desktop_virtual_com_port\Release/../Display/display_asm.S:281
		ldr		r0, [sp, #16]			//получаем из стека параметр color (R8G8B8)
 8004f30:	9804      	ldr	r0, [sp, #16]
F:\AT32-workspace\AT32F403ACGU7_clone_windows_desktop_virtual_com_port\Release/../Display/display_asm.S:283
		//------------- преобразование цвета R8G8B8 в R5G6B5 --------------------------------------------------
		ubfx	r1, r0, #3, #5			//копируем в r1 5 бит составляющей b начиная с 3 бита
 8004f32:	f3c0 01c4 	ubfx	r1, r0, #3, #5
F:\AT32-workspace\AT32F403ACGU7_clone_windows_desktop_virtual_com_port\Release/../Display/display_asm.S:284
		ubfx	r2, r0, #10, #6			//копируем в r2 6 бит составляющей g начиная с 10 бита
 8004f36:	f3c0 2285 	ubfx	r2, r0, #10, #6
F:\AT32-workspace\AT32F403ACGU7_clone_windows_desktop_virtual_com_port\Release/../Display/display_asm.S:285
		orr		r1, r1, r2, lsl #5		//объединяем r1 с r2, смещенной на 5 бит влево
 8004f3a:	ea41 1142 	orr.w	r1, r1, r2, lsl #5
F:\AT32-workspace\AT32F403ACGU7_clone_windows_desktop_virtual_com_port\Release/../Display/display_asm.S:286
		ubfx	r2, r0, #19, #5			//копируем в r2 5 бит составляющей r начиная с 19 бита
 8004f3e:	f3c0 42c4 	ubfx	r2, r0, #19, #5
F:\AT32-workspace\AT32F403ACGU7_clone_windows_desktop_virtual_com_port\Release/../Display/display_asm.S:287
		orr		r1, r1, r2, lsl #11 	//объединяем r1 с r2, смещенной на 11 бит влево
 8004f42:	ea41 21c2 	orr.w	r1, r1, r2, lsl #11
F:\AT32-workspace\AT32F403ACGU7_clone_windows_desktop_virtual_com_port\Release/../Display/display_asm.S:289
		//------------------------------------------------------------------------------------------------------
		strh	r1, [r4, #lcd_fill_clr]	//записываем цвет в переменную lcd->fill_color (адрес переменной lcd + #104)
 8004f46:	f8a4 1068 	strh.w	r1, [r4, #104]	; 0x68
F:\AT32-workspace\AT32F403ACGU7_clone_windows_desktop_virtual_com_port\Release/../Display/display_asm.S:290
		movs	r0, r4					//r0 = lcd
 8004f4a:	0020      	movs	r0, r4
F:\AT32-workspace\AT32F403ACGU7_clone_windows_desktop_virtual_com_port\Release/../Display/display_asm.S:291
		add		r1,	r0, #lcd_fill_clr	//r1 = &lcd->fill_color
 8004f4c:	f100 0168 	add.w	r1, r0, #104	; 0x68
F:\AT32-workspace\AT32F403ACGU7_clone_windows_desktop_virtual_com_port\Release/../Display/display_asm.S:292
		movs	r2, r5					//r2 = len
 8004f50:	002a      	movs	r2, r5
F:\AT32-workspace\AT32F403ACGU7_clone_windows_desktop_virtual_com_port\Release/../Display/display_asm.S:293
		movs	r5, #1					//флаг для LCD_WriteDataDMA/LCD_WriteData
 8004f52:	2501      	movs	r5, #1
F:\AT32-workspace\AT32F403ACGU7_clone_windows_desktop_virtual_com_port\Release/../Display/display_asm.S:294
		ldr		r12, [r0, #lcd_dma_ctrl]//dma из обработчика lcd
 8004f54:	f8d0 c028 	ldr.w	ip, [r0, #40]	; 0x28
F:\AT32-workspace\AT32F403ACGU7_clone_windows_desktop_virtual_com_port\Release/../Display/display_asm.S:295
		orrs	r12, r12            	//проверка на 0 в r12 (в r12 ноль, если DMA не поддерживается)
 8004f58:	ea5c 0c0c 	orrs.w	ip, ip, ip
F:\AT32-workspace\AT32F403ACGU7_clone_windows_desktop_virtual_com_port\Release/../Display/display_asm.S:296
		beq		.LCD_WriteData0			//точка входа в процедуру LCD_WriteData (с флагом 1 в r5)
 8004f5c:	f43f af45 	beq.w	8004dea <LCD_WriteData+0x4>
F:\AT32-workspace\AT32F403ACGU7_clone_windows_desktop_virtual_com_port\Release/../Display/display_asm.S:297
		b		.LCD_WriteDataDMA0  	//точка входа в процедуру LCD_WriteDataDMA (с флагом 1 в r5)
 8004f60:	f7ff bf7c 	b.w	8004e5c <LCD_WriteDataDMA+0x10>
F:\AT32-workspace\AT32F403ACGU7_clone_windows_desktop_virtual_com_port\Release/../Display/display_asm.S:299
.LCD_FillWindow_exit:
		pop		{r4, r5, pc}			//восстанавливаем регистры, адрес возврата из подпрограммы помещается в pc
 8004f64:	bd30      	pop	{r4, r5, pc}

08004f66 <LCD_DrawImage>:
LCD_DrawImage():
F:\AT32-workspace\AT32F403ACGU7_clone_windows_desktop_virtual_com_port\Release/../Display/display_asm.S:308
		.section  .text.LCD_DrawImage
		.weak  LCD_DrawImage
		.type  LCD_DrawImage, %function
LCD_DrawImage:
		//r0 = lcd, r1 = x, r2 = y, r3 = w, [sp + 0] = h, [sp + 4] = data, [sp + 8] = dma_use_flag
		push	{r4, r5, lr}			//сохраняем регистры
 8004f66:	b530      	push	{r4, r5, lr}
F:\AT32-workspace\AT32F403ACGU7_clone_windows_desktop_virtual_com_port\Release/../Display/display_asm.S:309
		ldrh	lr, [r0, #lcd_width]	//lr = lcd->Width
 8004f68:	f8b0 e004 	ldrh.w	lr, [r0, #4]
F:\AT32-workspace\AT32F403ACGU7_clone_windows_desktop_virtual_com_port\Release/../Display/display_asm.S:310
		cmp		r1, lr					//x >= lcd->Width ?
 8004f6c:	4571      	cmp	r1, lr
F:\AT32-workspace\AT32F403ACGU7_clone_windows_desktop_virtual_com_port\Release/../Display/display_asm.S:311
		bcs		.LCD_DrawImage_exit 	//x за границами диапазона - выходим
 8004f6e:	d221      	bcs.n	8004fb4 <LCD_DrawImage+0x4e>
F:\AT32-workspace\AT32F403ACGU7_clone_windows_desktop_virtual_com_port\Release/../Display/display_asm.S:312
		add		r12, r1, r3				//r12 = x + w
 8004f70:	eb01 0c03 	add.w	ip, r1, r3
F:\AT32-workspace\AT32F403ACGU7_clone_windows_desktop_virtual_com_port\Release/../Display/display_asm.S:313
		cmp		r12, lr					//x + w > lcd->Width ?
 8004f74:	45f4      	cmp	ip, lr
F:\AT32-workspace\AT32F403ACGU7_clone_windows_desktop_virtual_com_port\Release/../Display/display_asm.S:314
		bhi		.LCD_DrawImage_exit 	//x за границами диапазона - выходим
 8004f76:	d81d      	bhi.n	8004fb4 <LCD_DrawImage+0x4e>
F:\AT32-workspace\AT32F403ACGU7_clone_windows_desktop_virtual_com_port\Release/../Display/display_asm.S:315
		ldrh	lr, [r0, #lcd_height]	//lr = lcd->Height
 8004f78:	f8b0 e006 	ldrh.w	lr, [r0, #6]
F:\AT32-workspace\AT32F403ACGU7_clone_windows_desktop_virtual_com_port\Release/../Display/display_asm.S:316
		cmp		r2, lr					//y >= lcd->Height ?
 8004f7c:	4572      	cmp	r2, lr
F:\AT32-workspace\AT32F403ACGU7_clone_windows_desktop_virtual_com_port\Release/../Display/display_asm.S:317
		bcs		.LCD_DrawImage_exit		//y за границами диапазона - выходим
 8004f7e:	d219      	bcs.n	8004fb4 <LCD_DrawImage+0x4e>
F:\AT32-workspace\AT32F403ACGU7_clone_windows_desktop_virtual_com_port\Release/../Display/display_asm.S:318
		ldr		r4, [sp, #12]			//r4 = h
 8004f80:	9c03      	ldr	r4, [sp, #12]
F:\AT32-workspace\AT32F403ACGU7_clone_windows_desktop_virtual_com_port\Release/../Display/display_asm.S:319
		adds	r5, r2, r4				//r5 = y + h
 8004f82:	1915      	adds	r5, r2, r4
F:\AT32-workspace\AT32F403ACGU7_clone_windows_desktop_virtual_com_port\Release/../Display/display_asm.S:320
		cmp		r5, lr					//y + h > lcd->Height ?
 8004f84:	4575      	cmp	r5, lr
F:\AT32-workspace\AT32F403ACGU7_clone_windows_desktop_virtual_com_port\Release/../Display/display_asm.S:321
		bhi		.LCD_DrawImage_exit		//y за границами диапазона - выходим
 8004f86:	d815      	bhi.n	8004fb4 <LCD_DrawImage+0x4e>
F:\AT32-workspace\AT32F403ACGU7_clone_windows_desktop_virtual_com_port\Release/../Display/display_asm.S:322
		mul		r4, r4, r3				//r4 = w * h
 8004f88:	fb04 f403 	mul.w	r4, r4, r3
F:\AT32-workspace\AT32F403ACGU7_clone_windows_desktop_virtual_com_port\Release/../Display/display_asm.S:323
		subs	r5, #1					//r5 = y + h - 1
 8004f8c:	3d01      	subs	r5, #1
F:\AT32-workspace\AT32F403ACGU7_clone_windows_desktop_virtual_com_port\Release/../Display/display_asm.S:324
		sub		sp, #8					//sp = sp - 8 --> указатель стека перемещаем вверх для записи передаваемого параметра
 8004f8e:	b082      	sub	sp, #8
F:\AT32-workspace\AT32F403ACGU7_clone_windows_desktop_virtual_com_port\Release/../Display/display_asm.S:325
		str		r5, [sp, #0]			//r5 (y + h - 1) - записываем на вершину стека
 8004f90:	9500      	str	r5, [sp, #0]
F:\AT32-workspace\AT32F403ACGU7_clone_windows_desktop_virtual_com_port\Release/../Display/display_asm.S:326
		sub		r3, r12, #1				//r3 = x + w - 1
 8004f92:	f1ac 0301 	sub.w	r3, ip, #1
F:\AT32-workspace\AT32F403ACGU7_clone_windows_desktop_virtual_com_port\Release/../Display/display_asm.S:327
		movs	r5, r0					//r5 = r0 = lcd
 8004f96:	0005      	movs	r5, r0
F:\AT32-workspace\AT32F403ACGU7_clone_windows_desktop_virtual_com_port\Release/../Display/display_asm.S:328
		bl		LCD_SetActiveWindow 	//r0 = lcd, r1 = x, r2 = y, r3 = x + w - 1, [sp + 0] = y + h - 1
 8004f98:	f7ff fec6 	bl	8004d28 <LCD_SetActiveWindow>
F:\AT32-workspace\AT32F403ACGU7_clone_windows_desktop_virtual_com_port\Release/../Display/display_asm.S:329
		add		sp, #8					//восстанавливаем указатель стека
 8004f9c:	b002      	add	sp, #8
F:\AT32-workspace\AT32F403ACGU7_clone_windows_desktop_virtual_com_port\Release/../Display/display_asm.S:330
		movs	r0, r5					//r0 = r5 = lcd
 8004f9e:	0028      	movs	r0, r5
F:\AT32-workspace\AT32F403ACGU7_clone_windows_desktop_virtual_com_port\Release/../Display/display_asm.S:331
		ldr		r1, [sp, #16]			//r1 = data - адрес данных для передачи (параметр из стека)
 8004fa0:	9904      	ldr	r1, [sp, #16]
F:\AT32-workspace\AT32F403ACGU7_clone_windows_desktop_virtual_com_port\Release/../Display/display_asm.S:332
		movs	r2, r4					//r2 = w * h
 8004fa2:	0022      	movs	r2, r4
F:\AT32-workspace\AT32F403ACGU7_clone_windows_desktop_virtual_com_port\Release/../Display/display_asm.S:333
		ldr		r3, [sp, #20]			//r3 = dma_use_flag - флаг, определяющий использование DMA (параметр из стека)
 8004fa4:	9b05      	ldr	r3, [sp, #20]
F:\AT32-workspace\AT32F403ACGU7_clone_windows_desktop_virtual_com_port\Release/../Display/display_asm.S:334
		pop		{r4, r5, lr}			//восстанавливаем регистры из стека
 8004fa6:	e8bd 4030 	ldmia.w	sp!, {r4, r5, lr}
F:\AT32-workspace\AT32F403ACGU7_clone_windows_desktop_virtual_com_port\Release/../Display/display_asm.S:335
		orrs	r3, r3					//проверка использования DMA: dma_use_flag == 0 ?
 8004faa:	431b      	orrs	r3, r3
F:\AT32-workspace\AT32F403ACGU7_clone_windows_desktop_virtual_com_port\Release/../Display/display_asm.S:336
		beq		LCD_WriteData			//==0: переход на LCD_WriteData - без DMA
 8004fac:	f43f af1b 	beq.w	8004de6 <LCD_WriteData>
F:\AT32-workspace\AT32F403ACGU7_clone_windows_desktop_virtual_com_port\Release/../Display/display_asm.S:337
		b		LCD_WriteDataDMA		//переход на LCD_WriteDataDMA	- с DMA
 8004fb0:	f7ff bf4c 	b.w	8004e4c <LCD_WriteDataDMA>
F:\AT32-workspace\AT32F403ACGU7_clone_windows_desktop_virtual_com_port\Release/../Display/display_asm.S:339
.LCD_DrawImage_exit:
		pop		{r4, r5, pc}			//восстанавливаем регистры, адрес возврата из подпрограммы помещается в pc
 8004fb4:	bd30      	pop	{r4, r5, pc}
	...

08004fb8 <Display_TC_Callback>:
Display_TC_Callback():
F:\AT32-workspace\AT32F403ACGU7_clone_windows_desktop_virtual_com_port\Release/../Display/display_asm.S:348
		.section  .text.Display_TC_Callback
		.weak  Display_TC_Callback
		.type  Display_TC_Callback, %function
Display_TC_Callback:
		//r0 = dma_x, r1 = stream
		push	{lr}					//запоминаем в стеке адрес возврата из подпрограммы
 8004fb8:	b500      	push	{lr}
F:\AT32-workspace\AT32F403ACGU7_clone_windows_desktop_virtual_com_port\Release/../Display/display_asm.S:349
		sub		r1, r1, #1				//r1 = r1 - 1 (stream = stream - 1)
 8004fba:	f1a1 0101 	sub.w	r1, r1, #1
F:\AT32-workspace\AT32F403ACGU7_clone_windows_desktop_virtual_com_port\Release/../Display/display_asm.S:350
		lsls	r2, r1, #2				//r3 = r1 * 4;
 8004fbe:	008a      	lsls	r2, r1, #2
F:\AT32-workspace\AT32F403ACGU7_clone_windows_desktop_virtual_com_port\Release/../Display/display_asm.S:351
		movs	r3, #0x01				//маска для сброса флагов
 8004fc0:	2301      	movs	r3, #1
F:\AT32-workspace\AT32F403ACGU7_clone_windows_desktop_virtual_com_port\Release/../Display/display_asm.S:352
		mov		r3, r3, lsl r2			//сдвигаем маску на местоположение очищаемых флагов
 8004fc2:	fa03 f302 	lsl.w	r3, r3, r2
F:\AT32-workspace\AT32F403ACGU7_clone_windows_desktop_virtual_com_port\Release/../Display/display_asm.S:353
		str		r3, [r0, 0x04]			//записываем маску в рег. DMA_CLR
 8004fc6:	6043      	str	r3, [r0, #4]
F:\AT32-workspace\AT32F403ACGU7_clone_windows_desktop_virtual_com_port\Release/../Display/display_asm.S:354
		movs	r2, #20					//множитель для формулы: адрес потока = адрес DMA + 20 * (номер канала - 1)+ 8)
 8004fc8:	2214      	movs	r2, #20
F:\AT32-workspace\AT32F403ACGU7_clone_windows_desktop_virtual_com_port\Release/../Display/display_asm.S:355
		mla		r0, r1, r2, r0			//r0 = r0(dma) + r1(stream-1) * r2(20)
 8004fca:	fb01 0002 	mla	r0, r1, r2, r0
F:\AT32-workspace\AT32F403ACGU7_clone_windows_desktop_virtual_com_port\Release/../Display/display_asm.S:356
		add		r0, #8					//r0 = r0(dma) + 8, на выходе в r0 адрес канала DMA
 8004fce:	f100 0008 	add.w	r0, r0, #8
F:\AT32-workspace\AT32F403ACGU7_clone_windows_desktop_virtual_com_port\Release/../Display/display_asm.S:357
		ldr		r1, [r0, #0]			//чтение регистра CTRL DMA канала
 8004fd2:	6801      	ldr	r1, [r0, #0]
F:\AT32-workspace\AT32F403ACGU7_clone_windows_desktop_virtual_com_port\Release/../Display/display_asm.S:358
		bic		r1, r1, #1				//сбрасываем 0 (CHEN) бит (выключаем канал)
 8004fd4:	f021 0101 	bic.w	r1, r1, #1
F:\AT32-workspace\AT32F403ACGU7_clone_windows_desktop_virtual_com_port\Release/../Display/display_asm.S:359
		str		r1, [r0, #0]			//записываем в рег. CTRL
 8004fd8:	6001      	str	r1, [r0, #0]

08004fda <.Display_TC_Callback1>:
F:\AT32-workspace\AT32F403ACGU7_clone_windows_desktop_virtual_com_port\Release/../Display/display_asm.S:361
.Display_TC_Callback1:					//ждем отключения канал DMA
		ldr		r1, [r0, #0]			//чтение регистра CTRL DMA канала
 8004fda:	6801      	ldr	r1, [r0, #0]
F:\AT32-workspace\AT32F403ACGU7_clone_windows_desktop_virtual_com_port\Release/../Display/display_asm.S:362
		ands	r1, r1, #1				//проверка бита 0 (CHEN)
 8004fdc:	f011 0101 	ands.w	r1, r1, #1
F:\AT32-workspace\AT32F403ACGU7_clone_windows_desktop_virtual_com_port\Release/../Display/display_asm.S:363
		bne		.Display_TC_Callback1	//если не ноль, то идем на новый круг, считывая состояние рег. CTRL DMA канала
 8004fe0:	d1fb      	bne.n	8004fda <.Display_TC_Callback1>
F:\AT32-workspace\AT32F403ACGU7_clone_windows_desktop_virtual_com_port\Release/../Display/display_asm.S:364
		ldr		r3, =LCD				//определяем адрес местоположения переменной списка дисплеев
 8004fe2:	4b12      	ldr	r3, [pc, #72]	; (800502c <.Display_TC_Callback4+0xa>)
F:\AT32-workspace\AT32F403ACGU7_clone_windows_desktop_virtual_com_port\Release/../Display/display_asm.S:365
		ldr		r3, [r3]				//"вытаскиваем" указатель на первый дисплей в списке
 8004fe4:	681b      	ldr	r3, [r3, #0]
F:\AT32-workspace\AT32F403ACGU7_clone_windows_desktop_virtual_com_port\Release/../Display/display_asm.S:366
		ldr		r2, [r3, #lcd_sz_mem]	//в r2 значение переменной lcd->size_mem из обработчика lcd
 8004fe6:	6e1a      	ldr	r2, [r3, #96]	; 0x60
F:\AT32-workspace\AT32F403ACGU7_clone_windows_desktop_virtual_com_port\Release/../Display/display_asm.S:367
		cbz		r2, .Display_TC_Callback2	//если данных для передачи больше нет, то переходим на завершение передачи
 8004fe8:	b16a      	cbz	r2, 8005006 <.Display_TC_Callback2>
F:\AT32-workspace\AT32F403ACGU7_clone_windows_desktop_virtual_com_port\Release/../Display/display_asm.S:368
		movw	r1, 0xffff				//записать в r1 0xffff (65535)
 8004fea:	f64f 71ff 	movw	r1, #65535	; 0xffff
F:\AT32-workspace\AT32F403ACGU7_clone_windows_desktop_virtual_com_port\Release/../Display/display_asm.S:369
		cmp		r2, r1					//сравнить r2 c r1 (нас интересует: r2 > 65535 или нет)
 8004fee:	428a      	cmp	r2, r1
F:\AT32-workspace\AT32F403ACGU7_clone_windows_desktop_virtual_com_port\Release/../Display/display_asm.S:370
		itee	gt						//выполнение IT-блока по типу: if больше then else
 8004ff0:	bfce      	itee	gt
F:\AT32-workspace\AT32F403ACGU7_clone_windows_desktop_virtual_com_port\Release/../Display/display_asm.S:371
		subgt	r2, r2, r1				//остаток len = len - 65535, для текущей передачи 65535
 8004ff2:	1a52      	subgt	r2, r2, r1
F:\AT32-workspace\AT32F403ACGU7_clone_windows_desktop_virtual_com_port\Release/../Display/display_asm.S:372
		movle	r1, r2					//на передачу len
 8004ff4:	4611      	movle	r1, r2
F:\AT32-workspace\AT32F403ACGU7_clone_windows_desktop_virtual_com_port\Release/../Display/display_asm.S:373
		movle	r2, 0					//осталось передать 0
 8004ff6:	2200      	movle	r2, #0
F:\AT32-workspace\AT32F403ACGU7_clone_windows_desktop_virtual_com_port\Release/../Display/display_asm.S:374
		str		r1, [r0, #4]			//запись r1 в регистр DTCNT DMA
 8004ff8:	6041      	str	r1, [r0, #4]
F:\AT32-workspace\AT32F403ACGU7_clone_windows_desktop_virtual_com_port\Release/../Display/display_asm.S:375
		str		r2, [r3, #lcd_sz_mem]	//запись r3 в переменную lcd->size_mem (остаток для следующей передачи)
 8004ffa:	661a      	str	r2, [r3, #96]	; 0x60
F:\AT32-workspace\AT32F403ACGU7_clone_windows_desktop_virtual_com_port\Release/../Display/display_asm.S:376
		ldr		r1, [r0]				//чтение рег. CTRL DMA
 8004ffc:	6801      	ldr	r1, [r0, #0]
F:\AT32-workspace\AT32F403ACGU7_clone_windows_desktop_virtual_com_port\Release/../Display/display_asm.S:377
		orr		r1, r1, #1				//установка бита CHEN рег. CR DMA (включение канала)
 8004ffe:	f041 0101 	orr.w	r1, r1, #1
F:\AT32-workspace\AT32F403ACGU7_clone_windows_desktop_virtual_com_port\Release/../Display/display_asm.S:378
		str		r1, [r0]				//запись в рег. CHEN DMA
 8005002:	6001      	str	r1, [r0, #0]
F:\AT32-workspace\AT32F403ACGU7_clone_windows_desktop_virtual_com_port\Release/../Display/display_asm.S:379
		pop		{pc}					//восстанавливаем в рег. pc адрес возврата из подпрограммы (переход произойдет автоматически)
 8005004:	bd00      	pop	{pc}

08005006 <.Display_TC_Callback2>:
F:\AT32-workspace\AT32F403ACGU7_clone_windows_desktop_virtual_com_port\Release/../Display/display_asm.S:381
.Display_TC_Callback2:					//завершение передачи
		ldr		r0, [r3, #lcd_spi]		//в r0 - указатель на spi из обработчика Lcd
 8005006:	6a58      	ldr	r0, [r3, #36]	; 0x24
F:\AT32-workspace\AT32F403ACGU7_clone_windows_desktop_virtual_com_port\Release/../Display/display_asm.S:382
		ldr		r1, [r0, #0x04]			//читаем регистр CTRL2 spi
 8005008:	6841      	ldr	r1, [r0, #4]
F:\AT32-workspace\AT32F403ACGU7_clone_windows_desktop_virtual_com_port\Release/../Display/display_asm.S:383
		bic		r1, r1, #2				//сбрасываем бит 1 (DMATEN) в регистре CTRL2
 800500a:	f021 0102 	bic.w	r1, r1, #2
F:\AT32-workspace\AT32F403ACGU7_clone_windows_desktop_virtual_com_port\Release/../Display/display_asm.S:384
		str		r1, [r0, #0x04]			//записываем в регистр CTRL2
 800500e:	6041      	str	r1, [r0, #4]

08005010 <.Display_TC_Callback3>:
F:\AT32-workspace\AT32F403ACGU7_clone_windows_desktop_virtual_com_port\Release/../Display/display_asm.S:386
.Display_TC_Callback3:					//ждем, когда spi освободится
		ldr		r1, [r0, #0x08]			//читаем регистр STS spi
 8005010:	6881      	ldr	r1, [r0, #8]
F:\AT32-workspace\AT32F403ACGU7_clone_windows_desktop_virtual_com_port\Release/../Display/display_asm.S:387
		ands	r1, r1, #128			//проверяем состояние бита 7 (BF) регистра STS spi
 8005012:	f011 0180 	ands.w	r1, r1, #128	; 0x80
F:\AT32-workspace\AT32F403ACGU7_clone_windows_desktop_virtual_com_port\Release/../Display/display_asm.S:388
		bne		.Display_TC_Callback3	//если бит установлен (не ноль), то spi занято, и повторяем опрос состояния рег. STS
 8005016:	d1fb      	bne.n	8005010 <.Display_TC_Callback3>
F:\AT32-workspace\AT32F403ACGU7_clone_windows_desktop_virtual_com_port\Release/../Display/display_asm.S:389
		ldr		r2, [r3, #lcd_cs_port]	//порт cs из обработчика Lcd
 8005018:	6c1a      	ldr	r2, [r3, #64]	; 0x40
F:\AT32-workspace\AT32F403ACGU7_clone_windows_desktop_virtual_com_port\Release/../Display/display_asm.S:390
		cbz		r2, .Display_TC_Callback4	//если управление по cs не поддерживается, то "перескакиваем" через 2 команды
 800501a:	b112      	cbz	r2, 8005022 <.Display_TC_Callback4>
F:\AT32-workspace\AT32F403ACGU7_clone_windows_desktop_virtual_com_port\Release/../Display/display_asm.S:391
		ldrh	r1, [r3, #lcd_cs_pin]	//пин cs из обработчика Lcd
 800501c:	f8b3 1044 	ldrh.w	r1, [r3, #68]	; 0x44
F:\AT32-workspace\AT32F403ACGU7_clone_windows_desktop_virtual_com_port\Release/../Display/display_asm.S:392
		str		r1, [r2, #0x10]			//cs hi, записываем 1 в соответствующие разряды рег. GPIOx_SCR порта
 8005020:	6111      	str	r1, [r2, #16]

08005022 <.Display_TC_Callback4>:
F:\AT32-workspace\AT32F403ACGU7_clone_windows_desktop_virtual_com_port\Release/../Display/display_asm.S:394
.Display_TC_Callback4:
		ldr		r1, [r0, #0x00]			//читаем рег. CTRL1 spi
 8005022:	6801      	ldr	r1, [r0, #0]
F:\AT32-workspace\AT32F403ACGU7_clone_windows_desktop_virtual_com_port\Release/../Display/display_asm.S:395
		bic		r1, r1, #64				//сбрасываем бит 6 (SPIEN) рег. CTRL1 spi
 8005024:	f021 0140 	bic.w	r1, r1, #64	; 0x40
F:\AT32-workspace\AT32F403ACGU7_clone_windows_desktop_virtual_com_port\Release/../Display/display_asm.S:396
		str		r1, [r0, #0x00]			//записываем в рег. CTRL1 spi
 8005028:	6001      	str	r1, [r0, #0]
F:\AT32-workspace\AT32F403ACGU7_clone_windows_desktop_virtual_com_port\Release/../Display/display_asm.S:397
		pop		{pc}					//восстанавливаем в рег. pc адрес возврата из подпрограммы (переход произойдет автоматически)
 800502a:	bd00      	pop	{pc}
.Display_TC_Callback4():
F:\AT32-workspace\AT32F403ACGU7_clone_windows_desktop_virtual_com_port\Release/../Display/display_asm.S:364
		ldr		r3, =LCD				//определяем адрес местоположения переменной списка дисплеев
 800502c:	20009224 	.word	0x20009224

08005030 <ILI9341_Init>:
ILI9341_Init():
F:\AT32-workspace\AT32F403ACGU7_clone_windows_desktop_virtual_com_port\Release/../Display/ili9341.c:88
}

uint8_t* ILI9341_Init(uint8_t orientation)
{
	uint8_t mem_config = 0;
	if (orientation == PAGE_ORIENTATION_PORTRAIT) 				mem_config = ILI9341_MemoryDataAccessControlConfig(1, 0, 0, 1, 0, 0);
 8005030:	b158      	cbz	r0, 800504a <ILI9341_Init+0x1a>
F:\AT32-workspace\AT32F403ACGU7_clone_windows_desktop_virtual_com_port\Release/../Display/ili9341.c:89
	else if (orientation == PAGE_ORIENTATION_PORTRAIT_MIRROR) 	mem_config = ILI9341_MemoryDataAccessControlConfig(0, 1, 0, 1, 1, 1);
 8005032:	2802      	cmp	r0, #2
 8005034:	d00e      	beq.n	8005054 <ILI9341_Init+0x24>
F:\AT32-workspace\AT32F403ACGU7_clone_windows_desktop_virtual_com_port\Release/../Display/ili9341.c:90
	else if (orientation == PAGE_ORIENTATION_LANDSCAPE) 		mem_config = ILI9341_MemoryDataAccessControlConfig(0, 0, 1, 1, 0, 1);
 8005036:	2801      	cmp	r0, #1
 8005038:	d011      	beq.n	800505e <ILI9341_Init+0x2e>
F:\AT32-workspace\AT32F403ACGU7_clone_windows_desktop_virtual_com_port\Release/../Display/ili9341.c:91
	else if (orientation == PAGE_ORIENTATION_LANDSCAPE_MIRROR) 	mem_config = ILI9341_MemoryDataAccessControlConfig(1, 1, 1, 1, 1, 0);
 800503a:	2803      	cmp	r0, #3
F:\AT32-workspace\AT32F403ACGU7_clone_windows_desktop_virtual_com_port\Release/../Display/ili9341.c:92
	ili9341_init_str[65] = mem_config;
 800503c:	480a      	ldr	r0, [pc, #40]	; (8005068 <ILI9341_Init+0x38>)
F:\AT32-workspace\AT32F403ACGU7_clone_windows_desktop_virtual_com_port\Release/../Display/ili9341.c:91
	else if (orientation == PAGE_ORIENTATION_LANDSCAPE_MIRROR) 	mem_config = ILI9341_MemoryDataAccessControlConfig(1, 1, 1, 1, 1, 0);
 800503e:	bf14      	ite	ne
 8005040:	2300      	movne	r3, #0
 8005042:	23f8      	moveq	r3, #248	; 0xf8
F:\AT32-workspace\AT32F403ACGU7_clone_windows_desktop_virtual_com_port\Release/../Display/ili9341.c:92
	ili9341_init_str[65] = mem_config;
 8005044:	f880 3041 	strb.w	r3, [r0, #65]	; 0x41
F:\AT32-workspace\AT32F403ACGU7_clone_windows_desktop_virtual_com_port\Release/../Display/ili9341.c:94
	return ili9341_init_str;
}
 8005048:	4770      	bx	lr
F:\AT32-workspace\AT32F403ACGU7_clone_windows_desktop_virtual_com_port\Release/../Display/ili9341.c:92
	ili9341_init_str[65] = mem_config;
 800504a:	4807      	ldr	r0, [pc, #28]	; (8005068 <ILI9341_Init+0x38>)
F:\AT32-workspace\AT32F403ACGU7_clone_windows_desktop_virtual_com_port\Release/../Display/ili9341.c:88
	if (orientation == PAGE_ORIENTATION_PORTRAIT) 				mem_config = ILI9341_MemoryDataAccessControlConfig(1, 0, 0, 1, 0, 0);
 800504c:	2348      	movs	r3, #72	; 0x48
F:\AT32-workspace\AT32F403ACGU7_clone_windows_desktop_virtual_com_port\Release/../Display/ili9341.c:92
	ili9341_init_str[65] = mem_config;
 800504e:	f880 3041 	strb.w	r3, [r0, #65]	; 0x41
F:\AT32-workspace\AT32F403ACGU7_clone_windows_desktop_virtual_com_port\Release/../Display/ili9341.c:94
}
 8005052:	4770      	bx	lr
F:\AT32-workspace\AT32F403ACGU7_clone_windows_desktop_virtual_com_port\Release/../Display/ili9341.c:92
	ili9341_init_str[65] = mem_config;
 8005054:	4804      	ldr	r0, [pc, #16]	; (8005068 <ILI9341_Init+0x38>)
F:\AT32-workspace\AT32F403ACGU7_clone_windows_desktop_virtual_com_port\Release/../Display/ili9341.c:89
	else if (orientation == PAGE_ORIENTATION_PORTRAIT_MIRROR) 	mem_config = ILI9341_MemoryDataAccessControlConfig(0, 1, 0, 1, 1, 1);
 8005056:	239c      	movs	r3, #156	; 0x9c
F:\AT32-workspace\AT32F403ACGU7_clone_windows_desktop_virtual_com_port\Release/../Display/ili9341.c:92
	ili9341_init_str[65] = mem_config;
 8005058:	f880 3041 	strb.w	r3, [r0, #65]	; 0x41
F:\AT32-workspace\AT32F403ACGU7_clone_windows_desktop_virtual_com_port\Release/../Display/ili9341.c:94
}
 800505c:	4770      	bx	lr
F:\AT32-workspace\AT32F403ACGU7_clone_windows_desktop_virtual_com_port\Release/../Display/ili9341.c:92
	ili9341_init_str[65] = mem_config;
 800505e:	4802      	ldr	r0, [pc, #8]	; (8005068 <ILI9341_Init+0x38>)
F:\AT32-workspace\AT32F403ACGU7_clone_windows_desktop_virtual_com_port\Release/../Display/ili9341.c:90
	else if (orientation == PAGE_ORIENTATION_LANDSCAPE) 		mem_config = ILI9341_MemoryDataAccessControlConfig(0, 0, 1, 1, 0, 1);
 8005060:	232c      	movs	r3, #44	; 0x2c
F:\AT32-workspace\AT32F403ACGU7_clone_windows_desktop_virtual_com_port\Release/../Display/ili9341.c:92
	ili9341_init_str[65] = mem_config;
 8005062:	f880 3041 	strb.w	r3, [r0, #65]	; 0x41
F:\AT32-workspace\AT32F403ACGU7_clone_windows_desktop_virtual_com_port\Release/../Display/ili9341.c:94
}
 8005066:	4770      	bx	lr
 8005068:	2000010c 	.word	0x2000010c

0800506c <ILI9341_SetWindow>:
ILI9341_SetWindow():
F:\AT32-workspace\AT32F403ACGU7_clone_windows_desktop_virtual_com_port\Release/../Display/ili9341.c:97

uint8_t* ILI9341_SetWindow(uint16_t x0, uint16_t y0, uint16_t x1, uint16_t y1)
{
 800506c:	b410      	push	{r4}
F:\AT32-workspace\AT32F403ACGU7_clone_windows_desktop_virtual_com_port\Release/../Display/ili9341.c:98
	ili9341_setwin_str[3] = x0 >> 8;  ili9341_setwin_str[4] = x0 & 0xFF;
 800506e:	4c07      	ldr	r4, [pc, #28]	; (800508c <ILI9341_SetWindow+0x20>)
F:\AT32-workspace\AT32F403ACGU7_clone_windows_desktop_virtual_com_port\Release/../Display/ili9341.c:100
	ili9341_setwin_str[5] = x1 >> 8;  ili9341_setwin_str[6] = x1 & 0xFF;
	ili9341_setwin_str[10] = y0 >> 8; ili9341_setwin_str[11] = y0 & 0xFF;
 8005070:	ba49      	rev16	r1, r1
 8005072:	8161      	strh	r1, [r4, #10]
F:\AT32-workspace\AT32F403ACGU7_clone_windows_desktop_virtual_com_port\Release/../Display/ili9341.c:98
	ili9341_setwin_str[3] = x0 >> 8;  ili9341_setwin_str[4] = x0 & 0xFF;
 8005074:	7120      	strb	r0, [r4, #4]
F:\AT32-workspace\AT32F403ACGU7_clone_windows_desktop_virtual_com_port\Release/../Display/ili9341.c:101
	ili9341_setwin_str[12] = y1 >> 8; ili9341_setwin_str[13] = y1 & 0xFF;
 8005076:	ba5b      	rev16	r3, r3
F:\AT32-workspace\AT32F403ACGU7_clone_windows_desktop_virtual_com_port\Release/../Display/ili9341.c:98
	ili9341_setwin_str[3] = x0 >> 8;  ili9341_setwin_str[4] = x0 & 0xFF;
 8005078:	0a00      	lsrs	r0, r0, #8
F:\AT32-workspace\AT32F403ACGU7_clone_windows_desktop_virtual_com_port\Release/../Display/ili9341.c:99
	ili9341_setwin_str[5] = x1 >> 8;  ili9341_setwin_str[6] = x1 & 0xFF;
 800507a:	0a11      	lsrs	r1, r2, #8
F:\AT32-workspace\AT32F403ACGU7_clone_windows_desktop_virtual_com_port\Release/../Display/ili9341.c:98
	ili9341_setwin_str[3] = x0 >> 8;  ili9341_setwin_str[4] = x0 & 0xFF;
 800507c:	70e0      	strb	r0, [r4, #3]
F:\AT32-workspace\AT32F403ACGU7_clone_windows_desktop_virtual_com_port\Release/../Display/ili9341.c:99
	ili9341_setwin_str[5] = x1 >> 8;  ili9341_setwin_str[6] = x1 & 0xFF;
 800507e:	7161      	strb	r1, [r4, #5]
F:\AT32-workspace\AT32F403ACGU7_clone_windows_desktop_virtual_com_port\Release/../Display/ili9341.c:103
	return ili9341_setwin_str;
}
 8005080:	4620      	mov	r0, r4
F:\AT32-workspace\AT32F403ACGU7_clone_windows_desktop_virtual_com_port\Release/../Display/ili9341.c:99
	ili9341_setwin_str[5] = x1 >> 8;  ili9341_setwin_str[6] = x1 & 0xFF;
 8005082:	71a2      	strb	r2, [r4, #6]
F:\AT32-workspace\AT32F403ACGU7_clone_windows_desktop_virtual_com_port\Release/../Display/ili9341.c:101
	ili9341_setwin_str[12] = y1 >> 8; ili9341_setwin_str[13] = y1 & 0xFF;
 8005084:	81a3      	strh	r3, [r4, #12]
F:\AT32-workspace\AT32F403ACGU7_clone_windows_desktop_virtual_com_port\Release/../Display/ili9341.c:103
}
 8005086:	f85d 4b04 	ldr.w	r4, [sp], #4
 800508a:	4770      	bx	lr
 800508c:	200001a0 	.word	0x200001a0

08005090 <ILI9341_SleepIn>:
ILI9341_SleepIn():
F:\AT32-workspace\AT32F403ACGU7_clone_windows_desktop_virtual_com_port\Release/../Display/ili9341.c:108

uint8_t* ILI9341_SleepIn(void)
{
	return ili9341_sleepin_str;
}
 8005090:	4800      	ldr	r0, [pc, #0]	; (8005094 <ILI9341_SleepIn+0x4>)
 8005092:	4770      	bx	lr
 8005094:	200001b4 	.word	0x200001b4

08005098 <ILI9341_SleepOut>:
ILI9341_SleepOut():
F:\AT32-workspace\AT32F403ACGU7_clone_windows_desktop_virtual_com_port\Release/../Display/ili9341.c:113

uint8_t* ILI9341_SleepOut(void)
{
	return ili9341_sleepout_str;
}
 8005098:	4800      	ldr	r0, [pc, #0]	; (800509c <ILI9341_SleepOut+0x4>)
 800509a:	4770      	bx	lr
 800509c:	200001bc 	.word	0x200001bc

080050a0 <__libc_init_array>:
__libc_init_array():
 80050a0:	b570      	push	{r4, r5, r6, lr}
 80050a2:	4d0d      	ldr	r5, [pc, #52]	; (80050d8 <__libc_init_array+0x38>)
 80050a4:	4c0d      	ldr	r4, [pc, #52]	; (80050dc <__libc_init_array+0x3c>)
 80050a6:	1b64      	subs	r4, r4, r5
 80050a8:	10a4      	asrs	r4, r4, #2
 80050aa:	2600      	movs	r6, #0
 80050ac:	42a6      	cmp	r6, r4
 80050ae:	d109      	bne.n	80050c4 <__libc_init_array+0x24>
 80050b0:	4d0b      	ldr	r5, [pc, #44]	; (80050e0 <__libc_init_array+0x40>)
 80050b2:	4c0c      	ldr	r4, [pc, #48]	; (80050e4 <__libc_init_array+0x44>)
 80050b4:	f000 f872 	bl	800519c <_init>
 80050b8:	1b64      	subs	r4, r4, r5
 80050ba:	10a4      	asrs	r4, r4, #2
 80050bc:	2600      	movs	r6, #0
 80050be:	42a6      	cmp	r6, r4
 80050c0:	d105      	bne.n	80050ce <__libc_init_array+0x2e>
 80050c2:	bd70      	pop	{r4, r5, r6, pc}
 80050c4:	f855 3b04 	ldr.w	r3, [r5], #4
 80050c8:	4798      	blx	r3
 80050ca:	3601      	adds	r6, #1
 80050cc:	e7ee      	b.n	80050ac <__libc_init_array+0xc>
 80050ce:	f855 3b04 	ldr.w	r3, [r5], #4
 80050d2:	4798      	blx	r3
 80050d4:	3601      	adds	r6, #1
 80050d6:	e7f2      	b.n	80050be <__libc_init_array+0x1e>
 80050d8:	08005ea0 	.word	0x08005ea0
 80050dc:	08005ea0 	.word	0x08005ea0
 80050e0:	08005ea0 	.word	0x08005ea0
 80050e4:	08005ea8 	.word	0x08005ea8

080050e8 <memcpy>:
memcpy():
 80050e8:	440a      	add	r2, r1
 80050ea:	4291      	cmp	r1, r2
 80050ec:	f100 33ff 	add.w	r3, r0, #4294967295
 80050f0:	d100      	bne.n	80050f4 <memcpy+0xc>
 80050f2:	4770      	bx	lr
 80050f4:	b510      	push	{r4, lr}
 80050f6:	f811 4b01 	ldrb.w	r4, [r1], #1
 80050fa:	f803 4f01 	strb.w	r4, [r3, #1]!
 80050fe:	4291      	cmp	r1, r2
 8005100:	d1f9      	bne.n	80050f6 <memcpy+0xe>
 8005102:	bd10      	pop	{r4, pc}

08005104 <memset>:
memset():
 8005104:	4402      	add	r2, r0
 8005106:	4603      	mov	r3, r0
 8005108:	4293      	cmp	r3, r2
 800510a:	d100      	bne.n	800510e <memset+0xa>
 800510c:	4770      	bx	lr
 800510e:	f803 1b01 	strb.w	r1, [r3], #1
 8005112:	e7f9      	b.n	8005108 <memset+0x4>

08005114 <__utoa>:
__utoa():
 8005114:	b5f0      	push	{r4, r5, r6, r7, lr}
 8005116:	4c1f      	ldr	r4, [pc, #124]	; (8005194 <__utoa+0x80>)
 8005118:	b08b      	sub	sp, #44	; 0x2c
 800511a:	4605      	mov	r5, r0
 800511c:	460b      	mov	r3, r1
 800511e:	466e      	mov	r6, sp
 8005120:	f104 0c20 	add.w	ip, r4, #32
 8005124:	6820      	ldr	r0, [r4, #0]
 8005126:	6861      	ldr	r1, [r4, #4]
 8005128:	4637      	mov	r7, r6
 800512a:	c703      	stmia	r7!, {r0, r1}
 800512c:	3408      	adds	r4, #8
 800512e:	4564      	cmp	r4, ip
 8005130:	463e      	mov	r6, r7
 8005132:	d1f7      	bne.n	8005124 <__utoa+0x10>
 8005134:	7921      	ldrb	r1, [r4, #4]
 8005136:	7139      	strb	r1, [r7, #4]
 8005138:	1e91      	subs	r1, r2, #2
 800513a:	6820      	ldr	r0, [r4, #0]
 800513c:	6038      	str	r0, [r7, #0]
 800513e:	2922      	cmp	r1, #34	; 0x22
 8005140:	f04f 0100 	mov.w	r1, #0
 8005144:	d904      	bls.n	8005150 <__utoa+0x3c>
 8005146:	7019      	strb	r1, [r3, #0]
 8005148:	460b      	mov	r3, r1
 800514a:	4618      	mov	r0, r3
 800514c:	b00b      	add	sp, #44	; 0x2c
 800514e:	bdf0      	pop	{r4, r5, r6, r7, pc}
 8005150:	1e58      	subs	r0, r3, #1
 8005152:	4684      	mov	ip, r0
 8005154:	fbb5 f7f2 	udiv	r7, r5, r2
 8005158:	fb02 5617 	mls	r6, r2, r7, r5
 800515c:	3628      	adds	r6, #40	; 0x28
 800515e:	446e      	add	r6, sp
 8005160:	460c      	mov	r4, r1
 8005162:	f816 6c28 	ldrb.w	r6, [r6, #-40]
 8005166:	f80c 6f01 	strb.w	r6, [ip, #1]!
 800516a:	462e      	mov	r6, r5
 800516c:	42b2      	cmp	r2, r6
 800516e:	f101 0101 	add.w	r1, r1, #1
 8005172:	463d      	mov	r5, r7
 8005174:	d9ee      	bls.n	8005154 <__utoa+0x40>
 8005176:	2200      	movs	r2, #0
 8005178:	545a      	strb	r2, [r3, r1]
 800517a:	1919      	adds	r1, r3, r4
 800517c:	1aa5      	subs	r5, r4, r2
 800517e:	42aa      	cmp	r2, r5
 8005180:	dae3      	bge.n	800514a <__utoa+0x36>
 8005182:	f810 5f01 	ldrb.w	r5, [r0, #1]!
 8005186:	780e      	ldrb	r6, [r1, #0]
 8005188:	7006      	strb	r6, [r0, #0]
 800518a:	3201      	adds	r2, #1
 800518c:	f801 5901 	strb.w	r5, [r1], #-1
 8005190:	e7f4      	b.n	800517c <__utoa+0x68>
 8005192:	bf00      	nop
 8005194:	08005e78 	.word	0x08005e78

08005198 <utoa>:
utoa():
 8005198:	f7ff bfbc 	b.w	8005114 <__utoa>

0800519c <_init>:
_init():
 800519c:	b5f8      	push	{r3, r4, r5, r6, r7, lr}
 800519e:	bf00      	nop
 80051a0:	bcf8      	pop	{r3, r4, r5, r6, r7}
 80051a2:	bc08      	pop	{r3}
 80051a4:	469e      	mov	lr, r3
 80051a6:	4770      	bx	lr

080051a8 <_fini>:
_fini():
 80051a8:	b5f8      	push	{r3, r4, r5, r6, r7, lr}
 80051aa:	bf00      	nop
 80051ac:	bcf8      	pop	{r3, r4, r5, r6, r7}
 80051ae:	bc08      	pop	{r3}
 80051b0:	469e      	mov	lr, r3
 80051b2:	4770      	bx	lr
